 PhysXCooking_64

 Timestamp is 61045aa4 (Fri Jul 30 22:01:40 2021)

 Preferred load address is 0000000180000000

 Start         Length     Name                   Class
 0001:00000000 000003c0H .text$di                CODE
 0001:000003c0 000428d0H .text$mn                CODE
 0001:00042c90 00000040H .text$mn$00             CODE
 0001:00042cd0 00000490H .text$x                 CODE
 0002:00000000 00000258H .idata$5                DATA
 0002:00000258 00000028H .00cfg                  DATA
 0002:00000280 00000008H .CRT$XCA                DATA
 0002:00000288 000001e0H .CRT$XCU                DATA
 0002:00000468 00000008H .CRT$XCZ                DATA
 0002:00000470 00000008H .CRT$XIA                DATA
 0002:00000478 00000018H .CRT$XIC                DATA
 0002:00000490 00000008H .CRT$XIZ                DATA
 0002:00000498 00000008H .CRT$XPA                DATA
 0002:000004a0 00000010H .CRT$XPX                DATA
 0002:000004b0 00000008H .CRT$XPXA               DATA
 0002:000004b8 00000008H .CRT$XPZ                DATA
 0002:000004c0 00000008H .CRT$XTA                DATA
 0002:000004c8 00000008H .CRT$XTZ                DATA
 0002:000004d0 00000000H .gehcont$y              DATA
 0002:000004d0 00000000H .gfids$y                DATA
 0002:000004d0 0000b1e8H .rdata                  DATA
 0002:0000b6b8 0000043cH .rdata$r                DATA
 0002:0000baf4 000003f4H .rdata$zzzdbg           DATA
 0002:0000bee8 00000008H .rtc$IAA                DATA
 0002:0000bef0 00000008H .rtc$IZZ                DATA
 0002:0000bef8 00000008H .rtc$TAA                DATA
 0002:0000bf00 00000008H .rtc$TZZ                DATA
 0002:0000bf08 00003d60H .xdata                  DATA
 0002:0000fc68 00000084H .xdata$x                DATA
 0002:0000fcec 00000040H .didat$2                DATA
 0002:0000fd2c 00000024H .didat$3                DATA
 0002:0000fd50 00000188H .didat$4                DATA
 0002:0000fed8 00000950H .didat$6                DATA
 0002:00010828 00000188H .didat$7                DATA
 0002:000109b0 00001d00H .edata                  DATA
 0002:000126b0 00000014H .idata$2                DATA
 0002:000126c4 00000014H .idata$3                DATA
 0002:000126d8 00000258H .idata$4                DATA
 0002:00012930 00000576H .idata$6                DATA
 0003:00000000 00000a30H .data                   DATA
 0003:00000a30 000006d8H .data$r                 DATA
 0003:00001108 00000188H .didat$5                DATA
 0003:00001290 000015d0H .bss                    DATA
 0004:00000000 00003270H .pdata                  DATA
 0005:00000000 000022a4H _RDATA                  DATA
 0006:00000000 000000a0H .rsrc$01                DATA
 0006:000000a0 000004b0H .rsrc$02                DATA

  Address         Publics by Value              Rva+Base               Lib:Object

 0000:00000000       __arm64x_redirection_metadata_count 0000000000000000     <absolute>
 0000:00000000       __hybrid_code_map          0000000000000000     <absolute>
 0000:00000000       __guard_iat_count          0000000000000000     <absolute>
 0000:00000000       __guard_longjmp_table      0000000000000000     <absolute>
 0000:00000000       __arm64x_redirection_metadata 0000000000000000     <absolute>
 0000:00000000       __guard_eh_cont_count      0000000000000000     <absolute>
 0000:00000000       __arm64x_native_entrypoint 0000000000000000     <absolute>
 0000:00000000       __volatile_metadata        0000000000000000     <absolute>
 0000:00000000       __guard_iat_table          0000000000000000     <absolute>
 0000:00000000       __guard_longjmp_count      0000000000000000     <absolute>
 0000:00000000       __guard_eh_cont_table      0000000000000000     <absolute>
 0000:00000000       __x64_code_ranges_to_entry_points 0000000000000000     <absolute>
 0000:00000000       __hybrid_code_map_count    0000000000000000     <absolute>
 0000:00000000       __x64_code_ranges_to_entry_points_count 0000000000000000     <absolute>
 0000:00000000       __enclave_config           0000000000000000     <absolute>
 0000:00000000       ___safe_se_handler_count   0000000000000000     <absolute>
 0000:00000000       __guard_fids_count         0000000000000000     <absolute>
 0000:00000000       __arm64x_extra_rfe_table   0000000000000000     <absolute>
 0000:00000000       __dynamic_value_reloc_table 0000000000000000     <absolute>
 0000:00000000       __AbsoluteZero             0000000000000000     <absolute>
 0000:00000000       ___safe_se_handler_table   0000000000000000     <absolute>
 0000:00000000       __arm64x_extra_rfe_table_size 0000000000000000     <absolute>
 0000:00000000       __guard_fids_table         0000000000000000     <absolute>
 0000:00000000       __hybrid_auxiliary_iat     0000000000000000     <absolute>
 0000:00000100       __guard_flags              0000000000000100     <absolute>
 0000:00000000       __ImageBase                0000000180000000     <linker-defined>
 0001:000003c0       ??$?_UV?$ReflectionAllocator@VAdjTriangle@physx@@@shdfnd@physx@@@UserAllocated@shdfnd@physx@@SAPEAX_KV?$ReflectionAllocator@VAdjTriangle@physx@@@12@PEBDH@Z 00000001800013c0 f i Adjacencies.obj
 0001:00000460       ??0AdjacenciesBuilder@physx@@QEAA@XZ 0000000180001460 f   Adjacencies.obj
 0001:00000470       ??0AABBTreeBuildNode@Gu@physx@@QEAA@XZ 0000000180001470 f i BVHStructureBuilder.obj
 0001:00000470       ??4Allocator@shdfnd@physx@@QEAAAEAV012@AEBV012@@Z 0000000180001470 f i Adjacencies.obj
 0001:00000470       ??0Box@Gu@physx@@QEAA@XZ   0000000180001470 f i ConvexHullUtils.obj
 0001:00000470       ??0Allocator@shdfnd@physx@@QEAA@PEBD@Z 0000000180001470 f i Adjacencies.obj
 0001:00000470       ??4PxFoundation@physx@@QEAAAEAV01@AEBV01@@Z 0000000180001470 f i Adjacencies.obj
 0001:00000470       ??$forward@_K@std@@YA$$QEA_KAEA_K@Z 0000000180001470 f i libvcruntime:undname.obj
 0001:00000470       ?getPaddedBounds@HeightFieldData@Gu@physx@@QEBAAEBVCenterExtentsPadded@23@XZ 0000000180001470 f i Cooking.obj
 0001:00000470       ??4Allocator@shdfnd@physx@@QEAAAEAV012@$$QEAV012@@Z 0000000180001470 f i Adjacencies.obj
 0001:00000470       ??0BigConvexData@physx@@QEAA@W4PxEMPTY@1@@Z 0000000180001470 f i BigConvexDataBuilder.obj
 0001:00000470       ?getAABB@AABBTreeBuildNode@Gu@physx@@QEBAAEBVPxBounds3@3@XZ 0000000180001470 f i BVHStructureBuilder.obj
 0001:00000470       ??0HeightFieldData@Gu@physx@@QEAA@W4PxEMPTY@2@@Z 0000000180001470 f i Cooking.obj
 0001:00000470       ??4MutexImpl@shdfnd@physx@@QEAAAEAV012@AEBV012@@Z 0000000180001470 f i Adjacencies.obj
 0001:00000480       ??0PxFoundation@physx@@QEAA@XZ 0000000180001480 f i Adjacencies.obj
 0001:00000480       ??0PxFoundation@physx@@QEAA@AEBV01@@Z 0000000180001480 f i Adjacencies.obj
 0001:00000490       ??1Adjacencies@physx@@QEAA@XZ 0000000180001490 f   Adjacencies.obj
 0001:00000500       ??1AdjacenciesBuilder@physx@@QEAA@XZ 0000000180001500 f   Adjacencies.obj
 0001:00000510       ??1PxFoundation@physx@@MEAA@XZ 0000000180001510 f i Adjacencies.obj
 0001:00000520       ??_EPxFoundation@physx@@MEAAPEAXI@Z 0000000180001520 f i Adjacencies.obj
 0001:000005b0       ??1BigConvexDataBuilder@physx@@QEAA@XZ 00000001800015b0 f i BigConvexDataBuilder.obj
 0001:000005b0       ??1Box@Gu@physx@@QEAA@XZ   00000001800015b0 f i ConvexHullUtils.obj
 0001:000005b0       ??1AABBTreeBuildNode@Gu@physx@@QEAA@XZ 00000001800015b0 f i BVHStructureBuilder.obj
 0001:000005b0       ??_FAllocator@shdfnd@physx@@QEAAXXZ 00000001800015b0 f i Adjacencies.obj
 0001:000005b0       ?onMeshIndexFormatChange@TriangleMeshBuilder@physx@@UEAAXXZ 00000001800015b0 f i TriangleMeshBuilder.obj
 0001:000005b0       _guard_check_icall_nop     00000001800015b0 f i LIBCMT:guard_support.obj
 0001:000005b0       ??1HeightFieldData@Gu@physx@@QEAA@XZ 00000001800015b0 f i Cooking.obj
 0001:000005c0       ?ComputeNbBoundaryEdges@Adjacencies@physx@@QEBAIXZ 00000001800015c0 f   Adjacencies.obj
 0001:000008a0       ?GetNbHits@RadixSort@Cm@physx@@QEBAIXZ 00000001800018a0 f i Adjacencies.obj
 0001:000008b0       ?GetNbTotalCalls@RadixSort@Cm@physx@@QEBAIXZ 00000001800018b0 f i Adjacencies.obj
 0001:000008c0       ?GetRanks@RadixSort@Cm@physx@@QEBAPEBIXZ 00000001800018c0 f i Adjacencies.obj
 0001:000008c0       ?getErrorCallback@Foundation@shdfnd@physx@@UEAAAEAVPxErrorCallback@3@XZ 00000001800018c0 f i Adjacencies.obj
 0001:000008d0       ?GetRecyclable@RadixSort@Cm@physx@@QEBAPEAIXZ 00000001800018d0 f i Adjacencies.obj
 0001:000008d0       ?getPos@AABBTreeBuildNode@Gu@physx@@QEBAPEBV123@XZ 00000001800018d0 f i BVHStructureBuilder.obj
 0001:000008d0       ?GetValencies@BigConvexData@physx@@QEBAPEBUValency@Gu@2@XZ 00000001800018d0 f i BigConvexDataBuilder.obj
 0001:000008e0       ?Init@AdjacenciesBuilder@physx@@QEAA_NAEBUADJACENCIESCREATE@2@@Z 00000001800018e0 f   Adjacencies.obj
 0001:00000e90       ?getAllocator@Foundation@shdfnd@physx@@QEAAAEAVPxAllocatorCallback@3@XZ 0000000180001e90 f i Adjacencies.obj
 0001:00000ea0       ?getAllocatorCallback@Foundation@shdfnd@physx@@UEAAAEAVPxAllocatorCallback@3@XZ 0000000180001ea0 f i Adjacencies.obj
 0001:00000eb0       ?getErrorLevel@Foundation@shdfnd@physx@@UEBA?AW4Enum@PxErrorCode@3@XZ 0000000180001eb0 f i Adjacencies.obj
 0001:00000ec0       ?getInternalErrorCallback@Foundation@shdfnd@physx@@QEAAAEAVPxErrorCallback@3@XZ 0000000180001ec0 f i Adjacencies.obj
 0001:00000ed0       ?getNamedAllocMap@Foundation@shdfnd@physx@@QEAAAEAV?$HashMap@PEBVNamedAllocator@shdfnd@physx@@PEBDU?$Hash@PEBVNamedAllocator@shdfnd@physx@@@23@VNonTrackingAllocator@23@@23@XZ 0000000180001ed0 f i Adjacencies.obj
 0001:00000ee0       ?getNamedAllocMutex@Foundation@shdfnd@physx@@QEAAAEAV?$MutexT@VAllocator@shdfnd@physx@@@23@XZ 0000000180001ee0 f i Adjacencies.obj
 0001:00000ef0       ?getReportAllocationNames@Foundation@shdfnd@physx@@UEBA_NXZ 0000000180001ef0 f i Adjacencies.obj
 0001:00000f00       ?getTempAllocFreeTable@Foundation@shdfnd@physx@@QEAAAEAV?$Array@PEATTempAllocatorChunk@shdfnd@physx@@VAllocator@23@@23@XZ 0000000180001f00 f i Adjacencies.obj
 0001:00000f10       ?getTempAllocMutex@Foundation@shdfnd@physx@@QEAAAEAV?$MutexT@VAllocator@shdfnd@physx@@@23@XZ 0000000180001f10 f i Adjacencies.obj
 0001:00000f20       ?invalidateRanks@RadixSort@Cm@physx@@QEAAXXZ 0000000180001f20 f i Adjacencies.obj
 0001:00000f30       ?setErrorLevel@Foundation@shdfnd@physx@@UEAAXW4Enum@PxErrorCode@3@@Z 0000000180001f30 f i Adjacencies.obj
 0001:00000f40       ?setReportAllocationNames@Foundation@shdfnd@physx@@UEAAX_N@Z 0000000180001f40 f i Adjacencies.obj
 0001:00000f50       ??0DebugText@Cm@physx@@QEAA@$$QEAU012@@Z 0000000180001f50 f i Cooking.obj
 0001:00000f50       ??0DebugText@Cm@physx@@QEAA@AEBU012@@Z 0000000180001f50 f i Cooking.obj
 0001:00001030       ??4HeightFieldData@Gu@physx@@QEAAAEAU012@AEBU012@@Z 0000000180002030 f i Cooking.obj
 0001:00001030       ??0HeightFieldData@Gu@physx@@QEAA@AEBU012@@Z 0000000180002030 f i Cooking.obj
 0001:00001030       ??4HeightFieldData@Gu@physx@@QEAAAEAU012@$$QEAU012@@Z 0000000180002030 f i Cooking.obj
 0001:00001030       ??0HeightFieldData@Gu@physx@@QEAA@$$QEAU012@@Z 0000000180002030 f i Cooking.obj
 0001:00001090       ??0HeightFieldData@Gu@physx@@QEAA@XZ 0000000180002090 f i Cooking.obj
 0001:000010a0       ??0RenderOutput@Cm@physx@@QEAA@AEAVRenderBuffer@12@@Z 00000001800020a0 f i Cooking.obj
 0001:000010f0       ??0RenderOutput@Cm@physx@@QEAA@AEBV012@@Z 00000001800020f0 f i Cooking.obj
 0001:00001190       ??1PxHeightField@physx@@MEAA@XZ 0000000180002190 f i Cooking.obj
 0001:00001190       ??1PxConvexMesh@physx@@MEAA@XZ 0000000180002190 f i Cooking.obj
 0001:000011a0       ??4DebugText@Cm@physx@@QEAAAEAU012@$$QEAU012@@Z 00000001800021a0 f i Cooking.obj
 0001:000011a0       ??4DebugText@Cm@physx@@QEAAAEAU012@AEBU012@@Z 00000001800021a0 f i Cooking.obj
 0001:000012d0       ??4FPUGuard@shdfnd@physx@@QEAAAEAV012@AEBV012@@Z 00000001800022d0 f i Cooking.obj
 0001:000012f0       ??_ECooking@physx@@UEAAPEAXI@Z 00000001800022f0 f i Cooking.obj
 0001:000012f0       ??_GCooking@physx@@UEAAPEAXI@Z 00000001800022f0 f i Cooking.obj
 0001:00001340       ??_GPxBase@physx@@MEAAPEAXI@Z 0000000180002340 f i Cooking.obj
 0001:00001340       ??_EPxBase@physx@@MEAAPEAXI@Z 0000000180002340 f i Cooking.obj
 0001:00001370       ??_EPxCooking@physx@@MEAAPEAXI@Z 0000000180002370 f i Cooking.obj
 0001:00001370       ??_GPxCooking@physx@@MEAAPEAXI@Z 0000000180002370 f i Cooking.obj
 0001:000013a0       ?allocate@?$Array@UPxDebugLine@physx@@V?$ReflectionAllocator@UPxDebugLine@physx@@@shdfnd@2@@shdfnd@physx@@IEAAPEAUPxDebugLine@3@I@Z 00000001800023a0 f i Cooking.obj
 0001:00001440       ?computeHullPolygons@Cooking@physx@@UEBA_NAEBVPxSimpleTriangleMesh@2@AEAVPxAllocatorCallback@2@AEAIAEAPEAVPxVec3@2@2AEAPEAI2AEAPEAUPxHullPolygon@2@@Z 0000000180002440 f   Cooking.obj
 0001:00001620       ?cookBVHStructure@Cooking@physx@@UEBA_NAEBVPxBVHStructureDesc@2@AEAVPxOutputStream@2@@Z 0000000180002620 f   Cooking.obj
 0001:000016d0       ?cookConvexMesh@Cooking@physx@@UEBA_NAEBVPxConvexMeshDesc@2@AEAVPxOutputStream@2@PEAW4Enum@PxConvexMeshCookingResult@2@@Z 00000001800026d0 f   Cooking.obj
 0001:000018b0       ?cookConvexMeshInternal@Cooking@physx@@AEBA_NAEBVPxConvexMeshDesc@2@AEAVConvexMeshBuilder@2@PEAVConvexHullLib@2@PEAW4Enum@PxConvexMeshCookingResult@2@@Z 00000001800028b0 f   Cooking.obj
 0001:00001b20       ?cookHeightField@Cooking@physx@@UEBA_NAEBVPxHeightFieldDesc@2@AEAVPxOutputStream@2@@Z 0000000180002b20 f   Cooking.obj
 0001:00001bf0       ?cookTriangleMesh@Cooking@physx@@UEBA_NAEBVPxTriangleMeshDesc@2@AEAVPxOutputStream@2@PEAW4Enum@PxTriangleMeshCookingResult@2@@Z 0000000180002bf0 f   Cooking.obj
 0001:00001d30       ?copy@?$Array@UPxDebugLine@physx@@V?$ReflectionAllocator@UPxDebugLine@physx@@@shdfnd@2@@shdfnd@physx@@KAXPEAUPxDebugLine@3@0PEBU43@@Z 0000000180002d30 f i Cooking.obj
 0001:00001ee0       ?createBVHStructure@Cooking@physx@@UEBAPEAVPxBVHStructure@2@AEBVPxBVHStructureDesc@2@AEAVPxPhysicsInsertionCallback@2@@Z 0000000180002ee0 f   Cooking.obj
 0001:00001f90       ?createConvexMesh@Cooking@physx@@UEBAPEAVPxConvexMesh@2@AEBVPxConvexMeshDesc@2@AEAVPxPhysicsInsertionCallback@2@PEAW4Enum@PxConvexMeshCookingResult@2@@Z 0000000180002f90 f   Cooking.obj
 0001:00002190       ?createHeightField@Cooking@physx@@UEBAPEAVPxHeightField@2@AEBVPxHeightFieldDesc@2@AEAVPxPhysicsInsertionCallback@2@@Z 0000000180003190 f   Cooking.obj
 0001:000022f0       ?createTriangleMesh@Cooking@physx@@UEBAPEAVPxTriangleMesh@2@AEBVPxTriangleMeshDesc@2@AEAVPxPhysicsInsertionCallback@2@PEAW4Enum@PxTriangleMeshCookingResult@2@@Z 00000001800032f0 f   Cooking.obj
 0001:00002440       ?getConcreteTypeName@PxConvexMesh@physx@@UEBAPEBDXZ 0000000180003440 f i Cooking.obj
 0001:00002450       ?getConcreteTypeName@PxHeightField@physx@@UEBAPEBDXZ 0000000180003450 f i Cooking.obj
 0001:00002460       ?getConvexEdgeThreshold@HeightField@Gu@physx@@UEBAMXZ 0000000180003460 f i Cooking.obj
 0001:00002470       ?getFlags@HeightField@Gu@physx@@UEBA?AV?$PxFlags@W4Enum@PxHeightFieldFlag@physx@@G@3@XZ 0000000180003470 f i Cooking.obj
 0001:00002480       ?getFormat@HeightField@Gu@physx@@UEBA?AW4Enum@PxHeightFieldFormat@3@XZ 0000000180003480 f i Cooking.obj
 0001:00002490       ?getHeight@HeightField@Gu@physx@@UEBAMMM@Z 0000000180003490 f i Cooking.obj
 0001:000024d0       ?getHeightInternal2@HeightField@Gu@physx@@QEBAMIMM@Z 00000001800034d0 f i Cooking.obj
 0001:00002640       ?getIndexBuffer@ConvexMesh@Gu@physx@@UEBAPEBEXZ 0000000180003640 f i Cooking.obj
 0001:00002680       ?getNbColumns@HeightField@Gu@physx@@UEBAIXZ 0000000180003680 f i Cooking.obj
 0001:00002690       ?getNbPolygons@ConvexMesh@Gu@physx@@UEBAIXZ 0000000180003690 f i Cooking.obj
 0001:000026a0       ?getNbRows@HeightField@Gu@physx@@UEBAIXZ 00000001800036a0 f i Cooking.obj
 0001:000026b0       ?getNbVertices@ConvexMesh@Gu@physx@@UEBAIXZ 00000001800036b0 f i Cooking.obj
 0001:000026c0       ?getParams@Cooking@physx@@UEBAAEBUPxCookingParams@2@XZ 00000001800036c0 f   Cooking.obj
 0001:000026c0       ?getDenormalizeScale@QuantizerImpl@@UEBAAEBVPxVec3@physx@@XZ 00000001800036c0 f   Quantizer.obj
 0001:000026d0       ?getSample@HeightField@Gu@physx@@UEBAAEBUPxHeightFieldSample@3@II@Z 00000001800036d0 f i Cooking.obj
 0001:000026e0       ?getSampleStride@HeightField@Gu@physx@@UEBAIXZ 00000001800036e0 f i Cooking.obj
 0001:000026f0       ?getTimestamp@HeightField@Gu@physx@@UEBAIXZ 00000001800036f0 f i Cooking.obj
 0001:00002700       ?getTriangleMaterialIndex@HeightField@Gu@physx@@UEBAGI@Z 0000000180003700 f i Cooking.obj
 0001:00002730       ?getTriangleNormal@HeightField@Gu@physx@@UEBA?AVPxVec3@3@I@Z 0000000180003730 f i Cooking.obj
 0001:00002830       ?getVertices@ConvexMesh@Gu@physx@@UEBAPEBVPxVec3@3@XZ 0000000180003830 f i Cooking.obj
 0001:00002850       ?isKindOf@PxBase@physx@@MEBA_NPEBD@Z 0000000180003850 f i Cooking.obj
 0001:00002880       ?isKindOf@PxConvexMesh@physx@@MEBA_NPEBD@Z 0000000180003880 f i Cooking.obj
 0001:000028d0       ?isKindOf@PxHeightField@physx@@MEBA_NPEBD@Z 00000001800038d0 f i Cooking.obj
 0001:00002920       ?isReleasable@PxBase@physx@@UEBA_NXZ 0000000180003920 f i Cooking.obj
 0001:00002930       ?outputSegment@RenderOutput@Cm@physx@@QEAAXAEBVPxVec3@3@0@Z 0000000180003930 f i Cooking.obj
 0001:000029f0       ?platformMismatch@Cooking@physx@@UEBA_NXZ 00000001800039f0 f   Cooking.obj
 0001:00002a00       ?preExportDataReset@HeightField@Gu@physx@@QEAAXXZ 0000000180003a00 f i Cooking.obj
 0001:00002a00       ?preExportDataReset@ConvexMesh@Gu@physx@@QEAAXXZ 0000000180003a00 f i Cooking.obj
 0001:00002a10       ?recreate@?$Array@UPxDebugLine@physx@@V?$ReflectionAllocator@UPxDebugLine@physx@@@shdfnd@2@@shdfnd@physx@@IEAAXI@Z 0000000180003a10 f i Cooking.obj
 0001:00002aa0       ?release@Cooking@physx@@UEAAXXZ 0000000180003aa0 f   Cooking.obj
 0001:00002ac0       ?reserveSegments@RenderOutput@Cm@physx@@QEAAPEAUPxDebugLine@3@I@Z 0000000180003ac0 f i Cooking.obj
 0001:00002b30       ?setParams@Cooking@physx@@UEAAXAEBUPxCookingParams@2@@Z 0000000180003b30 f   Cooking.obj
 0001:00002b90       ?validateConvexMesh@Cooking@physx@@UEBA_NAEBVPxConvexMeshDesc@2@@Z 0000000180003b90 f   Cooking.obj
 0001:00002bf0       ?validateTriangleMesh@Cooking@physx@@UEBA_NAEBVPxTriangleMeshDesc@2@@Z 0000000180003bf0 f   Cooking.obj
 0001:00002d00       PxCreateCooking            0000000180003d00 f   Cooking.obj
 0001:00002df0       ??0ReducedVertexCloud@physx@@QEAA@PEBVPxVec3@1@I@Z 0000000180003df0 f   CookingUtils.obj
 0001:00002e10       ??1ReducedVertexCloud@physx@@QEAA@XZ 0000000180003e10 f   CookingUtils.obj
 0001:00002e20       ?Clean@ReducedVertexCloud@physx@@QEAAAEAV12@XZ 0000000180003e20 f   CookingUtils.obj
 0001:00002e90       ?Reduce@ReducedVertexCloud@physx@@QEAA_NPEAUREDUCEDCLOUD@2@@Z 0000000180003e90 f   CookingUtils.obj
 0001:000031b0       ??$?_UI@@YAPEAX_KV?$ReflectionAllocator@I@shdfnd@physx@@PEBDH@Z 00000001800041b0 f i EdgeList.obj
 0001:00003250       ??0EdgeListBuilder@Gu@physx@@QEAA@XZ 0000000180004250 f   EdgeList.obj
 0001:00003270       ??1EdgeList@Gu@physx@@QEAA@XZ 0000000180004270 f   EdgeList.obj
 0001:00003310       ??1EdgeListBuilder@Gu@physx@@QEAA@XZ 0000000180004310 f   EdgeList.obj
 0001:00003320       ?computeActiveEdges@EdgeListBuilder@Gu@physx@@AEAA_NIPEBIPEBGPEBVPxVec3@3@M@Z 0000000180004320 f   EdgeList.obj
 0001:00004960       ?createEdgesToFaces@EdgeListBuilder@Gu@physx@@AEAA_NIPEBIPEBG@Z 0000000180005960 f   EdgeList.obj
 0001:00004bc0       ?createFacesToEdges@EdgeListBuilder@Gu@physx@@AEAA_NIPEBIPEBG@Z 0000000180005bc0 f   EdgeList.obj
 0001:00005030       ?init@EdgeListBuilder@Gu@physx@@QEAA_NAEBUEDGELISTCREATE@23@@Z 0000000180006030 f   EdgeList.obj
 0001:00005160       ??0MeshCleaner@physx@@QEAA@IPEBVPxVec3@1@IPEBIM@Z 0000000180006160 f   MeshCleaner.obj
 0001:00005b00       ??1MeshCleaner@physx@@QEAA@XZ 0000000180006b00 f   MeshCleaner.obj
 0001:00005b90       ??$kmeans_cluster@VPxVec3@physx@@M@@YAIPEBVPxVec3@physx@@IIPEAV01@PEAIMM@Z 0000000180006b90 f i Quantizer.obj
 0001:000064b0       ??_EQuantizer@physx@@MEAAPEAXI@Z 00000001800074b0 f i Quantizer.obj
 0001:000064b0       ??_GQuantizer@physx@@MEAAPEAXI@Z 00000001800074b0 f i Quantizer.obj
 0001:000064e0       ??_GQuantizerImpl@@EEAAPEAXI@Z 00000001800074e0 f i Quantizer.obj
 0001:000064e0       ??_EQuantizerImpl@@EEAAPEAXI@Z 00000001800074e0 f i Quantizer.obj
 0001:000065b0       ?createQuantizer@physx@@YAPEAVQuantizer@1@XZ 00000001800075b0 f   Quantizer.obj
 0001:00006660       ?getDenormalizeCenter@QuantizerImpl@@UEBAAEBVPxVec3@physx@@XZ 0000000180007660 f i Quantizer.obj
 0001:00006670       ?growAndPushBack@?$Array@VPxVec3@physx@@V?$ReflectionAllocator@VPxVec3@physx@@@shdfnd@2@@shdfnd@physx@@IEAAAEAVPxVec3@3@AEBV43@@Z 0000000180007670 f i Quantizer.obj
 0001:00006840       ?kmeansQuantize3D@QuantizerImpl@@UEAAPEBVPxVec3@physx@@IPEBV23@I_NIAEAI@Z 0000000180007840 f i Quantizer.obj
 0001:00006aa0       ?normalizeInput@QuantizerImpl@@AEAAXIPEBVPxVec3@physx@@I@Z 0000000180007aa0 f i Quantizer.obj
 0001:00006ed0       ?release@QuantizerImpl@@UEAAXXZ 0000000180007ed0 f i Quantizer.obj
 0001:00006ef0       ??$copy@V?$ReflectionAllocator@USlab@NodeAllocator@Gu@physx@@@shdfnd@physx@@@?$Array@USlab@NodeAllocator@Gu@physx@@V?$ReflectionAllocator@USlab@NodeAllocator@Gu@physx@@@shdfnd@4@@shdfnd@physx@@IEAAXAEBV012@@Z 0000000180007ef0 f i BVHStructureBuilder.obj
 0001:00006f70       ??4AABBTreeBuildNode@Gu@physx@@QEAAAEAV012@AEBV012@@Z 0000000180007f70 f i BVHStructureBuilder.obj
 0001:00006f70       ??0AABBTreeBuildNode@Gu@physx@@QEAA@AEBV012@@Z 0000000180007f70 f i BVHStructureBuilder.obj
 0001:00006fb0       ??0AABBTreeBuildParams@Gu@physx@@QEAA@IIPEBVPxBounds3@2@@Z 0000000180007fb0 f i BVHStructureBuilder.obj
 0001:00006fd0       ??0BVHStructureBuilder@physx@@QEAA@XZ 0000000180007fd0 f   BVHStructureBuilder.obj
 0001:00006ff0       ??0BuildStats@Gu@physx@@QEAA@XZ 0000000180007ff0 f i BVHStructureBuilder.obj
 0001:00007000       ??0NodeAllocator@Gu@physx@@QEAA@AEBV012@@Z 0000000180008000 f i BVHStructureBuilder.obj
 0001:00007040       ??1AABBTreeBuildParams@Gu@physx@@QEAA@XZ 0000000180008040 f i BVHStructureBuilder.obj
 0001:00007040       ?reset@AABBTreeBuildParams@Gu@physx@@QEAAXXZ 0000000180008040 f i BVHStructureBuilder.obj
 0001:000070a0       ??1BVHStructureBuilder@physx@@QEAA@XZ 00000001800080a0 f   BVHStructureBuilder.obj
 0001:00007120       ??4AABBTreeBuildParams@Gu@physx@@QEAAAEAV012@AEBV012@@Z 0000000180008120 f i BVHStructureBuilder.obj
 0001:00007140       ??4BuildStats@Gu@physx@@QEAAAEAU012@$$QEAU012@@Z 0000000180008140 f i BVHStructureBuilder.obj
 0001:00007150       ??4BuildStats@Gu@physx@@QEAAAEAU012@AEBU012@@Z 0000000180008150 f i BVHStructureBuilder.obj
 0001:00007160       ??4NodeAllocator@Gu@physx@@QEAAAEAV012@AEBV012@@Z 0000000180008160 f i BVHStructureBuilder.obj
 0001:00007210       ??_FAABBTreeBuildParams@Gu@physx@@QEAAXXZ 0000000180008210 f i BVHStructureBuilder.obj
 0001:00007230       ?__global_delete@@YAXPEAX_K@Z 0000000180008230 f i BVHStructureBuilder.obj
 0001:00007230       ??_V@YAXPEAX_K@Z           0000000180008230 f i LIBCMT:delete_array_size.obj
 0001:00007240       ?allocate@?$Array@USlab@NodeAllocator@Gu@physx@@V?$ReflectionAllocator@USlab@NodeAllocator@Gu@physx@@@shdfnd@4@@shdfnd@physx@@IEAAPEAUSlab@NodeAllocator@Gu@3@I@Z 0000000180008240 f i BVHStructureBuilder.obj
 0001:000072e0       ?getCount@BuildStats@Gu@physx@@QEBAIXZ 00000001800082e0 f i BVHStructureBuilder.obj
 0001:000072f0       ?getNbRuntimePrimitives@AABBTreeBuildNode@Gu@physx@@QEBAIXZ 00000001800082f0 f i BVHStructureBuilder.obj
 0001:000072f0       ?getNbPrimitives@AABBTreeBuildNode@Gu@physx@@QEBAIXZ 00000001800082f0 f i BVHStructureBuilder.obj
 0001:00007300       ?getNeg@AABBTreeBuildNode@Gu@physx@@QEBAPEBV123@XZ 0000000180008300 f i BVHStructureBuilder.obj
 0001:00007320       ?getPrimitives@AABBTreeBuildNode@Gu@physx@@QEAAPEAIPEAI@Z 0000000180008320 f i BVHStructureBuilder.obj
 0001:00007320       ?getPrimitives@AABBTreeBuildNode@Gu@physx@@QEBAPEBIPEBI@Z 0000000180008320 f i BVHStructureBuilder.obj
 0001:00007330       ?increaseCount@BuildStats@Gu@physx@@QEAAXI@Z 0000000180008330 f i BVHStructureBuilder.obj
 0001:00007340       ?isLeaf@AABBTreeBuildNode@Gu@physx@@QEBA_NXZ 0000000180008340 f i BVHStructureBuilder.obj
 0001:00007350       ?loadFromDesc@BVHStructureBuilder@physx@@QEAA_NAEBVPxBVHStructureDesc@2@@Z 0000000180008350 f   BVHStructureBuilder.obj
 0001:000076e0       ?moveData@BVHStructureBuilder@physx@@QEAAXAEAUBVHStructureData@Gu@2@@Z 00000001800086e0 f   BVHStructureBuilder.obj
 0001:00007720       ?recreate@?$Array@USlab@NodeAllocator@Gu@physx@@V?$ReflectionAllocator@USlab@NodeAllocator@Gu@physx@@@shdfnd@4@@shdfnd@physx@@IEAAXI@Z 0000000180008720 f i BVHStructureBuilder.obj
 0001:000077d0       ?reset@BuildStats@Gu@physx@@QEAAXXZ 00000001800087d0 f i BVHStructureBuilder.obj
 0001:000077e0       ?save@BVHStructureBuilder@physx@@QEBA_NAEAVPxOutputStream@2@_N@Z 00000001800087e0 f   BVHStructureBuilder.obj
 0001:00007960       ?setCount@BuildStats@Gu@physx@@QEAAXI@Z 0000000180008960 f i BVHStructureBuilder.obj
 0001:00007970       ?setNbRunTimePrimitives@AABBTreeBuildNode@Gu@physx@@QEAAXI@Z 0000000180008970 f i BVHStructureBuilder.obj
 0001:00007980       ?saveHeightField@physx@@YA_NAEBVHeightField@Gu@1@AEAVPxOutputStream@1@_N@Z 0000000180008980 f   HeightFieldCooking.obj
 0001:00007bc0       ??$quickSelectFirstK@UBoundsLTE@physx@@@quickSelect@physx@@YAXPEIAIIIIAEBUBoundsLTE@1@@Z 0000000180008bc0 f i RTreeCooking.obj
 0001:00007da0       ??$smallSort@I$$CBUSortBoundsPredicate@physx@@@internal@shdfnd@physx@@YAXPEAIHHAEBUSortBoundsPredicate@2@@Z 0000000180008da0 f i RTreeCooking.obj
 0001:00008070       ??$sort@IU?$Less@I@shdfnd@physx@@V?$ReflectionAllocator@I@23@@shdfnd@physx@@YAXPEAIIAEBU?$Less@I@01@AEBV?$ReflectionAllocator@I@01@I@Z 0000000180009070 f i RTreeCooking.obj
 0001:000084c0       ??$sort@IUSortBoundsPredicate@physx@@V?$ReflectionAllocator@I@shdfnd@2@@shdfnd@physx@@YAXPEAIIAEBUSortBoundsPredicate@1@AEBV?$ReflectionAllocator@I@01@I@Z 00000001800094c0 f i RTreeCooking.obj
 0001:000089c0       ?allocate@?$Array@UInterval@physx@@V?$InlineAllocator@$0CAAA@V?$ReflectionAllocator@UInterval@physx@@@shdfnd@physx@@@shdfnd@2@@shdfnd@physx@@IEAAPEAUInterval@3@I@Z 00000001800099c0 f i RTreeCooking.obj
 0001:00008a80       ?allocate@?$Array@UPxBounds3V@physx@@V?$ReflectionAllocator@UPxBounds3V@physx@@@shdfnd@2@@shdfnd@physx@@IEAAPEAUPxBounds3V@3@I@Z 0000000180009a80 f i RTreeCooking.obj
 0001:00008b20       ?allocate@?$Array@URTreeNodeNQ@physx@@V?$ReflectionAllocator@URTreeNodeNQ@physx@@@shdfnd@2@@shdfnd@physx@@IEAAPEAURTreeNodeNQ@3@I@Z 0000000180009b20 f i RTreeCooking.obj
 0001:00008bc0       ?allocate@?$Array@URTreeNodeQ@Gu@physx@@V?$ReflectionAllocator@URTreeNodeQ@Gu@physx@@@shdfnd@3@@shdfnd@physx@@IEAAPEAURTreeNodeQ@Gu@3@I@Z 0000000180009bc0 f i RTreeCooking.obj
 0001:00008c60       ?allocate@?$Array@VPxVec3@physx@@V?$ReflectionAllocator@VPxVec3@physx@@@shdfnd@2@@shdfnd@physx@@IEAAPEAVPxVec3@3@I@Z 0000000180009c60 f i RTreeCooking.obj
 0001:00008d00       ?allocate@?$ReflectionAllocator@I@shdfnd@physx@@QEAAPEAX_KPEBDH@Z 0000000180009d00 f i RTreeCooking.obj
 0001:000099d0       ?buildFromTriangles@RTreeCooker@physx@@SAXAEAURTree@Gu@2@PEBVPxVec3@2@IPEBGPEBIIAEAV?$Array@IV?$ReflectionAllocator@I@shdfnd@physx@@@shdfnd@2@PEAURemapCallback@12@MW4Enum@PxMeshCookingHint@2@@Z 000000018000a9d0 f   RTreeCooking.obj
 0001:00009c70       ?copy@?$Array@URTreeNodeNQ@physx@@V?$ReflectionAllocator@URTreeNodeNQ@physx@@@shdfnd@2@@shdfnd@physx@@KAXPEAURTreeNodeNQ@3@0PEBU43@@Z 000000018000ac70 f i RTreeCooking.obj
 0001:00009e30       ?copy@?$Array@VPxVec3@physx@@V?$ReflectionAllocator@VPxVec3@physx@@@shdfnd@2@@shdfnd@physx@@KAXPEAVPxVec3@3@0PEBV43@@Z 000000018000ae30 f i RTreeCooking.obj
 0001:00009f00       ?growAndPushBack@?$Array@IV?$ReflectionAllocator@I@shdfnd@physx@@@shdfnd@physx@@IEAAAEAIAEBI@Z 000000018000af00 f i RTreeCooking.obj
 0001:00009fd0       ?growAndPushBack@?$Array@UInterval@physx@@V?$InlineAllocator@$0CAAA@V?$ReflectionAllocator@UInterval@physx@@@shdfnd@physx@@@shdfnd@2@@shdfnd@physx@@IEAAAEAUInterval@3@AEBU43@@Z 000000018000afd0 f i RTreeCooking.obj
 0001:0000a0b0       ?growAndPushBack@?$Array@UPxBounds3V@physx@@V?$ReflectionAllocator@UPxBounds3V@physx@@@shdfnd@2@@shdfnd@physx@@IEAAAEAUPxBounds3V@3@AEBU43@@Z 000000018000b0b0 f i RTreeCooking.obj
 0001:0000a180       ?growAndPushBack@?$Array@URTreeNodeNQ@physx@@V?$ReflectionAllocator@URTreeNodeNQ@physx@@@shdfnd@2@@shdfnd@physx@@IEAAAEAURTreeNodeNQ@3@AEBU43@@Z 000000018000b180 f i RTreeCooking.obj
 0001:0000a250       ?growAndPushBack@?$Array@URTreeNodeQ@Gu@physx@@V?$ReflectionAllocator@URTreeNodeQ@Gu@physx@@@shdfnd@3@@shdfnd@physx@@IEAAAEAURTreeNodeQ@Gu@3@AEBU453@@Z 000000018000b250 f i RTreeCooking.obj
 0001:0000a330       ?recreate@?$Array@IV?$ReflectionAllocator@I@shdfnd@physx@@@shdfnd@physx@@IEAAXI@Z 000000018000b330 f i RTreeCooking.obj
 0001:0000a3f0       ?recreate@?$Array@UPxBounds3V@physx@@V?$ReflectionAllocator@UPxBounds3V@physx@@@shdfnd@2@@shdfnd@physx@@IEAAXI@Z 000000018000b3f0 f i RTreeCooking.obj
 0001:0000a4a0       ?recreate@?$Array@URTreeNodeNQ@physx@@V?$ReflectionAllocator@URTreeNodeNQ@physx@@@shdfnd@2@@shdfnd@physx@@IEAAXI@Z 000000018000b4a0 f i RTreeCooking.obj
 0001:0000a530       ?recreate@?$Array@URTreeNodeQ@Gu@physx@@V?$ReflectionAllocator@URTreeNodeQ@Gu@physx@@@shdfnd@3@@shdfnd@physx@@IEAAXI@Z 000000018000b530 f i RTreeCooking.obj
 0001:0000a5f0       ?recreate@?$Array@VPxVec3@physx@@V?$ReflectionAllocator@VPxVec3@physx@@@shdfnd@2@@shdfnd@physx@@IEAAXI@Z 000000018000b5f0 f i RTreeCooking.obj
 0001:0000a680       ?resize@?$Array@IV?$ReflectionAllocator@I@shdfnd@physx@@@shdfnd@physx@@QEAAXIAEBI@Z 000000018000b680 f i RTreeCooking.obj
 0001:0000a740       ?resizeUninitialized@?$Array@URTreeNodeNQ@physx@@V?$ReflectionAllocator@URTreeNodeNQ@physx@@@shdfnd@2@@shdfnd@physx@@QEAAXI@Z 000000018000b740 f i RTreeCooking.obj
 0001:0000a780       ?sort4@SubSortQuick@physx@@QEAAXPEIAIIAEAV?$Array@URTreeNodeNQ@physx@@V?$ReflectionAllocator@URTreeNodeNQ@physx@@@shdfnd@2@@shdfnd@2@AEAIAEAUPxBounds3V@2@I@Z 000000018000b780 f i RTreeCooking.obj
 0001:0000ab10       ?sort4@SubSortSAH@physx@@QEAAXPEAIIAEAV?$Array@URTreeNodeNQ@physx@@V?$ReflectionAllocator@URTreeNodeNQ@physx@@@shdfnd@2@@shdfnd@2@AEAIIPEAURTreeNodeNQ@2@@Z 000000018000bb10 f i RTreeCooking.obj
 0001:0000b1e0       ?split@SubSortSAH@physx@@QEAAIPEAII@Z 000000018000c1e0 f i RTreeCooking.obj
 0001:0000b910       ?computeLocalBounds@MeshBulider@physx@@IEAAXAEAVMeshDataBase@Gu@2@@Z 000000018000c910 f   MeshBuilder.obj
 0001:0000b9a0       ??$?_UG@@YAPEAX_KV?$ReflectionAllocator@G@shdfnd@physx@@PEBDH@Z 000000018000c9a0 f i TriangleMeshBuilder.obj
 0001:0000ba40       ??$sort@UEdgeTriLookup@physx@@U?$Less@UEdgeTriLookup@physx@@@shdfnd@2@V?$ReflectionAllocator@UEdgeTriLookup@physx@@@42@@shdfnd@physx@@YAXPEAUEdgeTriLookup@1@IAEBU?$Less@UEdgeTriLookup@physx@@@01@AEBV?$ReflectionAllocator@UEdgeTriLookup@physx@@@01@I@Z 000000018000ca40 f i TriangleMeshBuilder.obj
 0001:0000bfc0       ??0BV4TriangleMeshBuilder@physx@@QEAA@AEBUPxCookingParams@1@@Z 000000018000cfc0 f   TriangleMeshBuilder.obj
 0001:0000c090       ??0RTreeTriangleMeshBuilder@physx@@QEAA@AEBUPxCookingParams@1@@Z 000000018000d090 f   TriangleMeshBuilder.obj
 0001:0000c150       ??1BV4TriangleMeshBuilder@physx@@UEAA@XZ 000000018000d150 f   TriangleMeshBuilder.obj
 0001:0000c1b0       ??1MeshDataBase@Gu@physx@@UEAA@XZ 000000018000d1b0 f i TriangleMeshBuilder.obj
 0001:0000c290       ??1RTreeTriangleData@Gu@physx@@UEAA@XZ 000000018000d290 f i TriangleMeshBuilder.obj
 0001:0000c300       ??1RTreeTriangleMeshBuilder@physx@@UEAA@XZ 000000018000d300 f   TriangleMeshBuilder.obj
 0001:0000c330       ??1TriangleMeshBuilder@physx@@UEAA@XZ 000000018000d330 f   TriangleMeshBuilder.obj
 0001:0000c390       ??1TriangleMeshData@Gu@physx@@UEAA@XZ 000000018000d390 f i TriangleMeshBuilder.obj
 0001:0000c460       ??_GBV4TriangleData@Gu@physx@@UEAAPEAXI@Z 000000018000d460 f i TriangleMeshBuilder.obj
 0001:0000c460       ??_EBV4TriangleData@Gu@physx@@UEAAPEAXI@Z 000000018000d460 f i TriangleMeshBuilder.obj
 0001:0000c4e0       ??_GBV4TriangleMeshBuilder@physx@@UEAAPEAXI@Z 000000018000d4e0 f i TriangleMeshBuilder.obj
 0001:0000c4e0       ??_EBV4TriangleMeshBuilder@physx@@UEAAPEAXI@Z 000000018000d4e0 f i TriangleMeshBuilder.obj
 0001:0000c560       ??_EMeshDataBase@Gu@physx@@UEAAPEAXI@Z 000000018000d560 f i TriangleMeshBuilder.obj
 0001:0000c560       ??_GMeshDataBase@Gu@physx@@UEAAPEAXI@Z 000000018000d560 f i TriangleMeshBuilder.obj
 0001:0000c5c0       ??_ERTreeCookerRemap@physx@@UEAAPEAXI@Z 000000018000d5c0 f i TriangleMeshBuilder.obj
 0001:0000c5c0       ??_GRTreeCookerRemap@physx@@UEAAPEAXI@Z 000000018000d5c0 f i TriangleMeshBuilder.obj
 0001:0000c5f0       ??_GRTreeTriangleData@Gu@physx@@UEAAPEAXI@Z 000000018000d5f0 f i TriangleMeshBuilder.obj
 0001:0000c5f0       ??_ERTreeTriangleData@Gu@physx@@UEAAPEAXI@Z 000000018000d5f0 f i TriangleMeshBuilder.obj
 0001:0000c650       ??_GRTreeTriangleMeshBuilder@physx@@UEAAPEAXI@Z 000000018000d650 f i TriangleMeshBuilder.obj
 0001:0000c650       ??_ERTreeTriangleMeshBuilder@physx@@UEAAPEAXI@Z 000000018000d650 f i TriangleMeshBuilder.obj
 0001:0000c6a0       ??_ERemapCallback@RTreeCooker@physx@@UEAAPEAXI@Z 000000018000d6a0 f i TriangleMeshBuilder.obj
 0001:0000c6a0       ??_GRemapCallback@RTreeCooker@physx@@UEAAPEAXI@Z 000000018000d6a0 f i TriangleMeshBuilder.obj
 0001:0000c6d0       ??_GTriangleMeshBuilder@physx@@UEAAPEAXI@Z 000000018000d6d0 f i TriangleMeshBuilder.obj
 0001:0000c6d0       ??_ETriangleMeshBuilder@physx@@UEAAPEAXI@Z 000000018000d6d0 f i TriangleMeshBuilder.obj
 0001:0000c710       ??_ETriangleMeshData@Gu@physx@@UEAAPEAXI@Z 000000018000d710 f i TriangleMeshBuilder.obj
 0001:0000c710       ??_GTriangleMeshData@Gu@physx@@UEAAPEAXI@Z 000000018000d710 f i TriangleMeshBuilder.obj
 0001:0000c770       ?allocateTriangles@TriangleMeshData@Gu@physx@@QEAAPEAXI_NI@Z 000000018000d770 f i TriangleMeshBuilder.obj
 0001:0000c850       ?allocateVertices@MeshDataBase@Gu@physx@@QEAAPEAVPxVec3@3@I@Z 000000018000d850 f i TriangleMeshBuilder.obj
 0001:0000cd90       ?checkMeshIndicesSize@TriangleMeshBuilder@physx@@QEAAXXZ 000000018000dd90 f   TriangleMeshBuilder.obj
 0001:0000cea0       ?cleanMesh@TriangleMeshBuilder@physx@@QEAA_N_NPEAW4Enum@PxTriangleMeshCookingResult@2@@Z 000000018000dea0 f   TriangleMeshBuilder.obj
 0001:0000d390       ?createGRBMidPhaseAndData@TriangleMeshBuilder@physx@@QEAAXI@Z 000000018000e390 f   TriangleMeshBuilder.obj
 0001:0000d610       ?createMidPhaseStructure@BV32TriangleMeshBuilder@physx@@SAXAEBUPxCookingParams@2@AEAVTriangleMeshData@Gu@2@AEAVBV32Tree@52@@Z 000000018000e610 f   TriangleMeshBuilder.obj
 0001:0000d7e0       ?createMidPhaseStructure@BV4TriangleMeshBuilder@physx@@UEAAXXZ 000000018000e7e0 f   TriangleMeshBuilder.obj
 0001:0000daa0       ?createMidPhaseStructure@RTreeTriangleMeshBuilder@physx@@UEAAXXZ 000000018000eaa0 f   TriangleMeshBuilder.obj
 0001:0000db80       ?createSharedEdgeData@TriangleMeshBuilder@physx@@QEAAX_N0@Z 000000018000eb80 f   TriangleMeshBuilder.obj
 0001:0000e230       ?getMidphaseID@BV4TriangleMeshBuilder@physx@@UEBA?AW4Enum@PxMeshMidPhase@2@XZ 000000018000f230 f i TriangleMeshBuilder.obj
 0001:0000e230       ?raw_length@charNode@@UEBAHXZ 000000018000f230 f i libvcruntime:undname.obj
 0001:0000e230       DllMain                    000000018000f230 f i LIBCMT:dll_dllmain_stub.obj
 0001:0000e230       _get_startup_argv_mode     000000018000f230 f i LIBCMT:argv_mode.obj
 0001:0000e230       ?length@charNode@@UEBAHXZ  000000018000f230 f i libvcruntime:undname.obj
 0001:0000e240       ?getMidphaseID@RTreeTriangleMeshBuilder@physx@@UEBA?AW4Enum@PxMeshMidPhase@2@XZ 000000018000f240 f i TriangleMeshBuilder.obj
 0001:0000e250       ?importMesh@TriangleMeshBuilder@physx@@IEAA_NAEBVPxTriangleMeshDesc@2@AEBUPxCookingParams@2@PEAW4Enum@PxTriangleMeshCookingResult@2@_N@Z 000000018000f250 f   TriangleMeshBuilder.obj
 0001:0000e5d0       ?loadFromDesc@TriangleMeshBuilder@physx@@QEAA_NAEBVPxTriangleMeshDesc@2@PEAW4Enum@PxTriangleMeshCookingResult@2@_N@Z 000000018000f5d0 f   TriangleMeshBuilder.obj
 0001:0000ea50       ?onMeshIndexFormatChange@BV4TriangleMeshBuilder@physx@@UEAAXXZ 000000018000fa50 f   TriangleMeshBuilder.obj
 0001:0000ea90       ?remap@RTreeCookerRemap@physx@@UEAAXPEAIII@Z 000000018000fa90 f i TriangleMeshBuilder.obj
 0001:0000eab0       ?remapTopology@TriangleMeshBuilder@physx@@QEAAXPEBI@Z 000000018000fab0 f   TriangleMeshBuilder.obj
 0001:0000edb0       ?save@TriangleMeshBuilder@physx@@QEBA_NAEAVPxOutputStream@2@_NAEBUPxCookingParams@2@@Z 000000018000fdb0 f   TriangleMeshBuilder.obj
 0001:0000f390       ?saveMidPhaseStructure@BV4TriangleMeshBuilder@physx@@UEBAXAEAVPxOutputStream@2@_N@Z 0000000180010390 f   TriangleMeshBuilder.obj
 0001:0000f530       ?saveMidPhaseStructure@RTreeTriangleMeshBuilder@physx@@UEBAXAEAVPxOutputStream@2@_N@Z 0000000180010530 f   TriangleMeshBuilder.obj
 0001:0000f770       ??0BigConvexDataBuilder@physx@@QEAA@PEBUConvexHullData@Gu@1@PEAVBigConvexData@1@PEBVPxVec3@1@@Z 0000000180010770 f   BigConvexDataBuilder.obj
 0001:0000f780       ??4BigConvexData@physx@@QEAAAEAV01@AEBV01@@Z 0000000180010780 f i BigConvexDataBuilder.obj
 0001:0000f7a0       ?GetAdjacentVerts@BigConvexData@physx@@QEBAPEBEXZ 00000001800107a0 f i BigConvexDataBuilder.obj
 0001:0000f7b0       ?GetValency@BigConvexData@physx@@QEBAGI@Z 00000001800107b0 f i BigConvexDataBuilder.obj
 0001:0000f7b0       ?GetNbNeighbors@BigConvexData@physx@@QEBAGI@Z 00000001800107b0 f i BigConvexDataBuilder.obj
 0001:0000f7c0       ?GetNbSamples@BigConvexData@physx@@QEBAIXZ 00000001800107c0 f i BigConvexDataBuilder.obj
 0001:0000f7d0       ?GetNbVerts@BigConvexData@physx@@QEBAIXZ 00000001800107d0 f i BigConvexDataBuilder.obj
 0001:0000f7d0       ?length@pcharNode@@UEBAHXZ 00000001800107d0 f i libvcruntime:undname.obj
 0001:0000f7d0       ?raw_length@pcharNode@@UEBAHXZ 00000001800107d0 f i libvcruntime:undname.obj
 0001:0000f7e0       ?GetNeighbors@BigConvexData@physx@@QEBAPEBEI@Z 00000001800107e0 f i BigConvexDataBuilder.obj
 0001:0000f7f0       ?GetOffset@BigConvexData@physx@@QEBAGI@Z 00000001800107f0 f i BigConvexDataBuilder.obj
 0001:0000f800       ?GetSubdiv@BigConvexData@physx@@QEBAIXZ 0000000180010800 f i BigConvexDataBuilder.obj
 0001:0000f810       ?computeValencies@BigConvexDataBuilder@physx@@QEAA_NAEBVConvexHullBuilder@2@@Z 0000000180010810 f   BigConvexDataBuilder.obj
 0001:0000fc00       ?precompute@BigConvexDataBuilder@physx@@QEAA_NI@Z 0000000180010c00 f   BigConvexDataBuilder.obj
 0001:00010840       ?save@BigConvexDataBuilder@physx@@QEBA_NAEAVPxOutputStream@2@_N@Z 0000000180011840 f   BigConvexDataBuilder.obj
 0001:00010a80       ??$?_UE@@YAPEAX_KV?$ReflectionAllocator@E@shdfnd@physx@@PEBDH@Z 0000000180011a80 f i ConvexHullBuilder.obj
 0001:00010b20       ??0ConvexHullBuilder@physx@@QEAA@PEAUConvexHullData@Gu@1@_N@Z 0000000180011b20 f   ConvexHullBuilder.obj
 0001:00010b50       ??1ConvexHullBuilder@physx@@QEAA@XZ 0000000180011b50 f   ConvexHullBuilder.obj
 0001:00010c50       ?calculateVertexMapTable@ConvexHullBuilder@physx@@QEAA_NI_N@Z 0000000180011c50 f   ConvexHullBuilder.obj
 0001:00010e60       ?checkHullPolygons@ConvexHullBuilder@physx@@QEBA_NXZ 0000000180011e60 f   ConvexHullBuilder.obj
 0001:00011440       ?computeGeomCenter@ConvexHullBuilder@physx@@IEBA_NAEAVPxVec3@2@IPEAUHullTriangleData@2@@Z 0000000180012440 f   ConvexHullBuilder.obj
 0001:00011700       ?copy@ConvexHullBuilder@physx@@QEAA_NAEAUConvexHullData@Gu@2@AEAI@Z 0000000180012700 f   ConvexHullBuilder.obj
 0001:00011980       ?createEdgeList@ConvexHullBuilder@physx@@QEAA_N_NI@Z 0000000180012980 f   ConvexHullBuilder.obj
 0001:000121f0       ?init@ConvexHullBuilder@physx@@QEAA_NIPEBVPxVec3@2@PEBIIIPEBUPxHullPolygon@2@_NPEAVConvexHullLib@2@@Z 00000001800131f0 f   ConvexHullBuilder.obj
 0001:00012b50       ?save@ConvexHullBuilder@physx@@QEBA_NAEAVPxOutputStream@2@_N@Z 0000000180013b50 f   ConvexHullBuilder.obj
 0001:00012e70       ??1ConvexHullLib@physx@@UEAA@XZ 0000000180013e70 f   ConvexHullLib.obj
 0001:00012ed0       ??_EConvexHullLib@physx@@UEAAPEAXI@Z 0000000180013ed0 f i ConvexHullLib.obj
 0001:00012ed0       ??_GConvexHullLib@physx@@UEAAPEAXI@Z 0000000180013ed0 f i ConvexHullLib.obj
 0001:00013440       ?cleanupVertices@ConvexHullLib@physx@@IEAA_NIPEBVPxVec3@2@IAEAIPEAV32@AEAV32@3@Z 0000000180014440 f   ConvexHullLib.obj
 0001:000138c0       ?shiftAndcleanupVertices@ConvexHullLib@physx@@IEAA_NIPEBVPxVec3@2@IAEAIPEAV32@AEAV32@3@Z 00000001800148c0 f   ConvexHullLib.obj
 0001:00013da0       ?shiftConvexMeshDesc@ConvexHullLib@physx@@IEAAXAEAVPxConvexMeshDesc@2@@Z 0000000180014da0 f   ConvexHullLib.obj
 0001:00013e60       ?swapLargestFace@ConvexHullLib@physx@@IEAAXAEAVPxConvexMeshDesc@2@@Z 0000000180014e60 f   ConvexHullLib.obj
 0001:00014050       ??0Box@Gu@physx@@QEAA@AEBV012@@Z 0000000180015050 f i ConvexHullUtils.obj
 0001:00014050       ??4Box@Gu@physx@@QEAAAEBV012@AEBV012@@Z 0000000180015050 f i ConvexHullUtils.obj
 0001:000140b0       ??0Box@Gu@physx@@QEAA@AEBVPxVec3@2@0AEBVPxMat33@2@@Z 00000001800150b0 f i ConvexHullUtils.obj
 0001:00014120       ??0ConvexHull@physx@@QEAA@AEBVPxVec3@1@AEBVPxTransform@1@AEBV?$Array@VPxPlane@physx@@V?$ReflectionAllocator@VPxPlane@physx@@@shdfnd@2@@shdfnd@1@@Z 0000000180015120 f   ConvexHullUtils.obj
 0001:00015280       ??0PxQuat@physx@@QEAA@AEBVPxMat33@1@@Z 0000000180016280 f i ConvexHullUtils.obj
 0001:00015460       ?allocate@?$Array@VHalfEdge@ConvexHull@physx@@V?$ReflectionAllocator@VHalfEdge@ConvexHull@physx@@@shdfnd@3@@shdfnd@physx@@IEAAPEAVHalfEdge@ConvexHull@3@I@Z 0000000180016460 f i ConvexHullUtils.obj
 0001:00015500       ?allocate@?$Array@VPxPlane@physx@@V?$ReflectionAllocator@VPxPlane@physx@@@shdfnd@2@@shdfnd@physx@@IEAAPEAVPxPlane@3@I@Z 0000000180016500 f i ConvexHullUtils.obj
 0001:000155a0       ?assertIntact@ConvexHull@physx@@QEBA_NM@Z 00000001800165a0 f   ConvexHullUtils.obj
 0001:000158b0       ?computeAABBExtent@Box@Gu@physx@@QEBA?AVPxVec3@3@XZ 00000001800168b0 f i ConvexHullUtils.obj
 0001:00015970       ?computeBoxPoints@Box@Gu@physx@@QEBAXPEIAVPxVec3@3@@Z 0000000180016970 f i ConvexHullUtils.obj
 0001:000159b0       ?computeOBBFromConvex@physx@@YA_NAEBVPxConvexMeshDesc@1@AEAVPxVec3@1@AEAVPxTransform@1@@Z 00000001800169b0 f   ConvexHullUtils.obj
 0001:00016240       ?convexHullCrop@physx@@YAPEAVConvexHull@1@AEBV21@AEBVPxPlane@1@M@Z 0000000180017240 f   ConvexHullUtils.obj
 0001:00017020       ?copy@?$Array@VPxPlane@physx@@V?$ReflectionAllocator@VPxPlane@physx@@@shdfnd@2@@shdfnd@physx@@KAXPEAVPxPlane@3@0PEBV43@@Z 0000000180018020 f i ConvexHullUtils.obj
 0001:00017120       ?findCandidatePlane@ConvexHull@physx@@QEBAHMM@Z 0000000180018120 f   ConvexHullUtils.obj
 0001:00017590       ?getInverse@PxMat33@physx@@QEBA?BV12@XZ 0000000180018590 f i ConvexHullUtils.obj
 0001:000177e0       ?getTransform@Box@Gu@physx@@QEBA?AVPxTransform@3@XZ 00000001800187e0 f i ConvexHullUtils.obj
 0001:00017840       ?growAndPushBack@?$Array@VHalfEdge@ConvexHull@physx@@V?$ReflectionAllocator@VHalfEdge@ConvexHull@physx@@@shdfnd@3@@shdfnd@physx@@IEAAAEAVHalfEdge@ConvexHull@3@AEBV453@@Z 0000000180018840 f i ConvexHullUtils.obj
 0001:00017900       ?growAndPushBack@?$Array@VPxPlane@physx@@V?$ReflectionAllocator@VPxPlane@physx@@@shdfnd@2@@shdfnd@physx@@IEAAAEAVPxPlane@3@AEBV43@@Z 0000000180018900 f i ConvexHullUtils.obj
 0001:000179c0       ?isValid@Box@Gu@physx@@QEBA_NXZ 00000001800189c0 f i ConvexHullUtils.obj
 0001:000179e0       ?maxNumVertsPerFace@ConvexHull@physx@@QEBAIXZ 00000001800189e0 f   ConvexHullUtils.obj
 0001:00017a50       ?recreate@?$Array@VHalfEdge@ConvexHull@physx@@V?$ReflectionAllocator@VHalfEdge@ConvexHull@physx@@@shdfnd@3@@shdfnd@physx@@IEAAXI@Z 0000000180018a50 f i ConvexHullUtils.obj
 0001:00017af0       ?recreate@?$Array@VPxPlane@physx@@V?$ReflectionAllocator@VPxPlane@physx@@@shdfnd@2@@shdfnd@physx@@IEAAXI@Z 0000000180018af0 f i ConvexHullUtils.obj
 0001:00017b80       ?resize@?$Array@VHalfEdge@ConvexHull@physx@@V?$ReflectionAllocator@VHalfEdge@ConvexHull@physx@@@shdfnd@3@@shdfnd@physx@@QEAAXIAEBVHalfEdge@ConvexHull@3@@Z 0000000180018b80 f i ConvexHullUtils.obj
 0001:00017c40       ?resize@?$Array@VPxPlane@physx@@V?$ReflectionAllocator@VPxPlane@physx@@@shdfnd@2@@shdfnd@physx@@QEAAXIAEBVPxPlane@3@@Z 0000000180018c40 f i ConvexHullUtils.obj
 0001:00017d60       ?resize@?$Array@VPxVec3@physx@@V?$ReflectionAllocator@VPxVec3@physx@@@shdfnd@2@@shdfnd@physx@@QEAAXIAEBVPxVec3@3@@Z 0000000180018d60 f i ConvexHullUtils.obj
 0001:00017e50       ?rotate@Box@Gu@physx@@QEBA?AVPxVec3@3@AEBV43@@Z 0000000180018e50 f i ConvexHullUtils.obj
 0001:00017ee0       ?rotateInv@Box@Gu@physx@@QEBA?AVPxVec3@3@AEBV43@@Z 0000000180018ee0 f i ConvexHullUtils.obj
 0001:00017f70       ?setAxes@Box@Gu@physx@@QEAAXAEBVPxVec3@3@00@Z 0000000180018f70 f i ConvexHullUtils.obj
 0001:00017fb0       ?setEmpty@Box@Gu@physx@@QEAAXXZ 0000000180018fb0 f i ConvexHullUtils.obj
 0001:00017ff0       ?transform@Box@Gu@physx@@QEBA?AVPxVec3@3@AEBV43@@Z 0000000180018ff0 f i ConvexHullUtils.obj
 0001:00018090       ??0ConvexMeshBuilder@physx@@QEAA@_N@Z 0000000180019090 f   ConvexMeshBuilder.obj
 0001:000180f0       ??1ConvexMeshBuilder@physx@@QEAA@XZ 00000001800190f0 f   ConvexMeshBuilder.obj
 0001:00018540       ?build@ConvexMeshBuilder@physx@@QEAA_NAEBVPxConvexMeshDesc@2@I_NPEAVConvexHullLib@2@@Z 0000000180019540 f   ConvexMeshBuilder.obj
 0001:00018850       ?computeHullPolygons@ConvexMeshBuilder@physx@@QEAA_NAEBIPEBVPxVec3@2@0PEBIAEAVPxAllocatorCallback@2@AEAIAEAPEAV32@4AEAPEAI4AEAPEAUPxHullPolygon@2@@Z 0000000180019850 f   ConvexMeshBuilder.obj
 0001:00018a70       ?computeMassInfo@ConvexMeshBuilder@physx@@QEAAX_N@Z 0000000180019a70 f   ConvexMeshBuilder.obj
 0001:00018e40       ?copy@ConvexMeshBuilder@physx@@QEAA_NAEAUConvexHullInitData@Gu@2@@Z 0000000180019e40 f   ConvexMeshBuilder.obj
 0001:00018f60       ?isFinite@PxVec3@physx@@QEBA_NXZ 0000000180019f60 f i ConvexMeshBuilder.obj
 0001:00018fc0       ?loadConvexHull@ConvexMeshBuilder@physx@@QEAA_NAEBVPxConvexMeshDesc@2@PEAVConvexHullLib@2@@Z 0000000180019fc0 f   ConvexMeshBuilder.obj
 0001:00019240       ?save@ConvexMeshBuilder@physx@@QEBA_NAEAVPxOutputStream@2@_N@Z 000000018001a240 f   ConvexMeshBuilder.obj
 0001:00019450       ??$copy@V?$ReflectionAllocator@VPair@@@shdfnd@physx@@@?$Array@VPair@@V?$ReflectionAllocator@VPair@@@shdfnd@physx@@@shdfnd@physx@@IEAAXAEBV012@@Z 000000018001a450 f i ConvexPolygonsBuilder.obj
 0001:000194d0       ??0ConvexPolygonsBuilder@physx@@QEAA@PEAUConvexHullData@Gu@1@_N@Z 000000018001a4d0 f   ConvexPolygonsBuilder.obj
 0001:000194f0       ??1ConvexPolygonsBuilder@physx@@QEAA@XZ 000000018001a4f0 f   ConvexPolygonsBuilder.obj
 0001:00019d40       ?allocate@?$Array@VPair@@V?$ReflectionAllocator@VPair@@@shdfnd@physx@@@shdfnd@physx@@IEAAPEAVPair@@I@Z 000000018001ad40 f i ConvexPolygonsBuilder.obj
 0001:0001a560       ?computeHullPolygons@ConvexPolygonsBuilder@physx@@QEAA_NAEBIPEBVPxVec3@2@0PEBI@Z 000000018001b560 f   ConvexPolygonsBuilder.obj
 0001:0001b600       ?createPolygonData@ConvexPolygonsBuilder@physx@@AEAA_NXZ 000000018001c600 f   ConvexPolygonsBuilder.obj
 0001:0001c1e0       ?createTrianglesFromPolygons@ConvexPolygonsBuilder@physx@@AEAA_NXZ 000000018001d1e0 f   ConvexPolygonsBuilder.obj
 0001:0001d860       ?growAndPushBack@?$Array@VPair@@V?$ReflectionAllocator@VPair@@@shdfnd@physx@@@shdfnd@physx@@IEAAAEAVPair@@AEBV4@@Z 000000018001e860 f i ConvexPolygonsBuilder.obj
 0001:0001d920       ??0QuickHull@local@@QEAA@AEBUPxCookingParams@physx@@AEBVPxConvexMeshDesc@3@@Z 000000018001e920 f   QuickHullConvexHullLib.obj
 0001:0001d9d0       ??0QuickHullConvexHullLib@physx@@QEAA@AEBVPxConvexMeshDesc@1@AEBUPxCookingParams@1@@Z 000000018001e9d0 f   QuickHullConvexHullLib.obj
 0001:0001dac0       ??1?$MemBlock@UQuickHullFace@local@@$00@local@@QEAA@XZ 000000018001eac0 f i QuickHullConvexHullLib.obj
 0001:0001dac0       ??1?$MemBlock@UQuickHullHalfEdge@local@@$0A@@local@@QEAA@XZ 000000018001eac0 f i QuickHullConvexHullLib.obj
 0001:0001db50       ??1QuickHull@local@@QEAA@XZ 000000018001eb50 f   QuickHullConvexHullLib.obj
 0001:0001dc90       ??_GConvexHull@physx@@QEAAPEAXI@Z 000000018001ec90 f i QuickHullConvexHullLib.obj
 0001:0001dd70       ??_GQuickHullConvexHullLib@physx@@UEAAPEAXI@Z 000000018001ed70 f i QuickHullConvexHullLib.obj
 0001:0001dd70       ??_EQuickHullConvexHullLib@physx@@UEAAPEAXI@Z 000000018001ed70 f i QuickHullConvexHullLib.obj
 0001:0001de70       ?addPointToHull@QuickHull@local@@IEAA_NPEBUQuickHullVertex@2@AEAUQuickHullFace@2@AEA_N@Z 000000018001ee70 f   QuickHullConvexHullLib.obj
 0001:0001e140       ?addSimplex@QuickHull@local@@IEAAXPEAUQuickHullVertex@2@_N@Z 000000018001f140 f   QuickHullConvexHullLib.obj
 0001:0001e610       ?allocate@?$Array@PEAUQuickHullFace@local@@V?$ReflectionAllocator@PEAUQuickHullFace@local@@@shdfnd@physx@@@shdfnd@physx@@IEAAPEAPEAUQuickHullFace@local@@I@Z 000000018001f610 f i QuickHullConvexHullLib.obj
 0001:0001e6b0       ?allocate@?$Array@PEAUQuickHullHalfEdge@local@@V?$ReflectionAllocator@PEAUQuickHullHalfEdge@local@@@shdfnd@physx@@@shdfnd@physx@@IEAAPEAPEAUQuickHullHalfEdge@local@@I@Z 000000018001f6b0 f i QuickHullConvexHullLib.obj
 0001:0001e750       ?allocate@?$Array@PEAUQuickHullVertex@local@@V?$ReflectionAllocator@PEAUQuickHullVertex@local@@@shdfnd@physx@@@shdfnd@physx@@IEAAPEAPEAUQuickHullVertex@local@@I@Z 000000018001f750 f i QuickHullConvexHullLib.obj
 0001:0001e7f0       ?allocate@?$Array@UExpandPoint@local@@V?$ReflectionAllocator@UExpandPoint@local@@@shdfnd@physx@@@shdfnd@physx@@IEAAPEAUExpandPoint@local@@I@Z 000000018001f7f0 f i QuickHullConvexHullLib.obj
 0001:0001e890       ?buildHull@QuickHull@local@@QEAA?AW4Enum@QuickHullResult@2@XZ 000000018001f890 f   QuickHullConvexHullLib.obj
 0001:0001eaa0       ?calculateHorizon@QuickHull@local@@IEAAXAEBVPxVec3@physx@@PEAUQuickHullHalfEdge@2@AEAUQuickHullFace@2@AEAV?$Array@PEAUQuickHullHalfEdge@local@@V?$ReflectionAllocator@PEAUQuickHullHalfEdge@local@@@shdfnd@physx@@@shdfnd@4@AEAV?$Array@PEAUQuickHullFace@local@@V?$ReflectionAllocator@PEAUQuickHullFace@local@@@shdfnd@physx@@@84@@Z 000000018001faa0 f   QuickHullConvexHullLib.obj
 0001:0001ec50       ?canMergeFaces@QuickHull@local@@IEAA_NAEBUQuickHullHalfEdge@2@@Z 000000018001fc50 f   QuickHullConvexHullLib.obj
 0001:0001f480       ?cleanupForSimplex@QuickHullConvexHullLib@physx@@IEAA_NPEAVPxVec3@2@IPEAUQuickHullVertex@local@@1AEAM2@Z 0000000180020480 f   QuickHullConvexHullLib.obj
 0001:00020050       ?computeMinMaxVerts@QuickHull@local@@IEAAXXZ 0000000180021050 f   QuickHullConvexHullLib.obj
 0001:00020420       ?connectHalfEdges@QuickHullFace@local@@AEAAPEAU12@PEAUQuickHullHalfEdge@2@0@Z 0000000180021420 f   QuickHullConvexHullLib.obj
 0001:00020780       ?copy@?$Array@UExpandPoint@local@@V?$ReflectionAllocator@UExpandPoint@local@@@shdfnd@physx@@@shdfnd@physx@@KAXPEAUExpandPoint@local@@0PEBU45@@Z 0000000180021780 f i QuickHullConvexHullLib.obj
 0001:00020830       ?createConvexHull@QuickHullConvexHullLib@physx@@UEAA?AW4Enum@PxConvexMeshCookingResult@2@XZ 0000000180021830 f   QuickHullConvexHullLib.obj
 0001:00020c30       ?createEdgeList@QuickHullConvexHullLib@physx@@UEAA_NIPEBEPEAPEAEPEAPEAG2@Z 0000000180021c30 f   QuickHullConvexHullLib.obj
 0001:00020e60       ?createTriangle@QuickHull@local@@IEAAPEAUQuickHullFace@2@AEBUQuickHullVertex@2@00@Z 0000000180021e60 f   QuickHullConvexHullLib.obj
 0001:000211f0       ?doAdjacentMerge@QuickHull@local@@IEAA_NAEAUQuickHullFace@2@_NAEA_N@Z 00000001800221f0 f   QuickHullConvexHullLib.obj
 0001:00021530       ?expandHull@QuickHullConvexHullLib@physx@@IEAA?AW4Enum@PxConvexMeshCookingResult@2@XZ 0000000180022530 f   QuickHullConvexHullLib.obj
 0001:00022200       ?expandHullOBB@QuickHullConvexHullLib@physx@@IEAA?AW4Enum@PxConvexMeshCookingResult@2@XZ 0000000180023200 f   QuickHullConvexHullLib.obj
 0001:00022620       ?fillConvexMeshDesc@QuickHullConvexHullLib@physx@@UEAAXAEAVPxConvexMeshDesc@2@@Z 0000000180023620 f   QuickHullConvexHullLib.obj
 0001:00022670       ?fillConvexMeshDescFromCroppedHull@QuickHullConvexHullLib@physx@@IEAAXAEAVPxConvexMeshDesc@2@@Z 0000000180023670 f   QuickHullConvexHullLib.obj
 0001:00022870       ?fillConvexMeshDescFromQuickHull@QuickHullConvexHullLib@physx@@IEAAXAEAVPxConvexMeshDesc@2@@Z 0000000180023870 f   QuickHullConvexHullLib.obj
 0001:00022c00       ?findSimplex@QuickHull@local@@IEAA_NXZ 0000000180023c00 f   QuickHullConvexHullLib.obj
 0001:000238b0       ?getFreeItem@?$MemBlock@UQuickHullFace@local@@$00@local@@QEAAPEAUQuickHullFace@2@XZ 00000001800248b0 f i QuickHullConvexHullLib.obj
 0001:000239e0       ?getFreeItem@?$MemBlock@UQuickHullHalfEdge@local@@$0A@@local@@QEAAPEAUQuickHullHalfEdge@2@XZ 00000001800249e0 f i QuickHullConvexHullLib.obj
 0001:00023ab0       ?growAndPushBack@?$Array@PEAUQuickHullFace@local@@V?$ReflectionAllocator@PEAUQuickHullFace@local@@@shdfnd@physx@@@shdfnd@physx@@IEAAAEAPEAUQuickHullFace@local@@AEBQEAU45@@Z 0000000180024ab0 f i QuickHullConvexHullLib.obj
 0001:00023b70       ?growAndPushBack@?$Array@PEAUQuickHullHalfEdge@local@@V?$ReflectionAllocator@PEAUQuickHullHalfEdge@local@@@shdfnd@physx@@@shdfnd@physx@@IEAAAEAPEAUQuickHullHalfEdge@local@@AEBQEAU45@@Z 0000000180024b70 f i QuickHullConvexHullLib.obj
 0001:00023c30       ?growAndPushBack@?$Array@PEAUQuickHullVertex@local@@V?$ReflectionAllocator@PEAUQuickHullVertex@local@@@shdfnd@physx@@@shdfnd@physx@@IEAAAEAPEAUQuickHullVertex@local@@AEBQEAU45@@Z 0000000180024c30 f i QuickHullConvexHullLib.obj
 0001:00023cf0       ?growAndPushBack@?$Array@UExpandPoint@local@@V?$ReflectionAllocator@UExpandPoint@local@@@shdfnd@physx@@@shdfnd@physx@@IEAAAEAUExpandPoint@local@@AEBU45@@Z 0000000180024cf0 f i QuickHullConvexHullLib.obj
 0001:00023df0       ?init@?$MemBlock@UQuickHullFace@local@@$00@local@@QEAAXI@Z 0000000180024df0 f i QuickHullConvexHullLib.obj
 0001:00023ef0       ?init@?$MemBlock@UQuickHullHalfEdge@local@@$0A@@local@@QEAAXI@Z 0000000180024ef0 f i QuickHullConvexHullLib.obj
 0001:00023f90       ?mergeAdjacentFace@QuickHullFace@local@@QEAA_NPEAUQuickHullHalfEdge@2@AEAV?$Array@PEAUQuickHullFace@local@@V?$ReflectionAllocator@PEAUQuickHullFace@local@@@shdfnd@physx@@@shdfnd@physx@@@Z 0000000180024f90 f   QuickHullConvexHullLib.obj
 0001:000243e0       ?nextPointToAdd@QuickHull@local@@IEAAPEAUQuickHullVertex@2@AEAPEAUQuickHullFace@2@@Z 00000001800253e0 f   QuickHullConvexHullLib.obj
 0001:00024560       ?parseInputVertices@QuickHull@local@@QEAAXPEBVPxVec3@physx@@I@Z 0000000180025560 f   QuickHullConvexHullLib.obj
 0001:000246f0       ?postMergeHull@QuickHull@local@@IEAAXXZ 00000001800256f0 f   QuickHullConvexHullLib.obj
 0001:00024940       ?preallocate@QuickHull@local@@QEAAXI@Z 0000000180025940 f   QuickHullConvexHullLib.obj
 0001:00024a80       ?recreate@?$Array@PEAUQuickHullFace@local@@V?$ReflectionAllocator@PEAUQuickHullFace@local@@@shdfnd@physx@@@shdfnd@physx@@IEAAXI@Z 0000000180025a80 f i QuickHullConvexHullLib.obj
 0001:00024b20       ?recreate@?$Array@PEAUQuickHullHalfEdge@local@@V?$ReflectionAllocator@PEAUQuickHullHalfEdge@local@@@shdfnd@physx@@@shdfnd@physx@@IEAAXI@Z 0000000180025b20 f i QuickHullConvexHullLib.obj
 0001:00024bc0       ?recreate@?$Array@PEAUQuickHullVertex@local@@V?$ReflectionAllocator@PEAUQuickHullVertex@local@@@shdfnd@physx@@@shdfnd@physx@@IEAAXI@Z 0000000180025bc0 f i QuickHullConvexHullLib.obj
 0001:00024c60       ?recreate@?$Array@UExpandPoint@local@@V?$ReflectionAllocator@UExpandPoint@local@@@shdfnd@physx@@@shdfnd@physx@@IEAAXI@Z 0000000180025c60 f i QuickHullConvexHullLib.obj
 0001:00024cf0       ?resolveUnclaimedPoints@QuickHull@local@@IEAAXAEBV?$Array@PEAUQuickHullFace@local@@V?$ReflectionAllocator@PEAUQuickHullFace@local@@@shdfnd@physx@@@shdfnd@physx@@@Z 0000000180025cf0 f   QuickHullConvexHullLib.obj
 0001:000259f0       ?computeVolumeIntegralsEberly@physx@@YA_NAEBVPxConvexMeshDesc@1@MAEAUPxIntegrals@1@AEBVPxVec3@1@@Z 00000001800269f0 f   VolumeIntegration.obj
 0001:00025a30       ?computeVolumeIntegralsEberlySIMD@physx@@YA_NAEBVPxConvexMeshDesc@1@MAEAUPxIntegrals@1@AEBVPxVec3@1@@Z 0000000180026a30 f   VolumeIntegration.obj
 0001:00026070       ?cookingDelayHook@@YAP6A_JXZIPEAUDelayLoadInfo@@@Z 0000000180027070 f   WindowsCookingDelayLoadHook.obj
 0001:00026150       PxSetPhysXCookingDelayLoadHook 0000000180027150 f   WindowsCookingDelayLoadHook.obj
 0001:00026158       __imp_load_??0RadixSortBuffered@Cm@physx@@QEAA@XZ 0000000180027158 f   PhysXCommon_64:PhysXCommon_64.dll
 0001:00026164       ??0RadixSortBuffered@Cm@physx@@QEAA@XZ 0000000180027164 f   PhysXCommon_64:PhysXCommon_64.dll
 0001:0002616a       __tailMerge_physxcommon_64_dll 000000018002716a     PhysXCommon_64:PhysXCommon_64.dll
 0001:000261e3       __imp_load_??1RadixSortBuffered@Cm@physx@@UEAA@XZ 00000001800271e3 f   PhysXCommon_64:PhysXCommon_64.dll
 0001:000261ef       ??1RadixSortBuffered@Cm@physx@@UEAA@XZ 00000001800271ef f   PhysXCommon_64:PhysXCommon_64.dll
 0001:000261f5       __imp_load_?Sort@RadixSortBuffered@Cm@physx@@QEAAAEAV123@PEBIIW4RadixHint@23@@Z 00000001800271f5 f   PhysXCommon_64:PhysXCommon_64.dll
 0001:00026201       ?Sort@RadixSortBuffered@Cm@physx@@QEAAAEAV123@PEBIIW4RadixHint@23@@Z 0000000180027201 f   PhysXCommon_64:PhysXCommon_64.dll
 0001:00026207       __imp_load_??0HeightField@Gu@physx@@QEAA@PEAVGuMeshFactory@2@@Z 0000000180027207 f   PhysXCommon_64:PhysXCommon_64.dll
 0001:00026213       ??0HeightField@Gu@physx@@QEAA@PEAVGuMeshFactory@2@@Z 0000000180027213 f   PhysXCommon_64:PhysXCommon_64.dll
 0001:00026219       __imp_load_?loadFromDesc@HeightField@Gu@physx@@QEAA_NAEBVPxHeightFieldDesc@3@@Z 0000000180027219 f   PhysXCommon_64:PhysXCommon_64.dll
 0001:00026225       ?loadFromDesc@HeightField@Gu@physx@@QEAA_NAEBVPxHeightFieldDesc@3@@Z 0000000180027225 f   PhysXCommon_64:PhysXCommon_64.dll
 0001:0002622b       __imp_load_?computeCellCoordinates@HeightField@Gu@physx@@QEBAIMMAEAM0@Z 000000018002722b f   PhysXCommon_64:PhysXCommon_64.dll
 0001:00026237       ?computeCellCoordinates@HeightField@Gu@physx@@QEBAIMMAEAM0@Z 0000000180027237 f   PhysXCommon_64:PhysXCommon_64.dll
 0001:0002623d       __imp_load_?releaseMemory@HeightField@Gu@physx@@QEAAXXZ 000000018002723d f   PhysXCommon_64:PhysXCommon_64.dll
 0001:00026249       ?releaseMemory@HeightField@Gu@physx@@QEAAXXZ 0000000180027249 f   PhysXCommon_64:PhysXCommon_64.dll
 0001:0002624f       __imp_load_??1HeightField@Gu@physx@@UEAA@XZ 000000018002724f f   PhysXCommon_64:PhysXCommon_64.dll
 0001:0002625b       ??1HeightField@Gu@physx@@UEAA@XZ 000000018002725b f   PhysXCommon_64:PhysXCommon_64.dll
 0001:00026261       __imp_load_??0NodeAllocator@Gu@physx@@QEAA@XZ 0000000180027261 f   PhysXCommon_64:PhysXCommon_64.dll
 0001:0002626d       ??0NodeAllocator@Gu@physx@@QEAA@XZ 000000018002726d f   PhysXCommon_64:PhysXCommon_64.dll
 0001:00026273       __imp_load_??1NodeAllocator@Gu@physx@@QEAA@XZ 0000000180027273 f   PhysXCommon_64:PhysXCommon_64.dll
 0001:0002627f       ??1NodeAllocator@Gu@physx@@QEAA@XZ 000000018002727f f   PhysXCommon_64:PhysXCommon_64.dll
 0001:00026285       __imp_load_?release@NodeAllocator@Gu@physx@@QEAAXXZ 0000000180027285 f   PhysXCommon_64:PhysXCommon_64.dll
 0001:00026291       ?release@NodeAllocator@Gu@physx@@QEAAXXZ 0000000180027291 f   PhysXCommon_64:PhysXCommon_64.dll
 0001:00026297       __imp_load_?buildAABBTree@Gu@physx@@YA_NAEAVAABBTreeBuildParams@12@AEAVNodeAllocator@12@AEAUBuildStats@12@AEAPEAI@Z 0000000180027297 f   PhysXCommon_64:PhysXCommon_64.dll
 0001:000262a3       ?buildAABBTree@Gu@physx@@YA_NAEAVAABBTreeBuildParams@12@AEAVNodeAllocator@12@AEAUBuildStats@12@AEAPEAI@Z 00000001800272a3 f   PhysXCommon_64:PhysXCommon_64.dll
 0001:000262a9       __imp_load_?writeDword@physx@@YAXI_NAEAVPxOutputStream@1@@Z 00000001800272a9 f   PhysXCommon_64:PhysXCommon_64.dll
 0001:000262b5       ?writeDword@physx@@YAXI_NAEAVPxOutputStream@1@@Z 00000001800272b5 f   PhysXCommon_64:PhysXCommon_64.dll
 0001:000262bb       __imp_load_?writeFloatBuffer@physx@@YAXPEBMI_NAEAVPxOutputStream@1@@Z 00000001800272bb f   PhysXCommon_64:PhysXCommon_64.dll
 0001:000262c7       ?writeFloatBuffer@physx@@YAXPEBMI_NAEAVPxOutputStream@1@@Z 00000001800272c7 f   PhysXCommon_64:PhysXCommon_64.dll
 0001:000262cd       __imp_load_?writeHeader@physx@@YA_NCCCCI_NAEAVPxOutputStream@1@@Z 00000001800272cd f   PhysXCommon_64:PhysXCommon_64.dll
 0001:000262d9       ?writeHeader@physx@@YA_NCCCCI_NAEAVPxOutputStream@1@@Z 00000001800272d9 f   PhysXCommon_64:PhysXCommon_64.dll
 0001:000262df       __imp_load_?writeWord@physx@@YAXG_NAEAVPxOutputStream@1@@Z 00000001800272df f   PhysXCommon_64:PhysXCommon_64.dll
 0001:000262eb       ?writeWord@physx@@YAXG_NAEAVPxOutputStream@1@@Z 00000001800272eb f   PhysXCommon_64:PhysXCommon_64.dll
 0001:000262f1       __imp_load_?writeFloat@physx@@YAXM_NAEAVPxOutputStream@1@@Z 00000001800272f1 f   PhysXCommon_64:PhysXCommon_64.dll
 0001:000262fd       ?writeFloat@physx@@YAXM_NAEAVPxOutputStream@1@@Z 00000001800272fd f   PhysXCommon_64:PhysXCommon_64.dll
 0001:00026303       __imp_load_?computeBoundsAroundVertices@Gu@physx@@YAXAEAVPxBounds3@2@IPEIBVPxVec3@2@@Z 0000000180027303 f   PhysXCommon_64:PhysXCommon_64.dll
 0001:0002630f       ?computeBoundsAroundVertices@Gu@physx@@YAXAEAVPxBounds3@2@IPEIBVPxVec3@2@@Z 000000018002730f f   PhysXCommon_64:PhysXCommon_64.dll
 0001:00026315       __imp_load_??0SourceMesh@Gu@physx@@QEAA@XZ 0000000180027315 f   PhysXCommon_64:PhysXCommon_64.dll
 0001:00026321       ??0SourceMesh@Gu@physx@@QEAA@XZ 0000000180027321 f   PhysXCommon_64:PhysXCommon_64.dll
 0001:00026327       __imp_load_??1SourceMesh@Gu@physx@@QEAA@XZ 0000000180027327 f   PhysXCommon_64:PhysXCommon_64.dll
 0001:00026333       ??1SourceMesh@Gu@physx@@QEAA@XZ 0000000180027333 f   PhysXCommon_64:PhysXCommon_64.dll
 0001:00026339       __imp_load_??0BV4Tree@Gu@physx@@QEAA@XZ 0000000180027339 f   PhysXCommon_64:PhysXCommon_64.dll
 0001:00026345       ??0BV4Tree@Gu@physx@@QEAA@XZ 0000000180027345 f   PhysXCommon_64:PhysXCommon_64.dll
 0001:0002634b       __imp_load_??1BV4Tree@Gu@physx@@QEAA@XZ 000000018002734b f   PhysXCommon_64:PhysXCommon_64.dll
 0001:00026357       ??1BV4Tree@Gu@physx@@QEAA@XZ 0000000180027357 f   PhysXCommon_64:PhysXCommon_64.dll
 0001:0002635d       __imp_load_??0BV32Tree@Gu@physx@@QEAA@XZ 000000018002735d f   PhysXCommon_64:PhysXCommon_64.dll
 0001:00026369       ??0BV32Tree@Gu@physx@@QEAA@XZ 0000000180027369 f   PhysXCommon_64:PhysXCommon_64.dll
 0001:0002636f       __imp_load_??1BV32Tree@Gu@physx@@QEAA@XZ 000000018002736f f   PhysXCommon_64:PhysXCommon_64.dll
 0001:0002637b       ??1BV32Tree@Gu@physx@@QEAA@XZ 000000018002737b f   PhysXCommon_64:PhysXCommon_64.dll
 0001:00026381       __imp_load_?writeWordBuffer@physx@@YAXPEBGI_NAEAVPxOutputStream@1@@Z 0000000180027381 f   PhysXCommon_64:PhysXCommon_64.dll
 0001:0002638d       ?writeWordBuffer@physx@@YAXPEBGI_NAEAVPxOutputStream@1@@Z 000000018002738d f   PhysXCommon_64:PhysXCommon_64.dll
 0001:00026393       __imp_load_?computeMaxIndex@physx@@YAIPEBII@Z 0000000180027393 f   PhysXCommon_64:PhysXCommon_64.dll
 0001:0002639f       ?computeMaxIndex@physx@@YAIPEBII@Z 000000018002739f f   PhysXCommon_64:PhysXCommon_64.dll
 0001:000263a5       __imp_load_?storeIndices@physx@@YAXIIPEBIAEAVPxOutputStream@1@_N@Z 00000001800273a5 f   PhysXCommon_64:PhysXCommon_64.dll
 0001:000263b1       ?storeIndices@physx@@YAXIIPEBIAEAVPxOutputStream@1@_N@Z 00000001800273b1 f   PhysXCommon_64:PhysXCommon_64.dll
 0001:000263b7       __imp_load_?BuildBV4Ex@Gu@physx@@YA_NAEAVBV4Tree@12@AEAVSourceMesh@12@MI@Z 00000001800273b7 f   PhysXCommon_64:PhysXCommon_64.dll
 0001:000263c3       ?BuildBV4Ex@Gu@physx@@YA_NAEAVBV4Tree@12@AEAVSourceMesh@12@MI@Z 00000001800273c3 f   PhysXCommon_64:PhysXCommon_64.dll
 0001:000263c9       __imp_load_?BuildBV32Ex@Gu@physx@@YA_NAEAVBV32Tree@12@AEAVSourceMesh@12@MI@Z 00000001800273c9 f   PhysXCommon_64:PhysXCommon_64.dll
 0001:000263d5       ?BuildBV32Ex@Gu@physx@@YA_NAEAVBV32Tree@12@AEAVSourceMesh@12@MI@Z 00000001800273d5 f   PhysXCommon_64:PhysXCommon_64.dll
 0001:000263db       __imp_load_?computeMaxIndex@physx@@YAGPEBGI@Z 00000001800273db f   PhysXCommon_64:PhysXCommon_64.dll
 0001:000263e7       ?computeMaxIndex@physx@@YAGPEBGI@Z 00000001800273e7 f   PhysXCommon_64:PhysXCommon_64.dll
 0001:000263ed       __imp_load_?WriteHeader@Gu@physx@@YA_NEEEEI_NAEAVPxOutputStream@2@@Z 00000001800273ed f   PhysXCommon_64:PhysXCommon_64.dll
 0001:000263f9       ?WriteHeader@Gu@physx@@YA_NEEEEI_NAEAVPxOutputStream@2@@Z 00000001800273f9 f   PhysXCommon_64:PhysXCommon_64.dll
 0001:000263ff       __imp_load_?StoreIndices@Gu@physx@@YAXGIPEBGAEAVPxOutputStream@2@_N@Z 00000001800273ff f   PhysXCommon_64:PhysXCommon_64.dll
 0001:0002640b       ?StoreIndices@Gu@physx@@YAXGIPEBGAEAVPxOutputStream@2@_N@Z 000000018002740b f   PhysXCommon_64:PhysXCommon_64.dll
 0001:00026411       __imp_load_?CreateOffsets@BigConvexData@physx@@IEAAXXZ 0000000180027411 f   PhysXCommon_64:PhysXCommon_64.dll
 0001:0002641d       ?CreateOffsets@BigConvexData@physx@@IEAAXXZ 000000018002741d f   PhysXCommon_64:PhysXCommon_64.dll
 0001:00026423       __imp_load_?computeOBBPoints@Gu@physx@@YAXPEIAVPxVec3@2@AEBV32@1111@Z 0000000180027423 f   PhysXCommon_64:PhysXCommon_64.dll
 0001:0002642f       ?computeOBBPoints@Gu@physx@@YAXPEIAVPxVec3@2@AEBV32@1111@Z 000000018002742f f   PhysXCommon_64:PhysXCommon_64.dll
 0001:00026435       __imp_load_??0BigConvexData@physx@@QEAA@XZ 0000000180027435 f   PhysXCommon_64:PhysXCommon_64.dll
 0001:00026441       ??0BigConvexData@physx@@QEAA@XZ 0000000180027441 f   PhysXCommon_64:PhysXCommon_64.dll
 0001:00026447       __imp_load_??1BigConvexData@physx@@QEAA@XZ 0000000180027447 f   PhysXCommon_64:PhysXCommon_64.dll
 0001:00026453       ??1BigConvexData@physx@@QEAA@XZ 0000000180027453 f   PhysXCommon_64:PhysXCommon_64.dll
 0001:00026459       __imp_load_PxGetFoundation 0000000180027459 f   PhysXFoundation_64:PhysXFoundation_64.dll
 0001:00026465       PxGetFoundation            0000000180027465 f   PhysXFoundation_64:PhysXFoundation_64.dll
 0001:0002646b       __tailMerge_physxfoundation_64_dll 000000018002746b     PhysXFoundation_64:PhysXFoundation_64.dll
 0001:000264e4       __imp_load_?getAllocator@shdfnd@physx@@YAAEAVPxAllocatorCallback@2@XZ 00000001800274e4 f   PhysXFoundation_64:PhysXFoundation_64.dll
 0001:000264f0       ?getAllocator@shdfnd@physx@@YAAEAVPxAllocatorCallback@2@XZ 00000001800274f0 f   PhysXFoundation_64:PhysXFoundation_64.dll
 0001:000264f6       __imp_load_?getInstance@Foundation@shdfnd@physx@@SAAEAV123@XZ 00000001800274f6 f   PhysXFoundation_64:PhysXFoundation_64.dll
 0001:00026502       ?getInstance@Foundation@shdfnd@physx@@SAAEAV123@XZ 0000000180027502 f   PhysXFoundation_64:PhysXFoundation_64.dll
 0001:00026508       __imp_load_?error@Foundation@shdfnd@physx@@QEAAXW4Enum@PxErrorCode@3@PEBDH1ZZ 0000000180027508 f   PhysXFoundation_64:PhysXFoundation_64.dll
 0001:00026514       ?error@Foundation@shdfnd@physx@@QEAAXW4Enum@PxErrorCode@3@PEBDH1ZZ 0000000180027514 f   PhysXFoundation_64:PhysXFoundation_64.dll
 0001:0002651a       __imp_load_?incRefCount@Foundation@shdfnd@physx@@SAXXZ 000000018002751a f   PhysXFoundation_64:PhysXFoundation_64.dll
 0001:00026526       ?incRefCount@Foundation@shdfnd@physx@@SAXXZ 0000000180027526 f   PhysXFoundation_64:PhysXFoundation_64.dll
 0001:0002652c       __imp_load_?decRefCount@Foundation@shdfnd@physx@@SAXXZ 000000018002752c f   PhysXFoundation_64:PhysXFoundation_64.dll
 0001:00026538       ?decRefCount@Foundation@shdfnd@physx@@SAXXZ 0000000180027538 f   PhysXFoundation_64:PhysXFoundation_64.dll
 0001:0002653e       __imp_load_??0FPUGuard@shdfnd@physx@@QEAA@XZ 000000018002753e f   PhysXFoundation_64:PhysXFoundation_64.dll
 0001:0002654a       ??0FPUGuard@shdfnd@physx@@QEAA@XZ 000000018002754a f   PhysXFoundation_64:PhysXFoundation_64.dll
 0001:00026550       __imp_load_??1FPUGuard@shdfnd@physx@@QEAA@XZ 0000000180027550 f   PhysXFoundation_64:PhysXFoundation_64.dll
 0001:0002655c       ??1FPUGuard@shdfnd@physx@@QEAA@XZ 000000018002755c f   PhysXFoundation_64:PhysXFoundation_64.dll
 0001:00026562       __imp_load_?allocate@TempAllocator@shdfnd@physx@@QEAAPEAX_KPEBDH@Z 0000000180027562 f   PhysXFoundation_64:PhysXFoundation_64.dll
 0001:0002656e       ?allocate@TempAllocator@shdfnd@physx@@QEAAPEAX_KPEBDH@Z 000000018002756e f   PhysXFoundation_64:PhysXFoundation_64.dll
 0001:00026574       __imp_load_?deallocate@TempAllocator@shdfnd@physx@@QEAAXPEAX@Z 0000000180027574 f   PhysXFoundation_64:PhysXFoundation_64.dll
 0001:00026580       ?deallocate@TempAllocator@shdfnd@physx@@QEAAXPEAX@Z 0000000180027580 f   PhysXFoundation_64:PhysXFoundation_64.dll
 0001:00026586       __imp_load_?PxDiagonalize@physx@@YA?AVPxVec3@1@AEBVPxMat33@1@AEAVPxQuat@1@@Z 0000000180027586 f   PhysXFoundation_64:PhysXFoundation_64.dll
 0001:00026592       ?PxDiagonalize@physx@@YA?AVPxVec3@1@AEBVPxMat33@1@AEAVPxQuat@1@@Z 0000000180027592 f   PhysXFoundation_64:PhysXFoundation_64.dll
 0001:00026598       ?DloadAcquireSectionWriteAccess@@YAXXZ 0000000180027598 f i Delayimp:delayhlp.obj
 0001:00026644       ?DloadGetSRWLockFunctionPointers@@YAEXZ 0000000180027644 f i Delayimp:delayhlp.obj
 0001:000266e0       ?DloadMakePermanentImageCommit@@YAXPEAX_K@Z 00000001800276e0 f i Delayimp:delayhlp.obj
 0001:00026778       ?DloadObtainSection@@YAPEAXPEAK0@Z 0000000180027778 f i Delayimp:delayhlp.obj
 0001:00026814       ?DloadProtectSection@@YAXKPEAK@Z 0000000180027814 f i Delayimp:delayhlp.obj
 0001:000268a4       ?DloadReleaseSectionWriteAccess@@YAXXZ 00000001800278a4 f i Delayimp:delayhlp.obj
 0001:00026938       __delayLoadHelper2         0000000180027938 f   Delayimp:delayhlp.obj
 0001:00026c10       ??_V@YAXPEAX@Z             0000000180027c10 f   LIBCMT:delete_array.obj
 0001:00026c10       ??3@YAXPEAX_K@Z            0000000180027c10 f   LIBCMT:delete_scalar_size.obj
 0001:00026c18       ??_Etype_info@@UEAAPEAXI@Z 0000000180027c18 f i LIBCMT:std_type_info_static.obj
 0001:00026c18       ??_Gtype_info@@UEAAPEAXI@Z 0000000180027c18 f i LIBCMT:std_type_info_static.obj
 0001:00026c44       ?__scrt_initialize_type_info@@YAXXZ 0000000180027c44 f   LIBCMT:tncleanup.obj
 0001:00026c54       ?__scrt_uninitialize_type_info@@YAXXZ 0000000180027c54 f   LIBCMT:tncleanup.obj
 0001:00026c70       __chkstk                   0000000180027c70 f   LIBCMT:chkstk.obj
 0001:00026c70       _alloca_probe              0000000180027c70 f   LIBCMT:chkstk.obj
 0001:00026cc4       ??3@YAXPEAX@Z              0000000180027cc4 f   LIBCMT:delete_scalar.obj
 0001:00026cd0       __vdecl_sinf4              0000000180027cd0 f   LIBCMT:svml_ssinf4_dispatch.obj
 0001:00026cf0       __libm_sse2_sincosf_       0000000180027cf0 f   LIBCMT:svml_ssinf4_dispatch.obj
 0001:00026d33       __libm_sse2_sincosf4_      0000000180027d33 f   LIBCMT:svml_ssinf4_dispatch.obj
 0001:00027060       _DllMainCRTStartup         0000000180028060 f   LIBCMT:dll_dllmain.obj
 0001:000270a0       __isa_available_init       00000001800280a0 f   LIBCMT:cpu_disp.obj
 0001:00027250       __sse2_sinf4@@16           0000000180028250 f   LIBCMT:svml_ssinf4_sse2.obj
 0001:00027b90       __sse4_sinf4@@16           0000000180028b90 f   LIBCMT:svml_ssinf4_sse4.obj
 0001:00028304       __security_init_cookie     0000000180029304 f   LIBCMT:gs_support.obj
 0001:000283b0       __local_stdio_printf_options 00000001800293b0 f i LIBCMT:default_local_stdio_options.obj
 0001:000283b8       __local_stdio_scanf_options 00000001800293b8 f i LIBCMT:default_local_stdio_options.obj
 0001:000283c0       __scrt_initialize_default_local_stdio_options 00000001800293c0 f   LIBCMT:default_local_stdio_options.obj
 0001:000283dc       __scrt_acquire_startup_lock 00000001800293dc f   LIBCMT:utility.obj
 0001:00028418       __scrt_dllmain_after_initialize_c 0000000180029418 f   LIBCMT:utility.obj
 0001:0002844c       __scrt_dllmain_before_initialize_c 000000018002944c f   LIBCMT:utility.obj
 0001:00028464       __scrt_dllmain_crt_thread_attach 0000000180029464 f   LIBCMT:utility.obj
 0001:0002848c       __scrt_dllmain_crt_thread_detach 000000018002948c f   LIBCMT:utility.obj
 0001:000284a4       __scrt_dllmain_exception_filter 00000001800294a4 f   LIBCMT:utility.obj
 0001:00028504       __scrt_dllmain_uninitialize_c 0000000180029504 f   LIBCMT:utility.obj
 0001:00028534       __scrt_dllmain_uninitialize_critical 0000000180029534 f   LIBCMT:utility.obj
 0001:00028548       __scrt_initialize_crt      0000000180029548 f   LIBCMT:utility.obj
 0001:00028594       __scrt_initialize_onexit_tables 0000000180029594 f   LIBCMT:utility.obj
 0001:00028620       __scrt_is_nonwritable_in_current_image 0000000180029620 f   LIBCMT:utility.obj
 0001:000286b8       __scrt_release_startup_lock 00000001800296b8 f   LIBCMT:utility.obj
 0001:000286dc       __scrt_uninitialize_crt    00000001800296dc f   LIBCMT:utility.obj
 0001:00028708       __scrt_get_dyn_tls_init_callback 0000000180029708 f   LIBCMT:dyn_tls_init.obj
 0001:00028710       __crt_debugger_hook        0000000180029710 f   LIBCMT:utility_desktop.obj
 0001:00028718       __scrt_fastfail            0000000180029718 f   LIBCMT:utility_desktop.obj
 0001:00028864       _RTC_Initialize            0000000180029864 f   LIBCMT:initsect.obj
 0001:000288a0       _RTC_Terminate             00000001800298a0 f   LIBCMT:initsect.obj
 0001:000288e0       __common_ssin_cout_rare    00000001800298e0 f   LIBCMT:svml_s_sin_cout.obj
 0001:00028950       __scrt_is_ucrt_dll_in_use  0000000180029950 f   LIBCMT:ucrt_detection.obj
 0001:0002895c       _get_purecall_handler      000000018002995c f   libvcruntime:purevirt.obj
 0001:00028964       _purecall                  0000000180029964 f   libvcruntime:purevirt.obj
 0001:00028988       __std_type_info_compare    0000000180029988 f   libvcruntime:std_type_info.obj
 0001:000289b0       __std_type_info_destroy_list 00000001800299b0 f   libvcruntime:std_type_info.obj
 0001:000289dc       __std_type_info_name       00000001800299dc f   libvcruntime:std_type_info.obj
 0001:00028b10       memset_repmovs             0000000180029b10 f   libvcruntime:memset.obj
 0001:00028b30       memset                     0000000180029b30 f   libvcruntime:memset.obj
 0001:00028cd0       memcpy_repmovs             0000000180029cd0 f   libvcruntime:memcpy.obj
 0001:00028cf0       memcpy                     0000000180029cf0 f   libvcruntime:memcpy.obj
 0001:00028cf0       memmove                    0000000180029cf0 f   libvcruntime:memcpy.obj
 0001:000290c8       strstr                     000000018002a0c8 f   libvcruntime:strstr.obj
 0001:000292c4       __C_specific_handler       000000018002a2c4 f   libvcruntime:riscchandler.obj
 0001:000294d0       __vcrt_initialize          000000018002a4d0 f   libvcruntime:initialization.obj
 0001:000294f8       __vcrt_thread_attach       000000018002a4f8 f   libvcruntime:initialization.obj
 0001:0002950c       __vcrt_thread_detach       000000018002a50c f   libvcruntime:initialization.obj
 0001:00029520       __vcrt_uninitialize        000000018002a520 f   libvcruntime:initialization.obj
 0001:0002953c       __vcrt_uninitialize_critical 000000018002a53c f   libvcruntime:initialization.obj
 0001:0002954c       __DestructExceptionObject  000000018002a54c f   libvcruntime:ehhelpers.obj
 0001:000295bc       ?_CallMemberFunction0@@YAXQEAX0@Z 000000018002a5bc f i libvcruntime:ehhelpers.obj
 0001:000295c0       _IsExceptionObjectToBeDestroyed 000000018002a5c0 f   libvcruntime:ehhelpers.obj
 0001:000295f0       __AdjustPointer            000000018002a5f0 f   libvcruntime:ehhelpers.obj
 0001:00029614       __FrameUnwindFilter        000000018002a614 f   libvcruntime:ehhelpers.obj
 0001:0002967c       ??$?0$00@DName@@QEAA@PEBDU?$StringLifeSelector@$00@@@Z 000000018002a67c f i libvcruntime:undname.obj
 0001:000296bc       ??$?0$0A@@DName@@QEAA@PEBDU?$StringLifeSelector@$0A@@@@Z 000000018002a6bc f i libvcruntime:undname.obj
 0001:000296bc       ??$?0$01@DName@@QEAA@PEBDU?$StringLifeSelector@$01@@@Z 000000018002a6bc f i libvcruntime:undname.obj
 0001:000296fc       ??$?0$01@pcharNode@@QEAA@PEBDHU?$StringLifeSelector@$01@@@Z 000000018002a6fc f i libvcruntime:undname.obj
 0001:000296fc       ??$?0$0A@@pcharNode@@QEAA@PEBDHU?$StringLifeSelector@$0A@@@@Z 000000018002a6fc f i libvcruntime:undname.obj
 0001:00029770       ??$append@VcharNode@@@DName@@AEAAXPEBVcharNode@@@Z 000000018002a770 f i libvcruntime:undname.obj
 0001:00029770       ??$append@VDNameNode@@@DName@@AEAAXPEBVDNameNode@@@Z 000000018002a770 f i libvcruntime:undname.obj
 0001:00029770       ??$append@VpcharNode@@@DName@@AEAAXPEBVpcharNode@@@Z 000000018002a770 f i libvcruntime:undname.obj
 0001:00029770       ??$append@VDNameStatusNode@@@DName@@AEAAXPEBVDNameStatusNode@@@Z 000000018002a770 f i libvcruntime:undname.obj
 0001:000297d4       ??$doPchar@$00@DName@@AEAAXPEBDH@Z 000000018002a7d4 f i libvcruntime:undname.obj
 0001:00029878       ??$doPchar@$0A@@DName@@AEAAXPEBDH@Z 000000018002a878 f i libvcruntime:undname.obj
 0001:00029878       ??$doPchar@$01@DName@@AEAAXPEBDH@Z 000000018002a878 f i libvcruntime:undname.obj
 0001:00029910       ??0DName@@QEAA@AEAPEBDD@Z  000000018002a910 f   libvcruntime:undname.obj
 0001:000299c0       ??0DName@@QEAA@AEBUStringLiteral@@@Z 000000018002a9c0 f   libvcruntime:undname.obj
 0001:000299ec       ??0DName@@QEAA@PEAV0@@Z    000000018002a9ec f   libvcruntime:undname.obj
 0001:00029a70       ??0DName@@QEAA@_J@Z        000000018002aa70 f   libvcruntime:undname.obj
 0001:00029b18       ??0DName@@QEAA@_K@Z        000000018002ab18 f   libvcruntime:undname.obj
 0001:00029ba8       ??2@YAPEAX_KAEAV_HeapManager@@H@Z 000000018002aba8 f   libvcruntime:undname.obj
 0001:00029bd4       ??AReplicator@@QEBA?AVDName@@H@Z 000000018002abd4 f   libvcruntime:undname.obj
 0001:00029c14       ??HDName@@QEBA?AV0@AEBUStringLiteral@@@Z 000000018002ac14 f   libvcruntime:undname.obj
 0001:00029c40       ??HDName@@QEBA?AV0@AEBV0@@Z 000000018002ac40 f   libvcruntime:undname.obj
 0001:00029c6c       ??HDName@@QEBA?AV0@D@Z     000000018002ac6c f   libvcruntime:undname.obj
 0001:00029c98       ??HDName@@QEBA?AV0@W4DNameStatus@@@Z 000000018002ac98 f   libvcruntime:undname.obj
 0001:00029cc4       ??YDName@@QEAAAEAV0@AEBUStringLiteral@@@Z 000000018002acc4 f   libvcruntime:undname.obj
 0001:00029d44       ??YDName@@QEAAAEAV0@AEBV0@@Z 000000018002ad44 f   libvcruntime:undname.obj
 0001:00029df8       ??YDName@@QEAAAEAV0@D@Z    000000018002adf8 f   libvcruntime:undname.obj
 0001:00029e64       ??YDName@@QEAAAEAV0@W4DNameStatus@@@Z 000000018002ae64 f   libvcruntime:undname.obj
 0001:00029ed0       ??YReplicator@@QEAAAEAV0@AEBVDName@@@Z 000000018002aed0 f   libvcruntime:undname.obj
 0001:00029f28       ?UScore@UnDecorator@@SA?AUStringLiteral@@W4Tokens@@@Z 000000018002af28 f   libvcruntime:undname.obj
 0001:00029f74       ?composeDeclaration@UnDecorator@@CA?AVDName@@AEBV2@@Z 000000018002af74 f i libvcruntime:undname.obj
 0001:0002ae1c       ?doPchar@DName@@AEAAXD@Z   000000018002be1c f   libvcruntime:undname.obj
 0001:0002ae6c       ?getArgumentList@UnDecorator@@CA?AVDName@@XZ 000000018002be6c f   libvcruntime:undname.obj
 0001:0002b000       ?getArgumentTypes@UnDecorator@@CA?AVDName@@XZ 000000018002c000 f   libvcruntime:undname.obj
 0001:0002b15c       ?getArrayObject@UnDecorator@@CA?AVDName@@XZ 000000018002c15c f   libvcruntime:undname.obj
 0001:0002b224       ?getArrayType@UnDecorator@@CA?AVDName@@AEBV2@@Z 000000018002c224 f i libvcruntime:undname.obj
 0001:0002b46c       ?getBasedType@UnDecorator@@CA?AVDName@@XZ 000000018002c46c f   libvcruntime:undname.obj
 0001:0002b564       ?getBasicDataType@UnDecorator@@CA?AVDName@@AEBV2@@Z 000000018002c564 f   libvcruntime:undname.obj
 0001:0002baa8       ?getCallingConvention@UnDecorator@@CA?AVDName@@XZ 000000018002caa8 f   libvcruntime:undname.obj
 0001:0002bbe8       ?getDataIndirectType@UnDecorator@@CA?AVDName@@AEBV2@W4IndirectionKind@@0H@Z 000000018002cbe8 f   libvcruntime:undname.obj
 0001:0002c480       ?getDataType@UnDecorator@@CA?AVDName@@PEAV2@@Z 000000018002d480 f   libvcruntime:undname.obj
 0001:0002c594       ?getDecoratedName@UnDecorator@@CA?AVDName@@XZ 000000018002d594 f   libvcruntime:undname.obj
 0001:0002c878       ?getDimension@UnDecorator@@CA?AVDName@@_N@Z 000000018002d878 f   libvcruntime:undname.obj
 0001:0002c9c4       ?getDispatchTarget@UnDecorator@@CA?AVDName@@XZ 000000018002d9c4 f   libvcruntime:undname.obj
 0001:0002ca10       ?getECSUDataType@UnDecorator@@CA?AVDName@@XZ 000000018002da10 f   libvcruntime:undname.obj
 0001:0002cbf0       ?getEnumType@UnDecorator@@CA?AVDName@@XZ 000000018002dbf0 f i libvcruntime:undname.obj
 0001:0002cd18       ?getExtendedDataIndirectType@UnDecorator@@CA?AVDName@@AEAW4IndirectionKind@@AEA_NH@Z 000000018002dd18 f   libvcruntime:undname.obj
 0001:0002cf20       ?getExternalDataType@UnDecorator@@CA?AVDName@@AEBV2@@Z 000000018002df20 f i libvcruntime:undname.obj
 0001:0002cfe0       ?getFloatingPoint@UnDecorator@@CA?AVDName@@H@Z 000000018002dfe0 f   libvcruntime:undname.obj
 0001:0002d100       ?getFunctionIndirectType@UnDecorator@@CA?AVDName@@AEBV2@@Z 000000018002e100 f   libvcruntime:undname.obj
 0001:0002d638       ?getLastChar@DNameStatusNode@@UEBADXZ 000000018002e638 f i libvcruntime:undname.obj
 0001:0002d644       ?getLastChar@charNode@@UEBADXZ 000000018002e644 f i libvcruntime:undname.obj
 0001:0002d648       ?getLastChar@pDNameNode@@UEBADXZ 000000018002e648 f i libvcruntime:undname.obj
 0001:0002d674       ?getLastChar@pairNode@@UEBADXZ 000000018002e674 f i libvcruntime:undname.obj
 0001:0002d6ac       ?getLastChar@pcharNode@@UEBADXZ 000000018002e6ac f i libvcruntime:undname.obj
 0001:0002d6c0       ?getLexicalFrame@UnDecorator@@CA?AVDName@@XZ 000000018002e6c0 f i libvcruntime:undname.obj
 0001:0002d724       ?getMemoryWithBuffer@_HeapManager@@QEAAPEAX_K@Z 000000018002e724 f   libvcruntime:undname.obj
 0001:0002d7b4       ?getNoexcept@UnDecorator@@CA?AVDName@@XZ 000000018002e7b4 f   libvcruntime:undname.obj
 0001:0002d818       ?getNumberOfDimensions@UnDecorator@@CAHXZ 000000018002e818 f   libvcruntime:undname.obj
 0001:0002d88c       ?getOperatorName@UnDecorator@@CA?AVDName@@_NPEA_N@Z 000000018002e88c f i libvcruntime:undname.obj
 0001:0002e0d4       ?getPrimaryDataType@UnDecorator@@CA?AVDName@@AEBV2@@Z 000000018002f0d4 f   libvcruntime:undname.obj
 0001:0002e364       ?getPtrRefDataType@UnDecorator@@CA?AVDName@@AEBV2@H@Z 000000018002f364 f   libvcruntime:undname.obj
 0001:0002e530       ?getPtrRefType@UnDecorator@@CA?AVDName@@AEBV2@0W4IndirectionKind@@@Z 000000018002f530 f   libvcruntime:undname.obj
 0001:0002e708       ?getRestrictionSpec@UnDecorator@@CA?AVDName@@XZ 000000018002f708 f   libvcruntime:undname.obj
 0001:0002e8d4       ?getReturnType@UnDecorator@@CA?AVDName@@PEAV2@@Z 000000018002f8d4 f   libvcruntime:undname.obj
 0001:0002e908       ?getScope@UnDecorator@@CA?AVDName@@XZ 000000018002f908 f   libvcruntime:undname.obj
 0001:0002edbc       ?getScopedName@UnDecorator@@CA?AVDName@@XZ 000000018002fdbc f   libvcruntime:undname.obj
 0001:0002eef8       ?getSignedDimension@UnDecorator@@CA?AVDName@@XZ 000000018002fef8 f   libvcruntime:undname.obj
 0001:0002ef80       ?getString@DNameStatusNode@@UEBAPEADPEAD0@Z 000000018002ff80 f i libvcruntime:undname.obj
 0001:0002efc8       ?getString@charNode@@UEBAPEADPEAD0@Z 000000018002ffc8 f i libvcruntime:undname.obj
 0001:0002efdc       ?getString@pDNameNode@@UEBAPEADPEAD0@Z 000000018002ffdc f i libvcruntime:undname.obj
 0001:0002f00c       ?getString@pairNode@@UEBAPEADPEAD0@Z 000000018003000c f i libvcruntime:undname.obj
 0001:0002f058       ?getString@pcharNode@@UEBAPEADPEAD0@Z 0000000180030058 f i libvcruntime:undname.obj
 0001:0002f090       ?getStringEncoding@UnDecorator@@CA?AVDName@@W4PrefixKind@@H@Z 0000000180030090 f   libvcruntime:undname.obj
 0001:0002f174       ?getStringObject@UnDecorator@@CA?AVDName@@XZ 0000000180030174 f   libvcruntime:undname.obj
 0001:0002f1dc       ?getSymbolName@UnDecorator@@CA?AVDName@@XZ 00000001800301dc f i libvcruntime:undname.obj
 0001:0002f228       ?getTemplateArgumentList@UnDecorator@@CA?AVDName@@XZ 0000000180030228 f   libvcruntime:undname.obj
 0001:0002f49c       ?getTemplateName@UnDecorator@@CA?AVDName@@_N@Z 000000018003049c f   libvcruntime:undname.obj
 0001:0002f730       ?getTemplateNonTypeArgument@UnDecorator@@CA?AVDName@@XZ 0000000180030730 f   libvcruntime:undname.obj
 0001:0002fba0       ?getTemplateTypeArgument@UnDecorator@@CA?AVDName@@XZ 0000000180030ba0 f   libvcruntime:undname.obj
 0001:0002fd08       ?getThrowTypes@UnDecorator@@CA?AVDName@@XZ 0000000180030d08 f   libvcruntime:undname.obj
 0001:0002fd2c       ?getTypeEncoding@UnDecorator@@CAHXZ 0000000180030d2c f i libvcruntime:undname.obj
 0001:000300a0       ?getUndecoratedName@UnDecorator@@QEAAPEADPEADH@Z 00000001800310a0 f i libvcruntime:undname.obj
 0001:000301f4       ?getVCallThunkType@UnDecorator@@CA?AVDName@@XZ 00000001800311f4 f i libvcruntime:undname.obj
 0001:0003026c       ?getValue@UnDecorator@@CA?AV?$optional@_K@std@@XZ 000000018003126c f   libvcruntime:undname.obj
 0001:000302e0       ?getValueObject@UnDecorator@@CA?AVDName@@XZ 00000001800312e0 f   libvcruntime:undname.obj
 0001:00030414       ?getVdispMapType@UnDecorator@@CA?AVDName@@AEBV2@@Z 0000000180031414 f i libvcruntime:undname.obj
 0001:00030490       ?getVfTableType@UnDecorator@@CA?AVDName@@AEBV2@@Z 0000000180031490 f i libvcruntime:undname.obj
 0001:00030698       ?getZName@UnDecorator@@CA?AVDName@@_N0@Z 0000000180031698 f   libvcruntime:undname.obj
 0001:00030980       ?raw_length@DNameStatusNode@@UEBAHXZ 0000000180031980 f i libvcruntime:undname.obj
 0001:00030980       ?length@DNameStatusNode@@UEBAHXZ 0000000180031980 f i libvcruntime:undname.obj
 0001:00030984       ?length@pDNameNode@@UEBAHXZ 0000000180031984 f i libvcruntime:undname.obj
 0001:000309ac       ?length@pairNode@@UEBAHXZ  00000001800319ac f i libvcruntime:undname.obj
 0001:000309f4       ?parseDecoratedName@UnDecorator@@CA?AVDName@@XZ 00000001800319f4 f   libvcruntime:undname.obj
 0001:00030b08       ?raw_length@pDNameNode@@UEBAHXZ 0000000180031b08 f i libvcruntime:undname.obj
 0001:00030b0c       ?raw_length@pairNode@@UEBAHXZ 0000000180031b0c f i libvcruntime:undname.obj
 0001:00030b10       __unDName                  0000000180031b10 f   libvcruntime:undname.obj
 0001:00030b38       __unDNameEx                0000000180031b38 f   libvcruntime:undname.obj
 0001:00030c6c       sprintf_s                  0000000180031c6c f i libvcruntime:undname.obj
 0001:00030cd0       _NLG_Notify                0000000180031cd0 f   libvcruntime:notify.obj
 0001:00030cf0       __NLG_Dispatch2            0000000180031cf0 f   libvcruntime:notify.obj
 0001:00030d00       __NLG_Return2              0000000180031d00 f   libvcruntime:notify.obj
 0001:00030d04       __except_validate_context_record 0000000180031d04 f   libvcruntime:jbcxrval.obj
 0001:00030d3c       __vcrt_freefls             0000000180031d3c f   libvcruntime:per_thread_data.obj
 0001:00030d5c       __vcrt_freeptd             0000000180031d5c f   libvcruntime:per_thread_data.obj
 0001:00030dac       __vcrt_getptd              0000000180031dac f   libvcruntime:per_thread_data.obj
 0001:00030dc8       __vcrt_getptd_noexit       0000000180031dc8 f   libvcruntime:per_thread_data.obj
 0001:00030e88       __vcrt_initialize_ptd      0000000180031e88 f   libvcruntime:per_thread_data.obj
 0001:00030ed0       __vcrt_uninitialize_ptd    0000000180031ed0 f   libvcruntime:per_thread_data.obj
 0001:00030ef4       __vcrt_initialize_locks    0000000180031ef4 f   libvcruntime:locks.obj
 0001:00030f28       __vcrt_lock                0000000180031f28 f   libvcruntime:locks.obj
 0001:00030f44       __vcrt_uninitialize_locks  0000000180031f44 f   libvcruntime:locks.obj
 0001:00030f7c       __vcrt_unlock              0000000180031f7c f   libvcruntime:locks.obj
 0001:00030f98       ??$_CallSETranslator@V__FrameHandler4@@@@YAHPEAUEHExceptionRecord@@PEA_KPEAU_CONTEXT@@PEAU_xDISPATCHER_CONTEXT@@PEAUFuncInfo4@FH4@@K1H@Z 0000000180031f98 f i libvcruntime:risctrnsctrl.obj
 0001:00030fec       ?DecompFuncInfo@FH4@@YA_JPEAEAEAUFuncInfo4@1@_KH_N@Z 0000000180031fec f i libvcruntime:risctrnsctrl.obj
 0001:00031110       ?ExecutionInCatch@__FrameHandler4@@SA_NPEAU_xDISPATCHER_CONTEXT@@PEAUFuncInfo4@FH4@@@Z 0000000180032110 f   libvcruntime:risctrnsctrl.obj
 0001:00031118       ?FrameUnwindToEmptyState@__FrameHandler4@@SAXPEA_KPEAU_xDISPATCHER_CONTEXT@@PEAUFuncInfo4@FH4@@@Z 0000000180032118 f   libvcruntime:risctrnsctrl.obj
 0001:0003114c       ?GetEstablisherFrame@__FrameHandler4@@SAPEA_KPEA_KPEAU_xDISPATCHER_CONTEXT@@PEAUFuncInfo4@FH4@@0@Z 000000018003214c f   libvcruntime:risctrnsctrl.obj
 0001:00031170       ?GetRangeOfTrysToCheck@__FrameHandler4@@SA?AU?$pair@Viterator@TryBlockMap4@FH4@@V123@@std@@AEAVTryBlockMap4@FH4@@HPEAU_xDISPATCHER_CONTEXT@@PEAUFuncInfo4@5@H@Z 0000000180032170 f   libvcruntime:risctrnsctrl.obj
 0001:000312cc       ?UnwindNestedFrames@__FrameHandler4@@SAXPEA_KPEAUEHExceptionRecord@@PEAU_CONTEXT@@0PEAXPEAUFuncInfo4@FH4@@HHPEAUHandlerType4@5@PEAU_xDISPATCHER_CONTEXT@@E@Z 00000001800322cc f   libvcruntime:risctrnsctrl.obj
 0001:000313ec       ?setBuffer@TryBlockMap4@FH4@@QEAAXViterator@12@@Z 00000001800323ec f i libvcruntime:risctrnsctrl.obj
 0001:000315ac       _CreateFrameInfo           00000001800325ac f   libvcruntime:risctrnsctrl.obj
 0001:000315e8       _FindAndUnlinkFrame        00000001800325e8 f   libvcruntime:risctrnsctrl.obj
 0001:0003163c       _GetImageBase              000000018003263c f   libvcruntime:risctrnsctrl.obj
 0001:00031650       _GetThrowImageBase         0000000180032650 f   libvcruntime:risctrnsctrl.obj
 0001:00031664       _SetImageBase              0000000180032664 f   libvcruntime:risctrnsctrl.obj
 0001:0003167c       _SetThrowImageBase         000000018003267c f   libvcruntime:risctrnsctrl.obj
 0001:00031694       __CxxFrameHandler4         0000000180032694 f   libvcruntime:risctrnsctrl.obj
 0001:000318a0       __vcrt_FlsAlloc            00000001800328a0 f   libvcruntime:winapi_downlevel.obj
 0001:000318e8       __vcrt_FlsFree             00000001800328e8 f   libvcruntime:winapi_downlevel.obj
 0001:00031930       __vcrt_FlsGetValue         0000000180032930 f   libvcruntime:winapi_downlevel.obj
 0001:00031978       __vcrt_FlsSetValue         0000000180032978 f   libvcruntime:winapi_downlevel.obj
 0001:000319cc       __vcrt_InitializeCriticalSectionEx 00000001800329cc f   libvcruntime:winapi_downlevel.obj
 0001:00031a30       ?StateFromControlPc@__FrameHandler4@@SAHPEAUFuncInfo4@FH4@@PEAU_xDISPATCHER_CONTEXT@@@Z 0000000180032a30 f   libvcruntime:ehstate.obj
 0001:00031a38       ?StateFromIp@__FrameHandler4@@SAHPEAUFuncInfo4@FH4@@PEAU_xDISPATCHER_CONTEXT@@_K@Z 0000000180032a38 f   libvcruntime:ehstate.obj
 0001:000326bc       ??$TypeMatchHelper@V__FrameHandler3@@@@YAHPEBU_s_HandlerType@@PEBU_s_CatchableType@@PEBU_s_ThrowInfo@@@Z 00000001800336bc f i libvcruntime:frame.obj
 0001:000327fc       ??$TypeMatchHelper@V__FrameHandler4@@@@YAHPEAUHandlerType4@FH4@@PEBU_s_CatchableType@@PEBU_s_ThrowInfo@@@Z 00000001800337fc f i libvcruntime:frame.obj
 0001:00032940       ??$__InternalCxxFrameHandler@V__FrameHandler4@@@@YA?AW4_EXCEPTION_DISPOSITION@@PEAUEHExceptionRecord@@PEA_KPEAU_CONTEXT@@PEAU_xDISPATCHER_CONTEXT@@PEAUFuncInfo4@FH4@@H1E@Z 0000000180033940 f i libvcruntime:frame.obj
 0001:00032bd4       ??0HandlerMap4@FH4@@QEAA@PEBUTryBlockMapEntry4@1@_KH@Z 0000000180033bd4 f i libvcruntime:frame.obj
 0001:00032c50       ??0TryBlockMap4@FH4@@QEAA@PEBUFuncInfo4@1@_K@Z 0000000180033c50 f i libvcruntime:frame.obj
 0001:00032d28       ??0bad_exception@std@@QEAA@AEBV01@@Z 0000000180033d28 f i libvcruntime:frame.obj
 0001:00032d64       ??0bad_exception@std@@QEAA@XZ 0000000180033d64 f i libvcruntime:frame.obj
 0001:00032d84       ??0exception@std@@QEAA@AEBV01@@Z 0000000180033d84 f i libvcruntime:frame.obj
 0001:00032db8       ??1bad_exception@std@@UEAA@XZ 0000000180033db8 f i libvcruntime:frame.obj
 0001:00032dcc       ??_Gexception@std@@UEAAPEAXI@Z 0000000180033dcc f i libvcruntime:frame.obj
 0001:00032dcc       ??_Ebad_exception@std@@UEAAPEAXI@Z 0000000180033dcc f i libvcruntime:frame.obj
 0001:00032dcc       ??_Eexception@std@@UEAAPEAXI@Z 0000000180033dcc f i libvcruntime:frame.obj
 0001:00032dcc       ??_Gbad_exception@std@@UEAAPEAXI@Z 0000000180033dcc f i libvcruntime:frame.obj
 0001:00032e10       ?CxxCallCatchBlock@__FrameHandler4@@SAPEAXPEAU_EXCEPTION_RECORD@@@Z 0000000180033e10 f   libvcruntime:frame.obj
 0001:00033060       ?DecompHandler@HandlerMap4@FH4@@AEAAXXZ 0000000180034060 f i libvcruntime:frame.obj
 0001:000332a0       ?FrameUnwindToState@__FrameHandler4@@SAXPEA_KPEAU_xDISPATCHER_CONTEXT@@PEAUFuncInfo4@FH4@@H@Z 00000001800342a0 f   libvcruntime:frame.obj
 0001:00033700       ?ReadEntry@UWMap4@FH4@@AEAAXPEAPEAE@Z 0000000180034700 f i libvcruntime:frame.obj
 0001:000337a0       ?_CallMemberFunction1@@YAXQEAX00@Z 00000001800347a0 f i libvcruntime:frame.obj
 0001:000337ac       ?_CallMemberFunction2@@YAXQEAX00H@Z 00000001800347ac f i libvcruntime:frame.obj
 0001:000337bc       ?getStartStop@UWMap4@FH4@@QEAAXHHAEAViterator@12@0@Z 00000001800347bc f i libvcruntime:frame.obj
 0001:0003388c       ?getStateFromIterators@UWMap4@FH4@@SAHAEBViterator@12@H0H0@Z 000000018003488c f i libvcruntime:frame.obj
 0001:00033954       ?what@exception@std@@UEBAPEBDXZ 0000000180034954 f i libvcruntime:frame.obj
 0001:00033980       _CallSettingFrame          0000000180034980 f   libvcruntime:handlers.obj
 0001:000339d0       _CallSettingFrame_LookupContinuationIndex 00000001800349d0 f   libvcruntime:handlers.obj
 0001:00033a00       _CallSettingFrame_NotifyContinuationAddr 0000000180034a00 f   libvcruntime:handlers.obj
 0001:00033a30       _CallSettingFrameEncoded   0000000180034a30 f   libvcruntime:handlers.obj
 0001:00033a78       __std_exception_copy       0000000180034a78 f   libvcruntime:std_exception.obj
 0001:00033b08       __std_exception_destroy    0000000180034b08 f   libvcruntime:std_exception.obj
 0001:00033b30       _CxxThrowException         0000000180034b30 f   libvcruntime:throw.obj
 0001:00033be0       strcmp                     0000000180034be0 f   libucrt:strcmp.obj
 0001:00033c48       atan2f                     0000000180034c48 f   libucrt:atan2f.obj
 0001:00034060       cosf                       0000000180035060 f   libucrt:cosf.obj
 0001:00034560       sinf                       0000000180035560 f   libucrt:sinf.obj
 0001:00034c58       _fpclass                   0000000180035c58 f   libucrt:ieeemisc.obj
 0001:00034ce0       free                       0000000180035ce0 f   libucrt:free.obj
 0001:00034cf4       _initterm                  0000000180035cf4 f   libucrt:initterm.obj
 0001:00034d58       _initterm_e                0000000180035d58 f   libucrt:initterm.obj
 0001:00034d98       _seh_filter_dll            0000000180035d98 f   libucrt:exception_filter.obj
 0001:00034dac       _seh_filter_exe            0000000180035dac f   libucrt:exception_filter.obj
 0001:0003519c       __acrt_initialize_thread_local_exit_callback 000000018003619c f   libucrt:exit.obj
 0001:000351a4       _cexit                     00000001800361a4 f   libucrt:exit.obj
 0001:000351b4       _exit                      00000001800361b4 f   libucrt:exit.obj
 0001:000351c0       _is_c_termination_complete 00000001800361c0 f   libucrt:exit.obj
 0001:0003538c       __acrt_allocate_buffer_for_argv 000000018003638c f   libucrt:argv_parsing.obj
 0001:000353ec       _configure_narrow_argv     00000001800363ec f   libucrt:argv_parsing.obj
 0001:00035764       __dcrt_uninitialize_environments_nolock 0000000180036764 f   libucrt:environment_initialization.obj
 0001:0003579c       _initialize_narrow_environment 000000018003679c f   libucrt:environment_initialization.obj
 0001:000358f8       _execute_onexit_table      00000001800368f8 f   libucrt:onexit.obj
 0001:00035934       _initialize_onexit_table   0000000180036934 f   libucrt:onexit.obj
 0001:00035994       __acrt_uninitialize_command_line 0000000180036994 f   libucrt:argv_data.obj
 0001:00035a8c       __acrt_initialize          0000000180036a8c f   libucrt:initialization.obj
 0001:00035aa0       __acrt_thread_attach       0000000180036aa0 f   libucrt:initialization.obj
 0001:00035ab4       __acrt_thread_detach       0000000180036ab4 f   libucrt:initialization.obj
 0001:00035ac4       __acrt_uninitialize        0000000180036ac4 f   libucrt:initialization.obj
 0001:00035afc       __acrt_uninitialize_critical 0000000180036afc f   libucrt:initialization.obj
 0001:00035b0c       terminate                  0000000180036b0c f   libucrt:terminate.obj
 0001:00035b2c       abort                      0000000180036b2c f   libucrt:abort.obj
 0001:00035b84       malloc                     0000000180036b84 f   libucrt:malloc.obj
 0001:00035b8c       strcpy_s                   0000000180036b8c f   libucrt:strcpy_s.obj
 0001:00035db8       ??$ensure_buffer_is_big_enough@D@formatting_buffer@__crt_stdio_output@@QEAA_N_K@Z 0000000180036db8 f i libucrt:output.obj
 0001:00035e60       ??$type_case_integer_parse_into_buffer@I@?$output_processor@DV?$string_output_adapter@D@__crt_stdio_output@@V?$format_validation_base@DV?$string_output_adapter@D@__crt_stdio_output@@@2@@__crt_stdio_output@@AEAAXII_N@Z 0000000180036e60 f i libucrt:output.obj
 0001:00035ee8       ??$type_case_integer_parse_into_buffer@_K@?$output_processor@DV?$string_output_adapter@D@__crt_stdio_output@@V?$format_validation_base@DV?$string_output_adapter@D@__crt_stdio_output@@@2@@__crt_stdio_output@@AEAAX_KI_N@Z 0000000180036ee8 f i libucrt:output.obj
 0001:00035f78       ??$write_multiple_characters@V?$string_output_adapter@D@__crt_stdio_output@@D@__crt_stdio_output@@YAXAEBV?$string_output_adapter@D@0@DHQEAH@Z 0000000180036f78 f i libucrt:output.obj
 0001:00035ff0       ??0_LocaleUpdate@@QEAA@QEAU__crt_locale_pointers@@@Z 0000000180036ff0 f i libucrt:output.obj
 0001:0003608c       ?crop_zeroes@__crt_stdio_output@@YAXPEADQEAU__crt_locale_pointers@@@Z 000000018003708c f i libucrt:output.obj
 0001:000360f8       ?parse_int_from_format_string@?$output_processor@DV?$string_output_adapter@D@__crt_stdio_output@@V?$format_validation_base@DV?$string_output_adapter@D@__crt_stdio_output@@@2@@__crt_stdio_output@@AEAA_NQEAH@Z 00000001800370f8 f i libucrt:output.obj
 0001:0003619c       ?process@?$output_processor@DV?$string_output_adapter@D@__crt_stdio_output@@V?$format_validation_base@DV?$string_output_adapter@D@__crt_stdio_output@@@2@@__crt_stdio_output@@QEAAHXZ 000000018003719c f i libucrt:output.obj
 0001:000363b4       ?state_case_normal@?$output_processor@DV?$string_output_adapter@D@__crt_stdio_output@@V?$format_validation_base@DV?$string_output_adapter@D@__crt_stdio_output@@@2@@__crt_stdio_output@@AEAA_NXZ 00000001800373b4 f i libucrt:output.obj
 0001:00036428       ?state_case_normal_tchar@?$output_processor@DV?$string_output_adapter@D@__crt_stdio_output@@V?$format_validation_base@DV?$string_output_adapter@D@__crt_stdio_output@@@2@@__crt_stdio_output@@AEAA_ND@Z 0000000180037428 f i libucrt:output.obj
 0001:000364d0       ?state_case_size@?$output_processor@DV?$string_output_adapter@D@__crt_stdio_output@@V?$format_validation_base@DV?$string_output_adapter@D@__crt_stdio_output@@@2@@__crt_stdio_output@@AEAA_NXZ 00000001800374d0 f i libucrt:output.obj
 0001:00036644       ?state_case_type@?$output_processor@DV?$string_output_adapter@D@__crt_stdio_output@@V?$format_validation_base@DV?$string_output_adapter@D@__crt_stdio_output@@@2@@__crt_stdio_output@@AEAA_NXZ 0000000180037644 f i libucrt:output.obj
 0001:000368ac       ?type_case_Z@?$output_processor@DV?$string_output_adapter@D@__crt_stdio_output@@V?$format_validation_base@DV?$string_output_adapter@D@__crt_stdio_output@@@2@@__crt_stdio_output@@AEAA_NXZ 00000001800378ac f i libucrt:output.obj
 0001:00036920       ?type_case_a@?$output_processor@DV?$string_output_adapter@D@__crt_stdio_output@@V?$format_validation_base@DV?$string_output_adapter@D@__crt_stdio_output@@@2@@__crt_stdio_output@@AEAA_NXZ 0000000180037920 f i libucrt:output.obj
 0001:00036b38       ?type_case_c_tchar@?$output_processor@DV?$string_output_adapter@D@__crt_stdio_output@@V?$format_validation_base@DV?$string_output_adapter@D@__crt_stdio_output@@@2@@__crt_stdio_output@@AEAA_ND@Z 0000000180037b38 f i libucrt:output.obj
 0001:00036bf4       ?type_case_integer@?$output_processor@DV?$string_output_adapter@D@__crt_stdio_output@@V?$format_validation_base@DV?$string_output_adapter@D@__crt_stdio_output@@@2@@__crt_stdio_output@@AEAA_NI_N@Z 0000000180037bf4 f i libucrt:output.obj
 0001:00036dbc       ?type_case_n@?$output_processor@DV?$string_output_adapter@D@__crt_stdio_output@@V?$format_validation_base@DV?$string_output_adapter@D@__crt_stdio_output@@@2@@__crt_stdio_output@@AEAA_NXZ 0000000180037dbc f i libucrt:output.obj
 0001:00036e98       ?type_case_s@?$output_processor@DV?$string_output_adapter@D@__crt_stdio_output@@V?$format_validation_base@DV?$string_output_adapter@D@__crt_stdio_output@@@2@@__crt_stdio_output@@AEAA_NXZ 0000000180037e98 f i libucrt:output.obj
 0001:00036f30       ?write_stored_string_tchar@?$output_processor@DV?$string_output_adapter@D@__crt_stdio_output@@V?$format_validation_base@DV?$string_output_adapter@D@__crt_stdio_output@@@2@@__crt_stdio_output@@AEAA_ND@Z 0000000180037f30 f i libucrt:output.obj
 0001:00037008       ?write_string@?$string_output_adapter@D@__crt_stdio_output@@QEBAXQEBDHQEAHAEAV__crt_deferred_errno_cache@@@Z 0000000180038008 f i libucrt:output.obj
 0001:000370ac       __stdio_common_vsprintf_s  00000001800380ac f   libucrt:output.obj
 0001:00037110       ??$parse_integer@KV?$c_string_character_source@D@__crt_strtox@@@__crt_strtox@@YAKQEAU__crt_locale_pointers@@V?$c_string_character_source@D@0@H_N@Z 0000000180038110 f i libucrt:atox.obj
 0001:00037418       _ischartype_l              0000000180038418 f i libucrt:atox.obj
 0001:00037490       atol                       0000000180038490 f   libucrt:atox.obj
 0001:000374d0       strncmp                    00000001800384d0 f   libucrt:strncmp.obj
 0001:00037550       calloc                     0000000180038550 f   libucrt:calloc.obj
 0001:00037558       wcsncmp                    0000000180038558 f   libucrt:wcsncmp.obj
 0001:00037584       _clrfp                     0000000180038584 f   libucrt:fpctrl.obj
 0001:000375a4       _ctrlfp                    00000001800385a4 f   libucrt:fpctrl.obj
 0001:00037620       _set_statfp                0000000180038620 f   libucrt:fpctrl.obj
 0001:00037640       _statfp                    0000000180038640 f   libucrt:fpctrl.obj
 0001:00037778       _handle_error              0000000180038778 f   libucrt:libm_error.obj
 0001:000378a0       _handle_errorf             00000001800388a0 f   libucrt:libm_error.obj
 0001:000379d4       _handle_nan                00000001800389d4 f   libucrt:libm_error.obj
 0001:000379f0       _handle_nanf               00000001800389f0 f   libucrt:libm_error.obj
 0001:00037a00       __remainder_piby2d2f_forAsm 0000000180038a00 f   libucrt:remainder_piby2f_forasm.obj
 0001:00037b50       __remainder_piby2_fma3     0000000180038b50 f   libucrt:remainder_piby2_forfma3.obj
 0001:00037d40       __remainder_piby2_fma3_bdl 0000000180038d40 f   libucrt:remainder_piby2_forfma3.obj
 0001:00037db8       _cosf_special              0000000180038db8 f   libucrt:sincos_special.obj
 0001:00037e58       _sinf_special              0000000180038e58 f   libucrt:sincos_special.obj
 0001:00037e70       __acrt_initialize_fma3     0000000180038e70 f   libucrt:fma3_available.obj
 0001:00037ee0       __remainder_piby2d2f_forC  0000000180038ee0 f   libucrt:remainder_piby2f_forc.obj
 0001:0003806c       _free_base                 000000018003906c f   libucrt:free_base.obj
 0001:00038424       __acrt_freeptd             0000000180039424 f   libucrt:per_thread_data.obj
 0001:00038468       __acrt_getptd              0000000180039468 f   libucrt:per_thread_data.obj
 0001:0003853c       __acrt_getptd_head         000000018003953c f   libucrt:per_thread_data.obj
 0001:000385e4       __acrt_getptd_noexit       00000001800395e4 f   libucrt:per_thread_data.obj
 0001:000386b0       __acrt_initialize_ptd      00000001800396b0 f   libucrt:per_thread_data.obj
 0001:000386ec       __acrt_uninitialize_ptd    00000001800396ec f   libucrt:per_thread_data.obj
 0001:00038710       __acrt_initialize_locks    0000000180039710 f   libucrt:locks.obj
 0001:00038758       __acrt_lock                0000000180039758 f   libucrt:locks.obj
 0001:00038774       __acrt_uninitialize_locks  0000000180039774 f   libucrt:locks.obj
 0001:000387ac       __acrt_unlock              00000001800397ac f   libucrt:locks.obj
 0001:000387c8       __acrt_get_process_end_policy 00000001800397c8 f   libucrt:win_policies.obj
 0001:00038804       __acrt_call_reportfault    0000000180039804 f   libucrt:invalid_parameter.obj
 0001:00038960       __acrt_initialize_invalid_parameter_handler 0000000180039960 f   libucrt:invalid_parameter.obj
 0001:00038968       _invalid_parameter         0000000180039968 f   libucrt:invalid_parameter.obj
 0001:00038a18       _invalid_parameter_noinfo  0000000180039a18 f   libucrt:invalid_parameter.obj
 0001:00038a38       _invoke_watson             0000000180039a38 f   libucrt:invalid_parameter.obj
 0001:00038a80       __acrt_errno_from_os_error 0000000180039a80 f   libucrt:errno.obj
 0001:00038ac8       __acrt_errno_map_os_error  0000000180039ac8 f   libucrt:errno.obj
 0001:00038b18       __doserrno                 0000000180039b18 f   libucrt:errno.obj
 0001:00038b38       _errno                     0000000180039b38 f   libucrt:errno.obj
 0001:00038b58       _calloc_base               0000000180039b58 f   libucrt:calloc_base.obj
 0001:00038be4       ??$__acrt_mbs_to_wcs_cp@U__crt_win32_buffer_internal_dynamic_resizing@@@@YAHQEBDAEAV?$__crt_win32_buffer@_WU__crt_win32_buffer_internal_dynamic_resizing@@@@I@Z 0000000180039be4 f i libucrt:argv_wildcards.obj
 0001:00038d5c       ??$__acrt_wcs_to_mbs_cp@U__crt_win32_buffer_internal_dynamic_resizing@@@@YAHQEB_WAEAV?$__crt_win32_buffer@DU__crt_win32_buffer_internal_dynamic_resizing@@@@I@Z 0000000180039d5c f i libucrt:argv_wildcards.obj
 0001:0003958c       __acrt_expand_narrow_argv_wildcards 000000018003a58c f   libucrt:argv_wildcards.obj
 0001:00039594       ??$__acrt_wcs_to_mbs_cp@U__crt_win32_buffer_no_resizing@@@@YAHQEB_WAEAV?$__crt_win32_buffer@DU__crt_win32_buffer_no_resizing@@@@I@Z 000000018003a594 f i libucrt:getmodulefilenamea.obj
 0001:000396a8       __acrt_GetModuleFileNameA  000000018003a6a8 f   libucrt:getmodulefilenamea.obj
 0001:00039ef4       __acrt_initialize_multibyte 000000018003aef4 f   libucrt:mbctype.obj
 0001:00039f54       __acrt_update_thread_multibyte_data 000000018003af54 f   libucrt:mbctype.obj
 0001:00039f70       _setmbcp_nolock            000000018003af70 f   libucrt:mbctype.obj
 0001:0003a2a4       _ismbblead                 000000018003b2a4 f   libucrt:ismbbyte.obj
 0001:0003a2b8       __acrt_initialize_command_line 000000018003b2b8 f   libucrt:argv_data.obj
 0001:0003a2e0       __acrt_MultiByteToWideChar 000000018003b2e0 f   libucrt:multibytetowidechar.obj
 0001:0003a33c       __acrt_WideCharToMultiByte 000000018003b33c f   libucrt:widechartomultibyte.obj
 0001:0003a3d4       __dcrt_get_narrow_environment_from_os 000000018003b3d4 f   libucrt:get_environment_from_os.obj
 0001:0003a4d8       _recalloc_base             000000018003b4d8 f   libucrt:recalloc.obj
 0001:0003a748       __acrt_AppPolicyGetProcessTerminationMethodInternal 000000018003b748 f   libucrt:winapi_thunks.obj
 0001:0003a798       __acrt_AreFileApisANSI     000000018003b798 f   libucrt:winapi_thunks.obj
 0001:0003a7d4       __acrt_FlsAlloc            000000018003b7d4 f   libucrt:winapi_thunks.obj
 0001:0003a81c       __acrt_FlsFree             000000018003b81c f   libucrt:winapi_thunks.obj
 0001:0003a864       __acrt_FlsGetValue         000000018003b864 f   libucrt:winapi_thunks.obj
 0001:0003a8ac       __acrt_FlsSetValue         000000018003b8ac f   libucrt:winapi_thunks.obj
 0001:0003a900       __acrt_InitializeCriticalSectionEx 000000018003b900 f   libucrt:winapi_thunks.obj
 0001:0003a964       __acrt_LCMapStringEx       000000018003b964 f   libucrt:winapi_thunks.obj
 0001:0003aa40       __acrt_LocaleNameToLCID    000000018003ba40 f   libucrt:winapi_thunks.obj
 0001:0003aa90       __acrt_initialize_winapi_thunks 000000018003ba90 f   libucrt:winapi_thunks.obj
 0001:0003aac4       __acrt_uninitialize_winapi_thunks 000000018003bac4 f   libucrt:winapi_thunks.obj
 0001:0003ab08       __acrt_initialize_heap     000000018003bb08 f   libucrt:heap_handle.obj
 0001:0003ab24       __acrt_uninitialize_heap   000000018003bb24 f   libucrt:heap_handle.obj
 0001:0003ad2c       __acrt_initialize_lowio    000000018003bd2c f   libucrt:ioinit.obj
 0001:0003ad68       __acrt_uninitialize_lowio  000000018003bd68 f   libucrt:ioinit.obj
 0001:0003ada8       __acrt_execute_initializers 000000018003bda8 f   libucrt:shared_initialization.obj
 0001:0003ae28       __acrt_execute_uninitializers 000000018003be28 f   libucrt:shared_initialization.obj
 0001:0003ae64       __acrt_initialize_new_handler 000000018003be64 f   libucrt:new_handler.obj
 0001:0003ae6c       _callnewh                  000000018003be6c f   libucrt:new_handler.obj
 0001:0003ae9c       _query_new_handler         000000018003be9c f   libucrt:new_handler.obj
 0001:0003af18       __acrt_get_sigabrt_handler 000000018003bf18 f   libucrt:signal.obj
 0001:0003af48       __acrt_initialize_signal_handlers 000000018003bf48 f   libucrt:signal.obj
 0001:0003af68       raise                      000000018003bf68 f   libucrt:signal.obj
 0001:0003b1d4       __acrt_has_user_matherr    000000018003c1d4 f   libucrt:matherr.obj
 0001:0003b1f4       __acrt_initialize_user_matherr 000000018003c1f4 f   libucrt:matherr.obj
 0001:0003b1fc       __acrt_invoke_user_matherr 000000018003c1fc f   libucrt:matherr.obj
 0001:0003b408       __acrt_stdio_flush_nolock  000000018003c408 f   libucrt:fflush.obj
 0001:0003b484       _fflush_nolock             000000018003c484 f   libucrt:fflush.obj
 0001:0003b4d0       _flushall                  000000018003c4d0 f   libucrt:fflush.obj
 0001:0003b4d8       __acrt_initialize_stdio    000000018003c4d8 f   libucrt:_file.obj
 0001:0003b5f8       __acrt_uninitialize_stdio  000000018003c5f8 f   libucrt:_file.obj
 0001:0003b654       _lock_file                 000000018003c654 f   libucrt:_file.obj
 0001:0003b660       _unlock_file               000000018003c660 f   libucrt:_file.obj
 0001:0003b66c       _malloc_base               000000018003c66c f   libucrt:malloc_base.obj
 0001:0003b6cc       strtol                     000000018003c6cc f   libucrt:strtox.obj
 0001:0003b6f8       _mbtowc_l                  000000018003c6f8 f   libucrt:mbtowc.obj
 0001:0003b878       mbtowc                     000000018003c878 f   libucrt:mbtowc.obj
 0001:0003b880       _wctomb_s_l                000000018003c880 f   libucrt:wctomb.obj
 0001:0003ba1c       wctomb_s                   000000018003ca1c f   libucrt:wctomb.obj
 0001:0003ba30       strnlen                    000000018003ca30 f   libucrt:strnlen.obj
 0001:0003bb80       wcsnlen                    000000018003cb80 f   libucrt:strnlen.obj
 0001:0003bd58       __acrt_update_locale_info  000000018003cd58 f   libucrt:locale_update.obj
 0001:0003bd8c       __acrt_update_multibyte_info 000000018003cd8c f   libucrt:locale_update.obj
 0001:0003c658       __acrt_fp_format           000000018003d658 f   libucrt:cvt.obj
 0001:0003c95c       _fileno                    000000018003d95c f   libucrt:fileno.obj
 0001:0003c984       _get_printf_count_output   000000018003d984 f   libucrt:printf_count_output.obj
 0001:0003ca0c       __acrt_set_locale_changed  000000018003da0c f   libucrt:wsetlocale.obj
 0001:0003ca18       __acrt_uninitialize_locale 000000018003da18 f   libucrt:wsetlocale.obj
 0001:0003ca48       __pctype_func              000000018003da48 f   libucrt:ctype.obj
 0001:0003ca78       _isctype_l                 000000018003da78 f   libucrt:isctype.obj
 0001:0003cb90       _get_fpsr                  000000018003db90 f   libucrt:fpsr.obj
 0001:0003cba0       _set_fpsr                  000000018003dba0 f   libucrt:fpsr.obj
 0001:0003cbaa       _fclrf                     000000018003dbaa f   libucrt:fpsr.obj
 0001:0003cbbe       _frnd                      000000018003dbbe f   libucrt:fpsr.obj
 0001:0003cbe0       _raise_exc                 000000018003dbe0 f   libucrt:fpexcept.obj
 0001:0003cc08       _raise_exc_ex              000000018003dc08 f   libucrt:fpexcept.obj
 0001:0003cf18       _raise_excf                000000018003df18 f   libucrt:fpexcept.obj
 0001:0003cf44       _set_errno_from_matherr    000000018003df44 f   libucrt:fpexcept.obj
 0001:0003cf74       __acrt_add_locale_ref      000000018003df74 f   libucrt:locale_refcounting.obj
 0001:0003d000       __acrt_free_locale         000000018003e000 f   libucrt:locale_refcounting.obj
 0001:0003d178       __acrt_locale_add_lc_time_reference 000000018003e178 f   libucrt:locale_refcounting.obj
 0001:0003d1a0       __acrt_locale_free_lc_time_if_unreferenced 000000018003e1a0 f   libucrt:locale_refcounting.obj
 0001:0003d1d8       __acrt_locale_release_lc_time_reference 000000018003e1d8 f   libucrt:locale_refcounting.obj
 0001:0003d200       __acrt_release_locale_ref  000000018003e200 f   libucrt:locale_refcounting.obj
 0001:0003d2a8       __acrt_update_thread_locale_data 000000018003e2a8 f   libucrt:locale_refcounting.obj
 0001:0003d314       _updatetlocinfoEx_nolock   000000018003e314 f   libucrt:locale_refcounting.obj
 0001:0003d37c       _query_new_mode            000000018003e37c f   libucrt:new_mode.obj
 0001:0003d390       qsort                      000000018003e390 f   libucrt:qsort.obj
 0001:0003d740       strncpy_s                  000000018003e740 f   libucrt:strncpy_s.obj
 0001:0003d8c0       strpbrk                    000000018003e8c0 f   libucrt:strpbrk.obj
 0001:0003dca0       _mbsdec                    000000018003eca0 f   libucrt:mbsdec.obj
 0001:0003dca8       _mbsdec_l                  000000018003eca8 f   libucrt:mbsdec.obj
 0001:0003dd3c       __acrt_GetStringTypeA      000000018003ed3c f   libucrt:getstringtypea.obj
 0001:0003e1e4       __acrt_LCMapStringA        000000018003f1e4 f   libucrt:lcmapstringa.obj
 0001:0003e294       _msize_base                000000018003f294 f   libucrt:msize.obj
 0001:0003e2d0       _realloc_base              000000018003f2d0 f   libucrt:realloc_base.obj
 0001:0003e34c       __acrt_DownlevelLocaleNameToLCID 000000018003f34c f   libucrt:lcidtoname_downlevel.obj
 0001:0003e3fc       __acrt_lowio_create_handle_array 000000018003f3fc f   libucrt:osfinfo.obj
 0001:0003e4a4       __acrt_lowio_destroy_handle_array 000000018003f4a4 f   libucrt:osfinfo.obj
 0001:0003e4f4       __acrt_lowio_ensure_fh_exists 000000018003f4f4 f   libucrt:osfinfo.obj
 0001:0003e59c       __acrt_lowio_lock_fh       000000018003f59c f   libucrt:osfinfo.obj
 0001:0003e5c4       __acrt_lowio_unlock_fh     000000018003f5c4 f   libucrt:osfinfo.obj
 0001:0003e5ec       _free_osfhnd               000000018003f5ec f   libucrt:osfinfo.obj
 0001:0003e6a8       _get_osfhandle             000000018003f6a8 f   libucrt:osfinfo.obj
 0001:0003e7ac       _commit                    000000018003f7ac f   libucrt:commit.obj
 0001:0003f0a0       _write                     00000001800400a0 f   libucrt:write.obj
 0001:0003f18c       _write_nolock              000000018004018c f   libucrt:write.obj
 0001:0003f468       _fcloseall                 0000000180040468 f   libucrt:closeall.obj
 0001:0003f51c       __acrt_stdio_free_buffer_nolock 000000018004051c f   libucrt:_freebuf.obj
 0001:0003f55c       _isatty                    000000018004055c f   libucrt:isatty.obj
 0001:0003f5bc       _isleadbyte_l              00000001800405bc f i libucrt:_wctype.obj
 0001:0003f608       ?__mbrtowc_utf8@__crt_mbstring@@YA_KPEA_WPEBD_KPEAU_Mbstatet@@@Z 0000000180040608 f   libucrt:mbrtowc.obj
 0001:0003f644       ?__mbsrtowcs_utf8@__crt_mbstring@@YA_KPEA_WPEAPEBD_KPEAU_Mbstatet@@@Z 0000000180040644 f   libucrt:mbrtowc.obj
 0001:0003f7bc       ?__c32rtomb_utf8@__crt_mbstring@@YA_KPEAD_UPEAU_Mbstatet@@@Z 00000001800407bc f   libucrt:c32rtomb.obj
 0001:0003f870       __acrt_fp_strflt_to_string 0000000180040870 f   libucrt:_fptostr.obj
 0001:0003f960       ?divide@__crt_strtox@@YA_KAEAUbig_integer@1@AEBU21@@Z 0000000180040960 f i libucrt:cfout.obj
 0001:0003fd8c       __acrt_fltout              0000000180040d8c f   libucrt:cfout.obj
 0001:00041048       __acrt_locale_free_monetary 0000000180042048 f   libucrt:initmon.obj
 0001:00041154       __acrt_locale_free_numeric 0000000180042154 f   libucrt:initnum.obj
 0001:00041218       __acrt_locale_free_time    0000000180042218 f   libucrt:inittime.obj
 0001:00041320       __strncnt                  0000000180042320 f   libucrt:strncnt.obj
 0001:00041338       __ascii_wcsnicmp           0000000180042338 f   libucrt:wcsnicmp.obj
 0001:00041384       _query_app_type            0000000180042384 f   libucrt:report_runtime_error.obj
 0001:00041428       _lseeki64_nolock           0000000180042428 f   libucrt:lseek.obj
 0001:00041430       _putwch_nolock             0000000180042430 f   libucrt:putwch.obj
 0001:0004146c       _fclose_nolock             000000018004246c f   libucrt:fclose.obj
 0001:000414f0       fclose                     00000001800424f0 f   libucrt:fclose.obj
 0001:00041554       ?__mbrtoc32_utf8@__crt_mbstring@@YA_KPEA_UPEBD_KPEAU_Mbstatet@@@Z 0000000180042554 f   libucrt:mbrtoc32.obj
 0001:00041730       fegetenv                   0000000180042730 f   libucrt:fegetenv.obj
 0001:00041750       fesetenv                   0000000180042750 f   libucrt:fesetenv.obj
 0001:0004179c       feholdexcept               000000018004279c f   libucrt:feholdexcept.obj
 0001:000417ec       ceil                       00000001800427ec f   libucrt:ceil.obj
 0001:000418b0       log10                      00000001800428b0 f   libucrt:log10.obj
 0001:00041e5c       __acrt_fenv_get_control    0000000180042e5c f   libucrt:_fenvutils.obj
 0001:00041f50       __acrt_fenv_get_status     0000000180042f50 f   libucrt:_fenvutils.obj
 0001:00041fa4       __acrt_fenv_set_control    0000000180042fa4 f   libucrt:_fenvutils.obj
 0001:000420ec       __acrt_fenv_set_status     00000001800430ec f   libucrt:_fenvutils.obj
 0001:00042170       __dcrt_lowio_ensure_console_output_initialized 0000000180043170 f   libucrt:initcon.obj
 0001:000421c4       __dcrt_terminate_console_output 00000001800431c4 f   libucrt:initcon.obj
 0001:000421e0       __dcrt_write_console       00000001800431e0 f   libucrt:initcon.obj
 0001:00042314       _close                     0000000180043314 f   libucrt:close.obj
 0001:000423b8       _close_nolock              00000001800433b8 f   libucrt:close.obj
 0001:00042478       ?__acrt_stdio_free_stream@@YAXV__crt_stdio_stream@@@Z 0000000180043478 f   libucrt:stream.obj
 0001:00042494       _clearfp                   0000000180043494 f   libucrt:ieee.obj
 0001:00042510       _log10_special             0000000180043510 f   libucrt:log_special.obj
 0001:000425c6       IsProcessorFeaturePresent  00000001800435c6 f   kernel32:KERNEL32.dll
 0001:000425d0       _FindPESection             00000001800435d0 f   LIBCMT:pesect.obj
 0001:00042620       _IsNonwritableInCurrentImage 0000000180043620 f   LIBCMT:pesect.obj
 0001:00042670       _ValidateImageBase         0000000180043670 f   LIBCMT:pesect.obj
 0001:000426a0       __GSHandlerCheck           00000001800436a0 f   LIBCMT:gshandler.obj
 0001:000426c0       __GSHandlerCheckCommon     00000001800436c0 f   LIBCMT:gshandler.obj
 0001:00042730       __security_check_cookie    0000000180043730 f   LIBCMT:amdsecgs.obj
 0001:00042754       __GSHandlerCheck_SEH       0000000180043754 f   LIBCMT:gshandlerseh.obj
 0001:000427dc       __raise_securityfailure    00000001800437dc f   LIBCMT:gs_report.obj
 0001:00042810       __report_gsfailure         0000000180043810 f   LIBCMT:gs_report.obj
 0001:000428e4       __report_rangecheckfailure 00000001800438e4 f   LIBCMT:gs_report.obj
 0001:000428f8       __report_securityfailure   00000001800438f8 f   LIBCMT:gs_report.obj
 0001:00042a78       strrchr                    0000000180043a78 f   libvcruntime:strrchr.obj
 0001:00042bc0       memcmp                     0000000180043bc0 f   libvcruntime:memcmp.obj
 0001:00042ca0       _guard_dispatch_icall_nop  0000000180043ca0 f   LIBCMT:guard_dispatch.obj
 0001:00042cc0       _guard_xfg_dispatch_icall_nop 0000000180043cc0 f   LIBCMT:guard_xfg_dispatch.obj
 0002:00000000       __imp_LoadLibraryA         0000000180045000     kernel32:KERNEL32.dll
 0002:00000008       __imp_WriteConsoleW        0000000180045008     kernel32:KERNEL32.dll
 0002:00000010       __imp_RaiseException       0000000180045010     kernel32:KERNEL32.dll
 0002:00000018       __imp_GetLastError         0000000180045018     kernel32:KERNEL32.dll
 0002:00000020       __imp_GetSystemInfo        0000000180045020     kernel32:KERNEL32.dll
 0002:00000028       __imp_VirtualProtect       0000000180045028     kernel32:KERNEL32.dll
 0002:00000030       __imp_VirtualQuery         0000000180045030     kernel32:KERNEL32.dll
 0002:00000038       __imp_FreeLibrary          0000000180045038     kernel32:KERNEL32.dll
 0002:00000040       __imp_GetModuleHandleW     0000000180045040     kernel32:KERNEL32.dll
 0002:00000048       __imp_GetProcAddress       0000000180045048     kernel32:KERNEL32.dll
 0002:00000050       __imp_LoadLibraryExA       0000000180045050     kernel32:KERNEL32.dll
 0002:00000058       __imp_InitializeSListHead  0000000180045058     kernel32:KERNEL32.dll
 0002:00000060       __imp_QueryPerformanceCounter 0000000180045060     kernel32:KERNEL32.dll
 0002:00000068       __imp_GetCurrentProcessId  0000000180045068     kernel32:KERNEL32.dll
 0002:00000070       __imp_GetCurrentThreadId   0000000180045070     kernel32:KERNEL32.dll
 0002:00000078       __imp_GetSystemTimeAsFileTime 0000000180045078     kernel32:KERNEL32.dll
 0002:00000080       __imp_RtlCaptureContext    0000000180045080     kernel32:KERNEL32.dll
 0002:00000088       __imp_RtlLookupFunctionEntry 0000000180045088     kernel32:KERNEL32.dll
 0002:00000090       __imp_RtlVirtualUnwind     0000000180045090     kernel32:KERNEL32.dll
 0002:00000098       __imp_IsDebuggerPresent    0000000180045098     kernel32:KERNEL32.dll
 0002:000000a0       __imp_UnhandledExceptionFilter 00000001800450a0     kernel32:KERNEL32.dll
 0002:000000a8       __imp_SetUnhandledExceptionFilter 00000001800450a8     kernel32:KERNEL32.dll
 0002:000000b0       __imp_GetStartupInfoW      00000001800450b0     kernel32:KERNEL32.dll
 0002:000000b8       __imp_IsProcessorFeaturePresent 00000001800450b8     kernel32:KERNEL32.dll
 0002:000000c0       __imp_InterlockedPushEntrySList 00000001800450c0     kernel32:KERNEL32.dll
 0002:000000c8       __imp_InterlockedFlushSList 00000001800450c8     kernel32:KERNEL32.dll
 0002:000000d0       __imp_RtlUnwindEx          00000001800450d0     kernel32:KERNEL32.dll
 0002:000000d8       __imp_SetLastError         00000001800450d8     kernel32:KERNEL32.dll
 0002:000000e0       __imp_EnterCriticalSection 00000001800450e0     kernel32:KERNEL32.dll
 0002:000000e8       __imp_LeaveCriticalSection 00000001800450e8     kernel32:KERNEL32.dll
 0002:000000f0       __imp_DeleteCriticalSection 00000001800450f0     kernel32:KERNEL32.dll
 0002:000000f8       __imp_InitializeCriticalSectionAndSpinCount 00000001800450f8     kernel32:KERNEL32.dll
 0002:00000100       __imp_TlsAlloc             0000000180045100     kernel32:KERNEL32.dll
 0002:00000108       __imp_TlsGetValue          0000000180045108     kernel32:KERNEL32.dll
 0002:00000110       __imp_TlsSetValue          0000000180045110     kernel32:KERNEL32.dll
 0002:00000118       __imp_TlsFree              0000000180045118     kernel32:KERNEL32.dll
 0002:00000120       __imp_LoadLibraryExW       0000000180045120     kernel32:KERNEL32.dll
 0002:00000128       __imp_EncodePointer        0000000180045128     kernel32:KERNEL32.dll
 0002:00000130       __imp_RtlPcToFileHeader    0000000180045130     kernel32:KERNEL32.dll
 0002:00000138       __imp_GetCurrentProcess    0000000180045138     kernel32:KERNEL32.dll
 0002:00000140       __imp_ExitProcess          0000000180045140     kernel32:KERNEL32.dll
 0002:00000148       __imp_TerminateProcess     0000000180045148     kernel32:KERNEL32.dll
 0002:00000150       __imp_GetModuleHandleExW   0000000180045150     kernel32:KERNEL32.dll
 0002:00000158       __imp_GetModuleFileNameW   0000000180045158     kernel32:KERNEL32.dll
 0002:00000160       __imp_HeapFree             0000000180045160     kernel32:KERNEL32.dll
 0002:00000168       __imp_HeapAlloc            0000000180045168     kernel32:KERNEL32.dll
 0002:00000170       __imp_FindClose            0000000180045170     kernel32:KERNEL32.dll
 0002:00000178       __imp_FindFirstFileExW     0000000180045178     kernel32:KERNEL32.dll
 0002:00000180       __imp_FindNextFileW        0000000180045180     kernel32:KERNEL32.dll
 0002:00000188       __imp_IsValidCodePage      0000000180045188     kernel32:KERNEL32.dll
 0002:00000190       __imp_GetACP               0000000180045190     kernel32:KERNEL32.dll
 0002:00000198       __imp_GetOEMCP             0000000180045198     kernel32:KERNEL32.dll
 0002:000001a0       __imp_GetCPInfo            00000001800451a0     kernel32:KERNEL32.dll
 0002:000001a8       __imp_GetCommandLineA      00000001800451a8     kernel32:KERNEL32.dll
 0002:000001b0       __imp_GetCommandLineW      00000001800451b0     kernel32:KERNEL32.dll
 0002:000001b8       __imp_MultiByteToWideChar  00000001800451b8     kernel32:KERNEL32.dll
 0002:000001c0       __imp_WideCharToMultiByte  00000001800451c0     kernel32:KERNEL32.dll
 0002:000001c8       __imp_GetEnvironmentStringsW 00000001800451c8     kernel32:KERNEL32.dll
 0002:000001d0       __imp_FreeEnvironmentStringsW 00000001800451d0     kernel32:KERNEL32.dll
 0002:000001d8       __imp_LCMapStringW         00000001800451d8     kernel32:KERNEL32.dll
 0002:000001e0       __imp_GetProcessHeap       00000001800451e0     kernel32:KERNEL32.dll
 0002:000001e8       __imp_GetStdHandle         00000001800451e8     kernel32:KERNEL32.dll
 0002:000001f0       __imp_GetFileType          00000001800451f0     kernel32:KERNEL32.dll
 0002:000001f8       __imp_GetStringTypeW       00000001800451f8     kernel32:KERNEL32.dll
 0002:00000200       __imp_HeapSize             0000000180045200     kernel32:KERNEL32.dll
 0002:00000208       __imp_HeapReAlloc          0000000180045208     kernel32:KERNEL32.dll
 0002:00000210       __imp_SetStdHandle         0000000180045210     kernel32:KERNEL32.dll
 0002:00000218       __imp_FlushFileBuffers     0000000180045218     kernel32:KERNEL32.dll
 0002:00000220       __imp_WriteFile            0000000180045220     kernel32:KERNEL32.dll
 0002:00000228       __imp_GetConsoleCP         0000000180045228     kernel32:KERNEL32.dll
 0002:00000230       __imp_GetConsoleMode       0000000180045230     kernel32:KERNEL32.dll
 0002:00000238       __imp_SetFilePointerEx     0000000180045238     kernel32:KERNEL32.dll
 0002:00000240       __imp_CreateFileW          0000000180045240     kernel32:KERNEL32.dll
 0002:00000248       __imp_CloseHandle          0000000180045248     kernel32:KERNEL32.dll
 0002:00000250       \177KERNEL32_NULL_THUNK_DATA 0000000180045250     kernel32:KERNEL32.dll
 0002:00000258       __guard_check_icall_fptr   0000000180045258     LIBCMT:guard_support.obj
 0002:00000260       __guard_xfg_check_icall_fptr 0000000180045260     LIBCMT:guard_support.obj
 0002:00000268       __guard_dispatch_icall_fptr 0000000180045268     LIBCMT:guard_support.obj
 0002:00000270       __guard_xfg_dispatch_icall_fptr 0000000180045270     LIBCMT:guard_support.obj
 0002:00000278       __guard_xfg_table_dispatch_icall_fptr 0000000180045278     LIBCMT:guard_support.obj
 0002:00000280       __xc_a                     0000000180045280     LIBCMT:initializers.obj
 0002:00000468       __xc_z                     0000000180045468     LIBCMT:initializers.obj
 0002:00000470       __xi_a                     0000000180045470     LIBCMT:initializers.obj
 0002:00000478       __acrt_tran_fma3_initializer 0000000180045478     libucrt:fma3_initializer.obj
 0002:00000480       __acrt_multibyte_initializer 0000000180045480     libucrt:multibyte_initializer.obj
 0002:00000488       __acrt_stdio_initializer   0000000180045488     libucrt:stdio_initializer.obj
 0002:00000490       __xi_z                     0000000180045490     LIBCMT:initializers.obj
 0002:00000498       __xp_a                     0000000180045498     LIBCMT:initializers.obj
 0002:000004a0       __acrt_locale_terminator   00000001800454a0     libucrt:locale_initializer.obj
 0002:000004a8       __dcrt_console_output_terminator 00000001800454a8     libucrt:console_output_initializer.obj
 0002:000004b0       __acrt_stdio_terminator    00000001800454b0     libucrt:stdio_initializer.obj
 0002:000004b8       __xp_z                     00000001800454b8     LIBCMT:initializers.obj
 0002:000004c0       __xt_a                     00000001800454c0     LIBCMT:initializers.obj
 0002:000004c8       __xt_z                     00000001800454c8     LIBCMT:initializers.obj
 0002:000004d0       ??_7PxFoundation@physx@@6B@ 00000001800454d0     Adjacencies.obj
 0002:00000510       ??_C@_0FC@OJOJBFID@C?3?2VisualStudioProjects?2PhysX?2P@ 0000000180045510     Adjacencies.obj
 0002:00000568       ??_C@_0DA@FMEHLBKI@Adjacencies?3?3UpdateLink?3?5invali@ 0000000180045568     Adjacencies.obj
 0002:000005a0       ??_C@_0EA@CPHOACLK@Adjacencies?3?3CreateDatabase?3?5ca@ 00000001800455a0     Adjacencies.obj
 0002:000005e0       ??_C@_0BM@OIFKLHDN@?$DMallocation?5names?5disabled?$DO@ 00000001800455e0     Adjacencies.obj
 0002:00000620       ?sBufferSize@DebugText@Cm@physx@@2HB 0000000180045620     Cooking.obj
 0002:00000624       ??_C@_06EJKDJEDO@PxBase@   0000000180045624     Cooking.obj
 0002:00000630       ??_C@_0N@CDGINLLF@PxConvexMesh@ 0000000180045630     Cooking.obj
 0002:00000640       ??_C@_0O@PBAKPCEC@PxHeightField@ 0000000180045640     Cooking.obj
 0002:00000650       ??_7PxBase@physx@@6B@      0000000180045650     Cooking.obj
 0002:00000678       ??_7PxCooking@physx@@6B@   0000000180045678     Cooking.obj
 0002:000006f8       ??_7Cooking@physx@@6B@     00000001800456f8     Cooking.obj
 0002:00000780       ??_C@_0FC@PJIHAFK@Cooking?3?3validateTriangleMesh?3?5@ 0000000180045780     Cooking.obj
 0002:000007e0       ??_C@_0EO@FLBBDOEA@C?3?2VisualStudioProjects?2PhysX?2P@ 00000001800457e0     Cooking.obj
 0002:00000830       ??_C@_0EK@EKAIJEBL@Cooking?3?3cookConvexMesh?3?5user?9p@ 0000000180045830     Cooking.obj
 0002:00000880       ??_C@_0FA@GFFGAPML@Cooking?3?3cookConvexMesh?3?5provid@ 0000000180045880     Cooking.obj
 0002:000008d0       ??_C@_0EP@PKDCPNNO@Cooking?3?3cookConvexMesh?3?5provid@ 00000001800458d0     Cooking.obj
 0002:00000920       ??_C@_0EO@LKFMMDE@Cooking?3?3cookConvexMesh?3?5user?9p@ 0000000180045920     Cooking.obj
 0002:00000970       ??_C@_0EO@FAHJFKCN@C?3?2VisualStudioProjects?2PhysX?2P@ 0000000180045970     Cooking.obj
 0002:000009c0       __real@3f800000            00000001800459c0     Cooking.obj
 0002:000009d0       __xmm@000000003a83126f3a83126f3a83126f 00000001800459d0     Cooking.obj
 0002:000009e0       __xmm@00000000ba83126fba83126fba83126f 00000001800459e0     Cooking.obj
 0002:000009f0       __xmm@3a83126f3a83126f3a83126f3a83126f 00000001800459f0     Cooking.obj
 0002:00000a00       __xmm@80000000800000008000000080000000 0000000180045a00     Cooking.obj
 0002:00000a10       __xmm@ba83126fba83126fba83126fba83126f 0000000180045a10     Cooking.obj
 0002:00000a20       ??_C@_0BA@DLCJDKDM@NonTrackedAlloc@ 0000000180045a20     CookingUtils.obj
 0002:00000a30       ??_C@_0FD@KIDELACP@C?3?2VisualStudioProjects?2PhysX?2P@ 0000000180045a30     CookingUtils.obj
 0002:00000a90       ??_C@_0EP@DCCNLKEN@C?3?2VisualStudioProjects?2PhysX?2P@ 0000000180045a90     EdgeList.obj
 0002:00000ae0       ??_C@_0CO@GBNJFPN@EdgeList?3?3CreateFacesToEdges?3?5N@ 0000000180045ae0     EdgeList.obj
 0002:00000b10       ??_C@_0CO@EHJBBMNK@EdgeList?3?3ComputeActiveEdges?3?5N@ 0000000180045b10     EdgeList.obj
 0002:00000b40       ??_C@_0DI@GBHLFOFP@ActiveEdges?3?3ComputeConvexEdges@ 0000000180045b40     EdgeList.obj
 0002:00000b78       ??_C@_0DM@JOGBLHDI@ActiveEdges?3?3ComputeConvexEdges@ 0000000180045b78     EdgeList.obj
 0002:00000bc0       ??_C@_0ED@FEMJKPEL@ActiveEdges?3?3ComputeConvexEdges@ 0000000180045bc0     EdgeList.obj
 0002:00000c10       ??_C@_0EB@BFDPMFCD@ActiveEdges?3?3ComputeConvexEdges@ 0000000180045c10     EdgeList.obj
 0002:00000c54       __real@bf7fbe77            0000000180045c54     EdgeList.obj
 0002:00000c60       __xmm@7fffffff7fffffff7fffffff7fffffff 0000000180045c60     EdgeList.obj
 0002:00000c70       ??_C@_0FC@MMLCDINH@C?3?2VisualStudioProjects?2PhysX?2P@ 0000000180045c70     MeshCleaner.obj
 0002:00000cc4       __real@3f000000            0000000180045cc4     MeshCleaner.obj
 0002:00000cc8       ??_7Quantizer@physx@@6B@   0000000180045cc8     Quantizer.obj
 0002:00000cf0       ??_7QuantizerImpl@@6B@     0000000180045cf0     Quantizer.obj
 0002:00000d20       ??_C@_0FA@MBLCGFHF@C?3?2VisualStudioProjects?2PhysX?2P@ 0000000180045d20     Quantizer.obj
 0002:00000d70       __real@38d1b717            0000000180045d70     Quantizer.obj
 0002:00000d74       __real@3c23d70a            0000000180045d74     Quantizer.obj
 0002:00000d78       __real@3f0020c5            0000000180045d78     Quantizer.obj
 0002:00000d7c       __real@3f8020c5            0000000180045d7c     Quantizer.obj
 0002:00000d80       __real@7f7fffff            0000000180045d80     Quantizer.obj
 0002:00000d84       __real@fe7fffff            0000000180045d84     Quantizer.obj
 0002:00000d90       __xmm@fe7fffff7e7fffff7e7fffff7e7fffff 0000000180045d90     Quantizer.obj
 0002:00000dc0       ??_C@_0FK@EHGNKHHM@C?3?2VisualStudioProjects?2PhysX?2P@ 0000000180045dc0     BVHStructureBuilder.obj
 0002:00000e20       __xmm@3ba3d70a3ba3d70a3ba3d70a3ba3d70a 0000000180045e20     BVHStructureBuilder.obj
 0002:00000e50       ?reductionFactors@SubSortQuick@physx@@2QBMB 0000000180045e50     RTreeCooking.obj
 0002:00000e60       ?stopAtTrisPerLeaf1@SubSortQuick@physx@@2QBIB 0000000180045e60     RTreeCooking.obj
 0002:00000f10       ??_C@_0FI@PBKFGPPM@C?3?2VisualStudioProjects?2PhysX?2P@ 0000000180045f10     RTreeCooking.obj
 0002:00000f70       ??_C@_0EN@NIFMBDKD@C?3?2VisualStudioProjects?2PhysX?2P@ 0000000180045f70     RTreeCooking.obj
 0002:00000fc0       ??_C@_0FG@CEMHFJHM@C?3?2VisualStudioProjects?2PhysX?2P@ 0000000180045fc0     RTreeCooking.obj
 0002:00001018       __real@37800080            0000000180046018     RTreeCooking.obj
 0002:0000101c       __real@41100000            000000018004601c     RTreeCooking.obj
 0002:00001020       __real@41700000            0000000180046020     RTreeCooking.obj
 0002:00001024       __real@42200000            0000000180046024     RTreeCooking.obj
 0002:00001028       __real@ff7fffff            0000000180046028     RTreeCooking.obj
 0002:00001030       __xmm@00000004000000030000000200000001 0000000180046030     RTreeCooking.obj
 0002:00001040       __xmm@3a03126f3a03126f3a03126f3a03126f 0000000180046040     RTreeCooking.obj
 0002:00001050       __xmm@7f7fffff7f7fffff7f7fffff7f7fffff 0000000180046050     RTreeCooking.obj
 0002:00001060       __xmm@ff7fffffff7fffffff7fffffff7fffff 0000000180046060     RTreeCooking.obj
 0002:00001090       __real@34800000            0000000180046090     MeshBuilder.obj
 0002:000010c0       ??_7MeshDataBase@Gu@physx@@6B@ 00000001800460c0     TriangleMeshBuilder.obj
 0002:000010d0       ??_C@_0FB@KLJDBAHE@C?3?2VisualStudioProjects?2PhysX?2P@ 00000001800460d0     TriangleMeshBuilder.obj
 0002:00001128       ??_7TriangleMeshData@Gu@physx@@6B@ 0000000180046128     TriangleMeshBuilder.obj
 0002:00001130       ??_7RTreeTriangleData@Gu@physx@@6B@ 0000000180046130     TriangleMeshBuilder.obj
 0002:00001138       ??_7BV4TriangleData@Gu@physx@@6B@ 0000000180046138     TriangleMeshBuilder.obj
 0002:00001140       ??_7RemapCallback@RTreeCooker@physx@@6B@ 0000000180046140     TriangleMeshBuilder.obj
 0002:00001150       ??_7TriangleMeshBuilder@physx@@6B@ 0000000180046150     TriangleMeshBuilder.obj
 0002:00001178       ??_7RTreeTriangleMeshBuilder@physx@@6B@ 0000000180046178     TriangleMeshBuilder.obj
 0002:000011a0       ??_7BV4TriangleMeshBuilder@physx@@6B@ 00000001800461a0     TriangleMeshBuilder.obj
 0002:000011d0       ??_C@_0GA@FOJGDDHH@C?3?2VisualStudioProjects?2PhysX?2P@ 00000001800461d0     TriangleMeshBuilder.obj
 0002:00001230       ??_C@_0FP@HHCMCIGF@C?3?2VisualStudioProjects?2PhysX?2P@ 0000000180046230     TriangleMeshBuilder.obj
 0002:00001290       ??_C@_0DJ@IGODLHLP@TriangleMesh?3?5Enable?5mesh?5weldi@ 0000000180046290     TriangleMeshBuilder.obj
 0002:000012d0       ??_C@_0FJ@HHJLKGDF@TriangleMesh?3?5triangles?5are?5too@ 00000001800462d0     TriangleMeshBuilder.obj
 0002:00001330       ??_C@_0CN@KGPHHHLK@TriangleMesh?3?5mesh?5is?5too?5big?5f@ 0000000180046330     TriangleMeshBuilder.obj
 0002:00001360       ??_C@_0DD@CMJGDCNN@TriangleMesh?3?3loadFromDesc?3?5des@ 0000000180046360     TriangleMeshBuilder.obj
 0002:000013a0       ??_C@_0ED@ILJJNHIP@TriangleMesh?3?3loadFromDesc?3?5mPa@ 00000001800463a0     TriangleMeshBuilder.obj
 0002:000013e8       ??_C@_0BJ@BKHDBBHO@cleaning?5the?5mesh?5failed@ 00000001800463e8     TriangleMeshBuilder.obj
 0002:00001408       ??_C@_0BK@JIDHMMCE@BV4?5tree?5failed?5to?5build?4@ 0000000180046408     TriangleMeshBuilder.obj
 0002:00001428       ??_C@_0BL@DHNECNBE@BV32?5tree?5failed?5to?5build?4@ 0000000180046428     TriangleMeshBuilder.obj
 0002:00001448       ??_7RTreeCookerRemap@physx@@6B@ 0000000180046448     TriangleMeshBuilder.obj
 0002:00001458       __real@3951b717            0000000180046458     TriangleMeshBuilder.obj
 0002:0000145c       __real@3dcccccd            000000018004645c     TriangleMeshBuilder.obj
 0002:00001460       __real@48742400            0000000180046460     TriangleMeshBuilder.obj
 0002:00001470       __xmm@00000003000000020000000100000000 0000000180046470     TriangleMeshBuilder.obj
 0002:000014a0       ??_C@_0GC@BMPOJEMF@C?3?2VisualStudioProjects?2PhysX?2P@ 00000001800464a0     BigConvexDataBuilder.obj
 0002:00001504       __real@40000000            0000000180046504     BigConvexDataBuilder.obj
 0002:00001530       ??_C@_0FP@OFJCMKAA@C?3?2VisualStudioProjects?2PhysX?2P@ 0000000180046530     ConvexHullBuilder.obj
 0002:00001590       ??_C@_0EB@DCEIFDGC@ConvexHullBuilder?3?3init?3?5convex@ 0000000180046590     ConvexHullBuilder.obj
 0002:000015e0       ??_C@_0FM@KICBLCBH@Gu?3?3ConvexMesh?3?3checkHullPolygo@ 00000001800465e0     ConvexHullBuilder.obj
 0002:00001640       ??_C@_0GO@HBFIOGLL@Gu?3?3ConvexMesh?3?3checkHullPolygo@ 0000000180046640     ConvexHullBuilder.obj
 0002:000016b0       ??_C@_0HF@OLJFBIEL@ConvexHullBuilder?3?5convex?5hull?5@ 00000001800466b0     ConvexHullBuilder.obj
 0002:00001730       ??_C@_0OG@JNHFOIL@ConvexHullBuilder?3?5convex?5hull?5@ 0000000180046730     ConvexHullBuilder.obj
 0002:00001820       ??_C@_0EJ@NIOIBAKH@Cooking?3?3cookConvexMesh?3?5non?9ma@ 0000000180046820     ConvexHullBuilder.obj
 0002:0000186c       __real@3ca3d70a            000000018004686c     ConvexHullBuilder.obj
 0002:00001870       __real@3eaaaaab            0000000180046870     ConvexHullBuilder.obj
 0002:00001878       ??_7ConvexHullLib@physx@@6B@ 0000000180046878     ConvexHullLib.obj
 0002:000018a0       ??_C@_0FL@JOBCPMBJ@C?3?2VisualStudioProjects?2PhysX?2P@ 00000001800468a0     ConvexHullLib.obj
 0002:00001900       ??_C@_0JE@PABBNGEL@ConvexHullLib?3?3cleanupVertices?3@ 0000000180046900     ConvexHullLib.obj
 0002:00001994       __real@358637bd            0000000180046994     ConvexHullLib.obj
 0002:00001998       __real@3d4ccccd            0000000180046998     ConvexHullLib.obj
 0002:000019c0       ??_C@_0FN@JKFGGENJ@C?3?2VisualStudioProjects?2PhysX?2P@ 00000001800469c0     ConvexHullUtils.obj
 0002:00001a20       __real@3e20d97c            0000000180046a20     ConvexHullUtils.obj
 0002:00001a30       __xmm@00800000008000000080000000800000 0000000180046a30     ConvexHullUtils.obj
 0002:00001a40       __xmm@3f0000003f0000003f0000003f000000 0000000180046a40     ConvexHullUtils.obj
 0002:00001a50       __xmm@bf000000bf000000bf000000bf000000 0000000180046a50     ConvexHullUtils.obj
 0002:00001a80       ??_C@_0DF@LLFJIJGM@Gu?3?3ConvexMesh?3?3loadFromDesc?3?5d@ 0000000180046a80     ConvexMeshBuilder.obj
 0002:00001ac0       ??_C@_0FP@CLDGGKFF@C?3?2VisualStudioProjects?2PhysX?2P@ 0000000180046ac0     ConvexMeshBuilder.obj
 0002:00001b20       ??_C@_0HK@JOGKIEAA@Gu?3?3ConvexMesh?3?5Mesh?5has?5a?5nega@ 0000000180046b20     ConvexMeshBuilder.obj
 0002:00001ba0       ??_C@_0DH@NJPPHFFD@Gu?3?3ConvexMesh?3?5Error?5computing@ 0000000180046ba0     ConvexMeshBuilder.obj
 0002:00001bd8       ??_C@_0DJ@LJDLGLDJ@Gu?3?3ConvexMesh?3?3loadConvexHull?3@ 0000000180046bd8     ConvexMeshBuilder.obj
 0002:00001c20       ??_C@_0HJ@KJANPPOE@ConvexMeshBuilder?3?3computeHullP@ 0000000180046c20     ConvexMeshBuilder.obj
 0002:00001c9c       ??_C@_06KDGGGLIJ@PxVec3@   0000000180046c9c     ConvexMeshBuilder.obj
 0002:00001ca4       ??_C@_05LMJPANIN@PxU32@    0000000180046ca4     ConvexMeshBuilder.obj
 0002:00001cb0       ??_C@_0O@JMAGMMGG@PxHullPolygon@ 0000000180046cb0     ConvexMeshBuilder.obj
 0002:00001cc0       __real@33d6bf95            0000000180046cc0     ConvexMeshBuilder.obj
 0002:00001cc4       __real@3f13cd3a            0000000180046cc4     ConvexMeshBuilder.obj
 0002:00001cc8       __real@b3d6bf95            0000000180046cc8     ConvexMeshBuilder.obj
 0002:00001ccc       __real@bf800000            0000000180046ccc     ConvexMeshBuilder.obj
 0002:00001cd0       __xmm@80000000000000008000000000000000 0000000180046cd0     ConvexMeshBuilder.obj
 0002:00001ce0       ??_C@_0DP@PJBJBEGF@Meshmerizer?3?3extractHullPolygon@ 0000000180046ce0     ConvexPolygonsBuilder.obj
 0002:00001d20       ??_C@_0GD@GPLMHAOE@C?3?2VisualStudioProjects?2PhysX?2P@ 0000000180046d20     ConvexPolygonsBuilder.obj
 0002:00001d88       ??_C@_0DL@IAFKOCCK@ConvexHullBuilder?3?5convex?5hull?5@ 0000000180046d88     ConvexPolygonsBuilder.obj
 0002:00001dd0       ??_C@_0GF@OJLJHAMH@ConvexHullBuilder?3?3CreateTriang@ 0000000180046dd0     ConvexPolygonsBuilder.obj
 0002:00001e38       __real@3ba3d70a            0000000180046e38     ConvexPolygonsBuilder.obj
 0002:00001e40       ??_7QuickHullConvexHullLib@physx@@6B@ 0000000180046e40     QuickHullConvexHullLib.obj
 0002:00001e60       ??_C@_0GE@EMIJLBAF@C?3?2VisualStudioProjects?2PhysX?2P@ 0000000180046e60     QuickHullConvexHullLib.obj
 0002:00001ed0       ??_C@_0GA@EPPAEJPM@QuickHullConvexHullLib?3?3findSim@ 0000000180046ed0     QuickHullConvexHullLib.obj
 0002:00001f30       ??_C@_0FB@NEBIJMML@QuickHullConvexHullLib?3?3findSim@ 0000000180046f30     QuickHullConvexHullLib.obj
 0002:00001f90       ??_C@_0FB@CLLCBEMM@QuickHullConvexHullLib?3?3findSim@ 0000000180046f90     QuickHullConvexHullLib.obj
 0002:00001fe4       __real@34c00000            0000000180046fe4     QuickHullConvexHullLib.obj
 0002:00001fe8       __real@3e800000            0000000180046fe8     QuickHullConvexHullLib.obj
 0002:00002010       __real@00000000            0000000180047010     VolumeIntegration.obj
 0002:00002018       __real@3fe0000000000000    0000000180047018     VolumeIntegration.obj
 0002:00002020       __real@3ff0000000000000    0000000180047020     VolumeIntegration.obj
 0002:00002030       __xmm@3c0888893c0888893c0888893c088889 0000000180047030     VolumeIntegration.obj
 0002:00002040       __xmm@3c8888893c8888893c8888893c888889 0000000180047040     VolumeIntegration.obj
 0002:00002050       __xmm@3d2aaaab3d2aaaab3d2aaaab3d2aaaab 0000000180047050     VolumeIntegration.obj
 0002:00002060       __xmm@3e2aaaab3e2aaaab3e2aaaab3e2aaaab 0000000180047060     VolumeIntegration.obj
 0002:00002070       __xmm@3f811111111111113f81111111111111 0000000180047070     VolumeIntegration.obj
 0002:00002080       __xmm@3f811111111111113f91111111111111 0000000180047080     VolumeIntegration.obj
 0002:00002090       __xmm@3f911111111111113f91111111111111 0000000180047090     VolumeIntegration.obj
 0002:000020a0       __xmm@3fa55555555555553fa5555555555555 00000001800470a0     VolumeIntegration.obj
 0002:000020b0       __xmm@3fa55555555555553fc5555555555555 00000001800470b0     VolumeIntegration.obj
 0002:000020c0       ??_C@_0BA@EGLNOO@PhysXFoundation@ 00000001800470c0     WindowsCookingDelayLoadHook.obj
 0002:000020d0       ??_C@_0M@ILKNCJKN@PhysXCommon@ 00000001800470d0     WindowsCookingDelayLoadHook.obj
 0002:000020e0       __sz_PhysXCommon_64_dll    00000001800470e0     PhysXCommon_64:PhysXCommon_64.dll
 0002:00002100       __sz_PhysXFoundation_64_dll 0000000180047100     PhysXFoundation_64:PhysXFoundation_64.dll
 0002:00002118       ??_C@_1BK@DBDEIDLH@?$AAK?$AAE?$AAR?$AAN?$AAE?$AAL?$AA3?$AA2?$AA?4?$AAD?$AAL?$AAL@ 0000000180047118     Delayimp:delayhlp.obj
 0002:00002138       ??_C@_0BI@OMNLIJDB@AcquireSRWLockExclusive@ 0000000180047138     Delayimp:delayhlp.obj
 0002:00002150       ??_C@_0BI@HMIEPCNJ@ReleaseSRWLockExclusive@ 0000000180047150     Delayimp:delayhlp.obj
 0002:00002168       __pfnDliFailureHook2       0000000180047168     Delayimp:delayhk1.obj
 0002:00002178       ??_7type_info@@6B@         0000000180047178     LIBCMT:std_type_info_static.obj
 0002:000021e0       _pRawDllMain               00000001800471e0     LIBCMT:dll_dllmain.obj
 0002:000021e0       _pDefaultRawDllMain        00000001800471e0     LIBCMT:dll_dllmain.obj
 0002:000021f0       _load_config_used          00000001800471f0     LIBCMT:loadcfg.obj
 0002:00002320       __xmm@ffffffffffffffffffffffffffffffff 0000000180047320     LIBCMT:utility.obj
 0002:00002330       _pDestructExceptionObject  0000000180047330     libvcruntime:ehhelpers.obj
 0002:00002a40       ??_C@_08EHJDFFNH@__based?$CI@ 0000000180047a40     libvcruntime:undname.obj
 0002:00002a50       ??_C@_07KOLFKCDI@__cdecl@  0000000180047a50     libvcruntime:undname.obj
 0002:00002a58       ??_C@_08GHMPAG@__pascal@   0000000180047a58     libvcruntime:undname.obj
 0002:00002a68       ??_C@_09IFJBGAPI@__stdcall@ 0000000180047a68     libvcruntime:undname.obj
 0002:00002a78       ??_C@_0L@NPHFGOKO@__thiscall@ 0000000180047a78     libvcruntime:undname.obj
 0002:00002a88       ??_C@_0L@JMKHOMEK@__fastcall@ 0000000180047a88     libvcruntime:undname.obj
 0002:00002a98       ??_C@_0N@BCKKPABJ@__vectorcall@ 0000000180047a98     libvcruntime:undname.obj
 0002:00002aa8       ??_C@_09HIJEGCPM@__clrcall@ 0000000180047aa8     libvcruntime:undname.obj
 0002:00002ab4       ??_C@_06GHPCKEAG@__eabi@   0000000180047ab4     libvcruntime:undname.obj
 0002:00002ac0       ??_C@_09IOPIDJLG@__swift_1@ 0000000180047ac0     libvcruntime:undname.obj
 0002:00002ad0       ??_C@_09KFNFGKHF@__swift_2@ 0000000180047ad0     libvcruntime:undname.obj
 0002:00002ae0       ??_C@_07JOMMBBKO@__ptr64@  0000000180047ae0     libvcruntime:undname.obj
 0002:00002ae8       ??_C@_0L@PILCLIHE@__restrict@ 0000000180047ae8     libvcruntime:undname.obj
 0002:00002af8       ??_C@_0M@GFIIJFMG@__unaligned@ 0000000180047af8     libvcruntime:undname.obj
 0002:00002b08       ??_C@_09DHDLOLLB@restrict?$CI@ 0000000180047b08     libvcruntime:undname.obj
 0002:00002b12       ??_C@_00CNPNBAHC@@         0000000180047b12     libvcruntime:undname.obj
 0002:00002b14       ??_C@_04NIHEBCM@?5new@     0000000180047b14     libvcruntime:undname.obj
 0002:00002b20       ??_C@_07FPCDHGMM@?5delete@ 0000000180047b20     libvcruntime:undname.obj
 0002:00002b28       ??_C@_01NEMOKFLO@?$DN@     0000000180047b28     libvcruntime:undname.obj
 0002:00002b2c       ??_C@_02GPIOPFAK@?$DO?$DO@ 0000000180047b2c     libvcruntime:undname.obj
 0002:00002b30       ??_C@_02FODMEDOG@?$DM?$DM@ 0000000180047b30     libvcruntime:undname.obj
 0002:00002b34       ??_C@_01DCLJPIOD@?$CB@     0000000180047b34     libvcruntime:undname.obj
 0002:00002b38       ??_C@_02EGOFBIJA@?$DN?$DN@ 0000000180047b38     libvcruntime:undname.obj
 0002:00002b3c       ??_C@_02FDNJECIE@?$CB?$DN@ 0000000180047b3c     libvcruntime:undname.obj
 0002:00002b40       ??_C@_02GPECMEKF@?$FL?$FN@ 0000000180047b40     libvcruntime:undname.obj
 0002:00002b48       ??_C@_08LHJFAFGD@operator@ 0000000180047b48     libvcruntime:undname.obj
 0002:00002b54       ??_C@_02HBOOOICD@?9?$DO@   0000000180047b54     libvcruntime:undname.obj
 0002:00002b58       ??_C@_01NBENCBCI@?$CK@     0000000180047b58     libvcruntime:undname.obj
 0002:00002b5c       ??_C@_02ECNGHCIF@?$CL?$CL@ 0000000180047b5c     libvcruntime:undname.obj
 0002:00002b60       ??_C@_02BAABKJLB@?9?9@     0000000180047b60     libvcruntime:undname.obj
 0002:00002b64       ??_C@_01JOAMLHOP@?9@       0000000180047b64     libvcruntime:undname.obj
 0002:00002b68       ??_C@_01MIFGBAGJ@?$CL@     0000000180047b68     libvcruntime:undname.obj
 0002:00002b6c       ??_C@_01HNPIGOCE@?$CG@     0000000180047b6c     libvcruntime:undname.obj
 0002:00002b70       ??_C@_03MNHNFDLC@?9?$DO?$CK@ 0000000180047b70     libvcruntime:undname.obj
 0002:00002b74       ??_C@_01KMDKNFGN@?1@       0000000180047b74     libvcruntime:undname.obj
 0002:00002b78       ??_C@_01FGNFDNOH@?$CF@     0000000180047b78     libvcruntime:undname.obj
 0002:00002b7c       ??_C@_01MNNFJEPP@?$DM@     0000000180047b7c     libvcruntime:undname.obj
 0002:00002b80       ??_C@_02EHCHHCKH@?$DM?$DN@ 0000000180047b80     libvcruntime:undname.obj
 0002:00002b84       ??_C@_01PPODPGHN@?$DO@     0000000180047b84     libvcruntime:undname.obj
 0002:00002b88       ??_C@_02EEKDKGMJ@?$DO?$DN@ 0000000180047b88     libvcruntime:undname.obj
 0002:00002b8c       ??_C@_01IHBHIGKO@?0@       0000000180047b8c     libvcruntime:undname.obj
 0002:00002b90       ??_C@_02HCKGKOFO@?$CI?$CJ@ 0000000180047b90     libvcruntime:undname.obj
 0002:00002b94       ??_C@_01PJKLJHI@?$HO@      0000000180047b94     libvcruntime:undname.obj
 0002:00002b98       ??_C@_01JKBOJNNK@?$FO@     0000000180047b98     libvcruntime:undname.obj
 0002:00002b9c       ??_C@_01DNKMNLPK@?$HM@     0000000180047b9c     libvcruntime:undname.obj
 0002:00002ba0       ??_C@_02PPKAJPJL@?$CG?$CG@ 0000000180047ba0     libvcruntime:undname.obj
 0002:00002ba4       ??_C@_02NONPIBCD@?$HM?$HM@ 0000000180047ba4     libvcruntime:undname.obj
 0002:00002ba8       ??_C@_02FPIMKNGF@?$CK?$DN@ 0000000180047ba8     libvcruntime:undname.obj
 0002:00002bac       ??_C@_02FOEOMHFC@?$CL?$DN@ 0000000180047bac     libvcruntime:undname.obj
 0002:00002bb0       ??_C@_02FKMDLLOA@?9?$DN@   0000000180047bb0     libvcruntime:undname.obj
 0002:00002bb4       ??_C@_02FJEHGPIO@?1?$DN@   0000000180047bb4     libvcruntime:undname.obj
 0002:00002bb8       ??_C@_02FENAOKFI@?$CF?$DN@ 0000000180047bb8     libvcruntime:undname.obj
 0002:00002bbc       ??_C@_03IKFCCPFF@?$DO?$DO?$DN@ 0000000180047bbc     libvcruntime:undname.obj
 0002:00002bc0       ??_C@_03CDNPDDLA@?$DM?$DM?$DN@ 0000000180047bc0     libvcruntime:undname.obj
 0002:00002bc4       ??_C@_02FGJGFEAB@?$CG?$DN@ 0000000180047bc4     libvcruntime:undname.obj
 0002:00002bc8       ??_C@_02DHLNPPGH@?$HM?$DN@ 0000000180047bc8     libvcruntime:undname.obj
 0002:00002bcc       ??_C@_02MHEGNOJ@?$FO?$DN@  0000000180047bcc     libvcruntime:undname.obj
 0002:00002bd0       ??_C@_09IFPLHPGF@?$GAvftable?8@ 0000000180047bd0     libvcruntime:undname.obj
 0002:00002be0       ??_C@_09BLBHBJP@?$GAvbtable?8@ 0000000180047be0     libvcruntime:undname.obj
 0002:00002bf0       ??_C@_07FEEIOKP@?$GAvcall?8@ 0000000180047bf0     libvcruntime:undname.obj
 0002:00002bf8       ??_C@_08LLFFHHDJ@?$GAtypeof?8@ 0000000180047bf8     libvcruntime:undname.obj
 0002:00002c08       ??_C@_0BF@KDPPACIK@?$GAlocal?5static?5guard?8@ 0000000180047c08     libvcruntime:undname.obj
 0002:00002c20       ??_C@_08OBABFOLI@?$GAstring?8@ 0000000180047c20     libvcruntime:undname.obj
 0002:00002c30       ??_C@_0BD@JDLKDPAB@?$GAvbase?5destructor?8@ 0000000180047c30     libvcruntime:undname.obj
 0002:00002c48       ??_C@_0BN@DEGPLNFK@?$GAvector?5deleting?5destructor?8@ 0000000180047c48     libvcruntime:undname.obj
 0002:00002c68       ??_C@_0BO@OBMKPJIG@?$GAdefault?5constructor?5closure?8@ 0000000180047c68     libvcruntime:undname.obj
 0002:00002c88       ??_C@_0BN@IMDCHIKM@?$GAscalar?5deleting?5destructor?8@ 0000000180047c88     libvcruntime:undname.obj
 0002:00002ca8       ??_C@_0BO@PFGOCPJJ@?$GAvector?5constructor?5iterator?8@ 0000000180047ca8     libvcruntime:undname.obj
 0002:00002cc8       ??_C@_0BN@LFPFMEDL@?$GAvector?5destructor?5iterator?8@ 0000000180047cc8     libvcruntime:undname.obj
 0002:00002ce8       ??_C@_0CE@IKBNEHA@?$GAvector?5vbase?5constructor?5itera@ 0000000180047ce8     libvcruntime:undname.obj
 0002:00002d10       ??_C@_0BL@NILFHHPC@?$GAvirtual?5displacement?5map?8@ 0000000180047d10     libvcruntime:undname.obj
 0002:00002d30       ??_C@_0CB@JONCMFFK@?$GAeh?5vector?5constructor?5iterator@ 0000000180047d30     libvcruntime:undname.obj
 0002:00002d58       ??_C@_0CA@GCEOPDGL@?$GAeh?5vector?5destructor?5iterator?8@ 0000000180047d58     libvcruntime:undname.obj
 0002:00002d78       ??_C@_0CH@OOJPLCPH@?$GAeh?5vector?5vbase?5constructor?5it@ 0000000180047d78     libvcruntime:undname.obj
 0002:00002da0       ??_C@_0BL@LLKPOHJI@?$GAcopy?5constructor?5closure?8@ 0000000180047da0     libvcruntime:undname.obj
 0002:00002dc0       ??_C@_0BA@KBCDOMBN@?$GAudt?5returning?8@ 0000000180047dc0     libvcruntime:undname.obj
 0002:00002dd0       ??_C@_03KLGMFNMG@?$GAEH@   0000000180047dd0     libvcruntime:undname.obj
 0002:00002dd4       ??_C@_05KHLCHHI@?$GARTTI@  0000000180047dd4     libvcruntime:undname.obj
 0002:00002de0       ??_C@_0BA@KKLDJDLB@?$GAlocal?5vftable?8@ 0000000180047de0     libvcruntime:undname.obj
 0002:00002df0       ??_C@_0CE@IIHCMGGL@?$GAlocal?5vftable?5constructor?5clos@ 0000000180047df0     libvcruntime:undname.obj
 0002:00002e14       ??_C@_06FHBGPFGH@?5new?$FL?$FN@ 0000000180047e14     libvcruntime:undname.obj
 0002:00002e20       ??_C@_09LBNFPBCA@?5delete?$FL?$FN@ 0000000180047e20     libvcruntime:undname.obj
 0002:00002e30       ??_C@_0P@HJKNJFNN@?$GAomni?5callsig?8@ 0000000180047e30     libvcruntime:undname.obj
 0002:00002e40       ??_C@_0BL@CNOONJFP@?$GAplacement?5delete?5closure?8@ 0000000180047e40     libvcruntime:undname.obj
 0002:00002e60       ??_C@_0BN@CKNJLHMB@?$GAplacement?5delete?$FL?$FN?5closure?8@ 0000000180047e60     libvcruntime:undname.obj
 0002:00002e80       ??_C@_0CG@CFDHKGGD@?$GAmanaged?5vector?5constructor?5ite@ 0000000180047e80     libvcruntime:undname.obj
 0002:00002ea8       ??_C@_0CF@IMGKMJNO@?$GAmanaged?5vector?5destructor?5iter@ 0000000180047ea8     libvcruntime:undname.obj
 0002:00002ed0       ??_C@_0CG@HLDDJMAG@?$GAeh?5vector?5copy?5constructor?5ite@ 0000000180047ed0     libvcruntime:undname.obj
 0002:00002ef8       ??_C@_0CM@FCBBDIGB@?$GAeh?5vector?5vbase?5copy?5construct@ 0000000180047ef8     libvcruntime:undname.obj
 0002:00002f28       ??_C@_0BL@CLIPGLGB@?$GAdynamic?5initializer?5for?5?8@ 0000000180047f28     libvcruntime:undname.obj
 0002:00002f48       ??_C@_0CB@PDBIFEP@?$GAdynamic?5atexit?5destructor?5for?5@ 0000000180047f48     libvcruntime:undname.obj
 0002:00002f70       ??_C@_0CD@CGAJBKEJ@?$GAvector?5copy?5constructor?5iterat@ 0000000180047f70     libvcruntime:undname.obj
 0002:00002f98       ??_C@_0CJ@GJELGAMM@?$GAvector?5vbase?5copy?5constructor?5@ 0000000180047f98     libvcruntime:undname.obj
 0002:00002fc8       ??_C@_0CL@FGIJHLCE@?$GAmanaged?5vector?5copy?5constructo@ 0000000180047fc8     libvcruntime:undname.obj
 0002:00002ff8       ??_C@_0BM@PMGGMLDN@?$GAlocal?5static?5thread?5guard?8@ 0000000180047ff8     libvcruntime:undname.obj
 0002:00003018       ??_C@_0N@BDNMDMOL@operator?5?$CC?$CC?5@ 0000000180048018     libvcruntime:undname.obj
 0002:00003028       ??_C@_0BC@GGEBGALA@operator?5co_await@ 0000000180048028     libvcruntime:undname.obj
 0002:00003040       ??_C@_0M@GAAIMMOH@operator?$DM?$DN?$DO@ 0000000180048040     libvcruntime:undname.obj
 0002:00003050       ??_C@_0BC@DAFEJGAK@?5Type?5Descriptor?8@ 0000000180048050     libvcruntime:undname.obj
 0002:00003068       ??_C@_0BM@LDKODKLH@?5Base?5Class?5Descriptor?5at?5?$CI@ 0000000180048068     libvcruntime:undname.obj
 0002:00003088       ??_C@_0BD@LGICGFMM@?5Base?5Class?5Array?8@ 0000000180048088     libvcruntime:undname.obj
 0002:000030a0       ??_C@_0BN@MECKDCOJ@?5Class?5Hierarchy?5Descriptor?8@ 00000001800480a0     libvcruntime:undname.obj
 0002:000030c0       ??_C@_0BK@CFCOFLF@?5Complete?5Object?5Locator?8@ 00000001800480c0     libvcruntime:undname.obj
 0002:000030e0       ??_C@_0BG@JNJLAMPM@?$GAanonymous?5namespace?8@ 00000001800480e0     libvcruntime:undname.obj
 0002:000030f8       ??_C@_04HEJADOOB@CV?3?5@   00000001800480f8     libvcruntime:undname.obj
 0002:00003100       ??_C@_02MOLJINC@?3?3@      0000000180048100     libvcruntime:undname.obj
 0002:00003108       ??_C@_0BE@JAEOCHPE@template?9parameter?9@ 0000000180048108     libvcruntime:undname.obj
 0002:00003120       ??_C@_0BF@LNLGBBNL@?$GAtemplate?9parameter?9@ 0000000180048120     libvcruntime:undname.obj
 0002:00003138       ??_C@_0O@KHGCOMHP@generic?9type?9@ 0000000180048138     libvcruntime:undname.obj
 0002:00003148       ??_C@_0P@ODDENDLM@?$GAgeneric?9type?9@ 0000000180048148     libvcruntime:undname.obj
 0002:00003158       ??_C@_02OHHJMEON@?8?8@     0000000180048158     libvcruntime:undname.obj
 0002:00003160       ??_C@_0BN@IBLMMFAP@?$GAnon?9type?9template?9parameter@ 0000000180048160     libvcruntime:undname.obj
 0002:00003180       ??_C@_03DLDNIBIK@?$CFlf@   0000000180048180     libvcruntime:undname.obj
 0002:00003184       ??_C@_04OFALKAJ@?$DP?$DP_C@ 0000000180048184     libvcruntime:undname.obj
 0002:0000318c       ??_C@_03KHICJKCI@?4?4?4@   000000018004818c     libvcruntime:undname.obj
 0002:00003190       ??_C@_04HIBGFPH@NULL@      0000000180048190     libvcruntime:undname.obj
 0002:00003198       ??_C@_02DPKJAMEF@?$CFd@    0000000180048198     libvcruntime:undname.obj
 0002:000031a0       ??_C@_0BK@IHCCFNEL@?$GAtemplate?9type?9parameter?9@ 00000001800481a0     libvcruntime:undname.obj
 0002:000031c0       ??_C@_0BK@OFCNNNKO@?$GAgeneric?9class?9parameter?9@ 00000001800481c0     libvcruntime:undname.obj
 0002:000031e0       ??_C@_0BL@NGJBLFIL@?$GAgeneric?9method?9parameter?9@ 00000001800481e0     libvcruntime:undname.obj
 0002:000031fc       ??_C@_04GKJNKENE@void@     00000001800481fc     libvcruntime:undname.obj
 0002:00003208       ??_C@_0BE@EODMJLIF@?$GAtemplate?9parameter@ 0000000180048208     libvcruntime:undname.obj
 0002:0000321c       ??_C@_03OPGICMGF@?$HN?8?5@ 000000018004821c     libvcruntime:undname.obj
 0002:00003220       ??_C@_02IGFCGPIL@?$HN?8@   0000000180048220     libvcruntime:undname.obj
 0002:00003228       ??_C@_0N@CBHHHENL@?$GAvtordispex?$HL@ 0000000180048228     libvcruntime:undname.obj
 0002:00003238       ??_C@_0L@GHPFDFH@?$GAvtordisp?$HL@ 0000000180048238     libvcruntime:undname.obj
 0002:00003248       ??_C@_0L@HNGCOGAE@?$GAadjustor?$HL@ 0000000180048248     libvcruntime:undname.obj
 0002:00003258       ??_C@_0CB@KJDOOODE@?$GAlocal?5static?5destructor?5helper@ 0000000180048258     libvcruntime:undname.obj
 0002:00003280       ??_C@_0DB@ILEFOCIJ@?$GAtemplate?5static?5data?5member?5co@ 0000000180048280     libvcruntime:undname.obj
 0002:000032b8       ??_C@_0DA@HGFJFBBE@?$GAtemplate?5static?5data?5member?5de@ 00000001800482b8     libvcruntime:undname.obj
 0002:000032e8       ??_C@_07PGOEDBHP@static?5@ 00000001800482e8     libvcruntime:undname.obj
 0002:000032f0       ??_C@_08NIEOINHE@virtual?5@ 00000001800482f0     libvcruntime:undname.obj
 0002:00003300       ??_C@_09LAPHOOG@private?3?5@ 0000000180048300     libvcruntime:undname.obj
 0002:00003310       ??_C@_0M@GAIFPFIP@protected?3?5@ 0000000180048310     libvcruntime:undname.obj
 0002:00003320       ??_C@_08GPDDCMKI@public?3?5@ 0000000180048320     libvcruntime:undname.obj
 0002:00003330       ??_C@_08KJLFOPNE@?$FLthunk?$FN?3@ 0000000180048330     libvcruntime:undname.obj
 0002:00003340       ??_C@_0M@DHNBOJMP@extern?5?$CCC?$CC?5@ 0000000180048340     libvcruntime:undname.obj
 0002:0000334c       ??_C@_02KCKGHPCA@?$CJ?5@   000000018004834c     libvcruntime:undname.obj
 0002:00003350       ??_C@_05CIHEBHNO@char?5@   0000000180048350     libvcruntime:undname.obj
 0002:00003358       ??_C@_06EHJMALKF@short?5@  0000000180048358     libvcruntime:undname.obj
 0002:00003360       ??_C@_04LAHKHJMA@int?5@    0000000180048360     libvcruntime:undname.obj
 0002:00003368       ??_C@_05CJIMAING@long?5@   0000000180048368     libvcruntime:undname.obj
 0002:00003370       ??_C@_09EBBEKKIH@unsigned?5@ 0000000180048370     libvcruntime:undname.obj
 0002:0000337c       ??_C@_05BEFAKPML@void?5@   000000018004837c     libvcruntime:undname.obj
 0002:00003388       ??_C@_09GAIEOBLP@volatile?5@ 0000000180048388     libvcruntime:undname.obj
 0002:00003398       ??_C@_08PABEKFH@volatile@  0000000180048398     libvcruntime:undname.obj
 0002:000033a8       ??_C@_0BA@LKIJLKPP@std?3?3nullptr_t?5@ 00000001800483a8     libvcruntime:undname.obj
 0002:000033b8       ??_C@_0P@GCOCNKDM@std?3?3nullptr_t@ 00000001800483b8     libvcruntime:undname.obj
 0002:000033c8       ??_C@_0L@EGPHHEKN@?$DMellipsis?$DO@ 00000001800483c8     libvcruntime:undname.obj
 0002:000033d4       ??_C@_04EENFHACM@?0?4?4?4@ 00000001800483d4     libvcruntime:undname.obj
 0002:000033e0       ??_C@_0M@ELJOJFFH@?0?$DMellipsis?$DO@ 00000001800483e0     libvcruntime:undname.obj
 0002:000033f0       ??_C@_09DNHFEOJI@?5noexcept@ 00000001800483f0     libvcruntime:undname.obj
 0002:000033fc       ??_C@_03PBJBJNON@cpu@      00000001800483fc     libvcruntime:undname.obj
 0002:00003400       ??_C@_03DCBBJBAA@amp@      0000000180048400     libvcruntime:undname.obj
 0002:00003404       ??_C@_02KEGNLNML@?0?5@     0000000180048404     libvcruntime:undname.obj
 0002:00003408       ??_C@_04ENMBGAPA@char@     0000000180048408     libvcruntime:undname.obj
 0002:00003410       ??_C@_05BFKKPKCG@short@    0000000180048410     libvcruntime:undname.obj
 0002:00003418       ??_C@_03JBIPMCLC@int@      0000000180048418     libvcruntime:undname.obj
 0002:0000341c       ??_C@_04GOKPGOLB@long@     000000018004841c     libvcruntime:undname.obj
 0002:00003424       ??_C@_05KNFBNCOH@float@    0000000180048424     libvcruntime:undname.obj
 0002:0000342c       ??_C@_06BNJCAIGJ@double@   000000018004842c     libvcruntime:undname.obj
 0002:00003434       ??_C@_04DDKJGDCM@bool@     0000000180048434     libvcruntime:undname.obj
 0002:0000343c       ??_C@_06EBGKOKIG@__int8@   000000018004843c     libvcruntime:undname.obj
 0002:00003448       ??_C@_07ICFHOGAF@__int16@  0000000180048448     libvcruntime:undname.obj
 0002:00003450       ??_C@_07OFLPPHGP@__int32@  0000000180048450     libvcruntime:undname.obj
 0002:00003458       ??_C@_07LFCOJCAC@__int64@  0000000180048458     libvcruntime:undname.obj
 0002:00003460       ??_C@_08GAHOLHEO@__int128@ 0000000180048460     libvcruntime:undname.obj
 0002:00003470       ??_C@_09EEKGDCPH@?$DMunknown?$DO@ 0000000180048470     libvcruntime:undname.obj
 0002:00003480       ??_C@_07CFHGOPCN@char8_t@  0000000180048480     libvcruntime:undname.obj
 0002:00003488       ??_C@_08HBIPOFJB@char16_t@ 0000000180048488     libvcruntime:undname.obj
 0002:00003498       ??_C@_08IECNCBKG@char32_t@ 0000000180048498     libvcruntime:undname.obj
 0002:000034a8       ??_C@_07CLGGIAMF@wchar_t@  00000001800484a8     libvcruntime:undname.obj
 0002:000034b0       ??_C@_06GCICPBLB@__w64?5@  00000001800484b0     libvcruntime:undname.obj
 0002:000034b8       ??_C@_07NFANNNEC@UNKNOWN@  00000001800484b8     libvcruntime:undname.obj
 0002:000034c0       ??_C@_07EDHNAJHC@signed?5@ 00000001800484c0     libvcruntime:undname.obj
 0002:000034c8       ??_C@_05BNCCCJPP@const@    00000001800484c8     libvcruntime:undname.obj
 0002:000034d0       ??_C@_09EFNPDFFP@?5volatile@ 00000001800484d0     libvcruntime:undname.obj
 0002:000034e0       ??_C@_0P@GCIFDJCJ@?$GAunknown?5ecsu?8@ 00000001800484e0     libvcruntime:undname.obj
 0002:000034f0       ??_C@_06MOJHIBMG@union?5@  00000001800484f0     libvcruntime:undname.obj
 0002:000034f8       ??_C@_07DIBCDNGL@struct?5@ 00000001800484f8     libvcruntime:undname.obj
 0002:00003500       ??_C@_06LJBABKPM@class?5@  0000000180048500     libvcruntime:undname.obj
 0002:00003508       ??_C@_08KOFANOFK@coclass?5@ 0000000180048508     libvcruntime:undname.obj
 0002:00003518       ??_C@_0N@DLIEFKNA@cointerface?5@ 0000000180048518     libvcruntime:undname.obj
 0002:00003528       ??_C@_05LJGMCFOG@enum?5@   0000000180048528     libvcruntime:undname.obj
 0002:00003530       ??_C@_06LIJLOJAG@const?5@  0000000180048530     libvcruntime:undname.obj
 0002:00003538       ??_C@_02KJPKDIBN@?$CG?5@   0000000180048538     libvcruntime:undname.obj
 0002:0000353c       ??_C@_03PCKGMOPB@?$CG?$CG?5@ 000000018004853c     libvcruntime:undname.obj
 0002:00003540       ??_C@_0M@EALIELKG@cli?3?3array?$DM@ 0000000180048540     libvcruntime:undname.obj
 0002:00003550       ??_C@_0O@GKABPPIF@cli?3?3pin_ptr?$DM@ 0000000180048550     libvcruntime:undname.obj
 0002:00003560       ??_C@_02GOGNNPBN@?$CJ?$FL@ 0000000180048560     libvcruntime:undname.obj
 0002:00003564       ??_C@_06EEGAIFAK@?$HLflat?$HN@ 0000000180048564     libvcruntime:undname.obj
 0002:0000356c       ??_C@_05JIBOFOHK@?$HLfor?5@ 000000018004856c     libvcruntime:undname.obj
 0002:00003574       ??_C@_02MDINNEEG@s?5@      0000000180048574     libvcruntime:undname.obj
 0002:00003580       ??_7charNode@@6B@          0000000180048580     libvcruntime:undname.obj
 0002:000035a8       ??_7pcharNode@@6B@         00000001800485a8     libvcruntime:undname.obj
 0002:000035d0       ??_7pDNameNode@@6B@        00000001800485d0     libvcruntime:undname.obj
 0002:000035f8       ??_7DNameStatusNode@@6B@   00000001800485f8     libvcruntime:undname.obj
 0002:00003620       ??_7pairNode@@6B@          0000000180048620     libvcruntime:undname.obj
 0002:00003740       ??_C@_04OKOHEJBO@?5?$DP?$DP?5@ 0000000180048740     libvcruntime:undname.obj
 0002:00003750       ?nodes@?1??make@DNameStatusNode@@SAPEBV2@W4DNameStatus@@@Z@4QBV2@B 0000000180048750     libvcruntime:undname.obj
 0002:00003790       ?s_negLengthTab@FH4@@3QBCB 0000000180048790     libvcruntime:risctrnsctrl.obj
 0002:000037a0       ?s_shiftTab@FH4@@3QBEB     00000001800487a0     libvcruntime:risctrnsctrl.obj
 0002:00003860       ??_C@_1DM@KHCHBNEB@?$AAa?$AAp?$AAi?$AA?9?$AAm?$AAs?$AA?9?$AAw?$AAi?$AAn?$AA?9?$AAc?$AAo?$AAr?$AAe@ 0000000180048860     libvcruntime:winapi_downlevel.obj
 0002:000038a0       ??_C@_1DK@LPPGFMPP@?$AAa?$AAp?$AAi?$AA?9?$AAm?$AAs?$AA?9?$AAw?$AAi?$AAn?$AA?9?$AAc?$AAo?$AAr?$AAe@ 00000001800488a0     libvcruntime:winapi_downlevel.obj
 0002:000038e0       ??_C@_1BC@GDMECMAK@?$AAk?$AAe?$AAr?$AAn?$AAe?$AAl?$AA3?$AA2@ 00000001800488e0     libvcruntime:winapi_downlevel.obj
 0002:000038f8       ??_C@_1BA@PFFKHIOG@?$AAa?$AAp?$AAi?$AA?9?$AAm?$AAs?$AA?9@ 00000001800488f8     libvcruntime:winapi_downlevel.obj
 0002:00003910       ??_C@_08KNHFBNJ@FlsAlloc@  0000000180048910     libvcruntime:winapi_downlevel.obj
 0002:00003928       ??_C@_07PEJMOBNF@FlsFree@  0000000180048928     libvcruntime:winapi_downlevel.obj
 0002:00003938       ??_C@_0M@GDNOONDI@FlsGetValue@ 0000000180048938     libvcruntime:winapi_downlevel.obj
 0002:00003950       ??_C@_0M@JCPCPOEF@FlsSetValue@ 0000000180048950     libvcruntime:winapi_downlevel.obj
 0002:00003968       ??_C@_0BM@HCFOFFN@InitializeCriticalSectionEx@ 0000000180048968     libvcruntime:winapi_downlevel.obj
 0002:00003990       ??_7exception@std@@6B@     0000000180048990     libvcruntime:frame.obj
 0002:000039a0       ??_C@_0BC@EOODALEL@Unknown?5exception@ 00000001800489a0     libvcruntime:frame.obj
 0002:000039c0       ??_7bad_exception@std@@6B@ 00000001800489c0     libvcruntime:frame.obj
 0002:000039d0       ??_C@_0O@DPKOEFFH@bad?5exception@ 00000001800489d0     libvcruntime:frame.obj
 0002:00004168       __real@3f1a36e2eb1c432d    0000000180049168     libucrt:atan2f.obj
 0002:00004170       __real@3f490fdb            0000000180049170     libucrt:atan2f.obj
 0002:00004178       __real@3fb0000000000000    0000000180049178     libucrt:atan2f.obj
 0002:00004180       __real@3fc2492482bd6be1    0000000180049180     libucrt:atan2f.obj
 0002:00004188       __real@3fc90fdb            0000000180049188     libucrt:atan2f.obj
 0002:00004190       __real@3fc99999999643a3    0000000180049190     libucrt:atan2f.obj
 0002:00004198       __real@3fd5555555550877    0000000180049198     libucrt:atan2f.obj
 0002:000041a0       __real@3fd5555555555538    00000001800491a0     libucrt:atan2f.obj
 0002:000041a8       __real@3ff921fb54442d18    00000001800491a8     libucrt:atan2f.obj
 0002:000041b0       __real@400921fb54442d18    00000001800491b0     libucrt:atan2f.obj
 0002:000041b8       __real@4016cbe4            00000001800491b8     libucrt:atan2f.obj
 0002:000041bc       __real@40490fdb            00000001800491bc     libucrt:atan2f.obj
 0002:000041c0       __real@4070000000000000    00000001800491c0     libucrt:atan2f.obj
 0002:000041c8       __real@80000000            00000001800491c8     libucrt:atan2f.obj
 0002:000041cc       __real@bf490fdb            00000001800491cc     libucrt:atan2f.obj
 0002:000041d0       __real@bfc90fdb            00000001800491d0     libucrt:atan2f.obj
 0002:000041d4       __real@c016cbe4            00000001800491d4     libucrt:atan2f.obj
 0002:000041d8       __real@c0490fdb            00000001800491d8     libucrt:atan2f.obj
 0002:00004430       __acrt_exception_action_table 0000000180049430     libucrt:exception_filter.obj
 0002:000044f0       __acrt_signal_action_table_count 00000001800494f0     libucrt:exception_filter.obj
 0002:000044f8       __acrt_signal_action_first_fpe_index 00000001800494f8     libucrt:exception_filter.obj
 0002:00004500       __acrt_signal_action_fpe_count 0000000180049500     libucrt:exception_filter.obj
 0002:00004508       ??_C@_1BI@BGOHAHKC@?$AAm?$AAs?$AAc?$AAo?$AAr?$AAe?$AAe?$AA?4?$AAd?$AAl?$AAl@ 0000000180049508     libucrt:exit.obj
 0002:00004520       ??_C@_0P@MIGLKIOC@CorExitProcess@ 0000000180049520     libucrt:exit.obj
 0002:00004630       format_validation_lookup_table 0000000180049630     libucrt:output.obj
 0002:00004690       ??_C@_1O@CEDCILHN@?$AA?$CI?$AAn?$AAu?$AAl?$AAl?$AA?$CJ@ 0000000180049690     libucrt:output.obj
 0002:000046a0       ??_C@_06OJHGLDPL@?$CInull?$CJ@ 00000001800496a0     libucrt:output.obj
 0002:00004820       ??_C@_04LAGPAAHP@sinf@     0000000180049820     libucrt:sincos_special.obj
 0002:00004828       ??_C@_04OBBKPIAC@cosf@     0000000180049828     libucrt:sincos_special.obj
 0002:00004830       __Lcosfarray               0000000180049830     libucrt:lsincosf_array.obj
 0002:00004860       __Lsinfarray               0000000180049860     libucrt:lsincosf_array.obj
 0002:00004880       __L_2_by_pi_bits           0000000180049880     libucrt:l2_by_pi_bits.obj
 0002:00004b58       ??_C@_1M@HPNHIDJI@?$AAj?$AAa?$AA?9?$AAJ?$AAP@ 0000000180049b58     libucrt:mbctype.obj
 0002:00004b68       ??_C@_1M@BIBDDEMK@?$AAz?$AAh?$AA?9?$AAC?$AAN@ 0000000180049b68     libucrt:mbctype.obj
 0002:00004b78       ??_C@_1M@JLOOOEGK@?$AAk?$AAo?$AA?9?$AAK?$AAR@ 0000000180049b78     libucrt:mbctype.obj
 0002:00004b88       ??_C@_1M@CLNBBOPM@?$AAz?$AAh?$AA?9?$AAT?$AAW@ 0000000180049b88     libucrt:mbctype.obj
 0002:00004c40       ??_C@_1EA@JGEFHKEI@?$AAa?$AAp?$AAi?$AA?9?$AAm?$AAs?$AA?9?$AAw?$AAi?$AAn?$AA?9?$AAc?$AAo?$AAr?$AAe@ 0000000180049c40     libucrt:winapi_thunks.obj
 0002:00004c80       ??_C@_1DI@IJCEHOCB@?$AAa?$AAp?$AAi?$AA?9?$AAm?$AAs?$AA?9?$AAw?$AAi?$AAn?$AA?9?$AAc?$AAo?$AAr?$AAe@ 0000000180049c80     libucrt:winapi_thunks.obj
 0002:00004cc0       ??_C@_1EI@MPIAOHOC@?$AAa?$AAp?$AAi?$AA?9?$AAm?$AAs?$AA?9?$AAw?$AAi?$AAn?$AA?9?$AAc?$AAo?$AAr?$AAe@ 0000000180049cc0     libucrt:winapi_thunks.obj
 0002:00004d10       ??_C@_1FK@FPHCKFIE@?$AAa?$AAp?$AAi?$AA?9?$AAm?$AAs?$AA?9?$AAw?$AAi?$AAn?$AA?9?$AAc?$AAo?$AAr?$AAe@ 0000000180049d10     libucrt:winapi_thunks.obj
 0002:00004d70       ??_C@_1EM@DILCGIIO@?$AAa?$AAp?$AAi?$AA?9?$AAm?$AAs?$AA?9?$AAw?$AAi?$AAn?$AA?9?$AAc?$AAo?$AAr?$AAe@ 0000000180049d70     libucrt:winapi_thunks.obj
 0002:00004dc0       ??_C@_1DM@LNCGDDPN@?$AAa?$AAp?$AAi?$AA?9?$AAm?$AAs?$AA?9?$AAw?$AAi?$AAn?$AA?9?$AAc?$AAo?$AAr?$AAe@ 0000000180049dc0     libucrt:winapi_thunks.obj
 0002:00004e00       ??_C@_1DO@FPAPJEMD@?$AAa?$AAp?$AAi?$AA?9?$AAm?$AAs?$AA?9?$AAw?$AAi?$AAn?$AA?9?$AAc?$AAo?$AAr?$AAe@ 0000000180049e00     libucrt:winapi_thunks.obj
 0002:00004e40       ??_C@_1DK@NDHNAHIO@?$AAa?$AAp?$AAi?$AA?9?$AAm?$AAs?$AA?9?$AAw?$AAi?$AAn?$AA?9?$AAc?$AAo?$AAr?$AAe@ 0000000180049e40     libucrt:winapi_thunks.obj
 0002:00004e80       ??_C@_1DM@KGHDGBCM@?$AAa?$AAp?$AAi?$AA?9?$AAm?$AAs?$AA?9?$AAw?$AAi?$AAn?$AA?9?$AAc?$AAo?$AAr?$AAe@ 0000000180049e80     libucrt:winapi_thunks.obj
 0002:00004ec0       ??_C@_1EO@IJIOEFOH@?$AAa?$AAp?$AAi?$AA?9?$AAm?$AAs?$AA?9?$AAw?$AAi?$AAn?$AA?9?$AAr?$AAt?$AAc?$AAo@ 0000000180049ec0     libucrt:winapi_thunks.obj
 0002:00004f10       ??_C@_1FG@HHGEKANL@?$AAa?$AAp?$AAi?$AA?9?$AAm?$AAs?$AA?9?$AAw?$AAi?$AAn?$AA?9?$AAs?$AAe?$AAc?$AAu@ 0000000180049f10     libucrt:winapi_thunks.obj
 0002:00004f70       ??_C@_1EG@DBIOJECG@?$AAe?$AAx?$AAt?$AA?9?$AAm?$AAs?$AA?9?$AAw?$AAi?$AAn?$AA?9?$AAn?$AAt?$AAu?$AAs@ 0000000180049f70     libucrt:winapi_thunks.obj
 0002:00004fc0       ??_C@_1EO@FIHMJCLF@?$AAe?$AAx?$AAt?$AA?9?$AAm?$AAs?$AA?9?$AAw?$AAi?$AAn?$AA?9?$AAn?$AAt?$AAu?$AAs@ 0000000180049fc0     libucrt:winapi_thunks.obj
 0002:00005010       ??_C@_1BC@DNHGCMLG@?$AAa?$AAd?$AAv?$AAa?$AAp?$AAi?$AA3?$AA2@ 000000018004a010     libucrt:winapi_thunks.obj
 0002:00005028       ??_C@_1M@OAIMIKLP@?$AAn?$AAt?$AAd?$AAl?$AAl@ 000000018004a028     libucrt:winapi_thunks.obj
 0002:00005040       ??_C@_1EG@DPGNFKGC@?$AAa?$AAp?$AAi?$AA?9?$AAm?$AAs?$AA?9?$AAw?$AAi?$AAn?$AA?9?$AAa?$AAp?$AAp?$AAm@ 000000018004a040     libucrt:winapi_thunks.obj
 0002:00005088       ??_C@_1O@BCCLBEOE@?$AAu?$AAs?$AAe?$AAr?$AA3?$AA2@ 000000018004a088     libucrt:winapi_thunks.obj
 0002:00005098       ??_C@_1BA@IAIFMGEF@?$AAe?$AAx?$AAt?$AA?9?$AAm?$AAs?$AA?9@ 000000018004a098     libucrt:winapi_thunks.obj
 0002:000050b0       ??_C@_0BA@FHFNEAED@AreFileApisANSI@ 000000018004a0b0     libucrt:winapi_thunks.obj
 0002:000050f0       ??_C@_0O@KKBNKAPF@LCMapStringEx@ 000000018004a0f0     libucrt:winapi_thunks.obj
 0002:00005108       ??_C@_0BB@HBDEELFH@LocaleNameToLCID@ 000000018004a108     libucrt:winapi_thunks.obj
 0002:00005120       ??_C@_0CF@OJOFEIGO@AppPolicyGetProcessTerminationM@ 000000018004a120     libucrt:winapi_thunks.obj
 0002:00005150       __lc_time_c                000000018004a150     libucrt:nlsdata.obj
 0002:00005410       ??_C@_03KOEHGMDN@Sun@      000000018004a410     libucrt:nlsdata.obj
 0002:00005414       ??_C@_03PDAGKDH@Mon@       000000018004a414     libucrt:nlsdata.obj
 0002:00005418       ??_C@_03NAGEINEP@Tue@      000000018004a418     libucrt:nlsdata.obj
 0002:0000541c       ??_C@_03MHOMLAJA@Wed@      000000018004a41c     libucrt:nlsdata.obj
 0002:00005420       ??_C@_03IOFIKPDN@Thu@      000000018004a420     libucrt:nlsdata.obj
 0002:00005424       ??_C@_03IDIOELNC@Fri@      000000018004a424     libucrt:nlsdata.obj
 0002:00005428       ??_C@_03FEFJNEK@Sat@       000000018004a428     libucrt:nlsdata.obj
 0002:0000542c       ??_C@_06OOPIFAJ@Sunday@    000000018004a42c     libucrt:nlsdata.obj
 0002:00005434       ??_C@_06JLEDEDGH@Monday@   000000018004a434     libucrt:nlsdata.obj
 0002:00005440       ??_C@_07BAAGCFCM@Tuesday@  000000018004a440     libucrt:nlsdata.obj
 0002:00005448       ??_C@_09DLIGFAKA@Wednesday@ 000000018004a448     libucrt:nlsdata.obj
 0002:00005458       ??_C@_08HACCIKIA@Thursday@ 000000018004a458     libucrt:nlsdata.obj
 0002:00005464       ??_C@_06JECMNKMI@Friday@   000000018004a464     libucrt:nlsdata.obj
 0002:00005470       ??_C@_08INBOOONO@Saturday@ 000000018004a470     libucrt:nlsdata.obj
 0002:0000547c       ??_C@_03JIHJHPIE@Jan@      000000018004a47c     libucrt:nlsdata.obj
 0002:00005480       ??_C@_03HJBDCHOM@Feb@      000000018004a480     libucrt:nlsdata.obj
 0002:00005484       ??_C@_03ODNJBKGA@Mar@      000000018004a484     libucrt:nlsdata.obj
 0002:00005488       ??_C@_03LEOLGMJP@Apr@      000000018004a488     libucrt:nlsdata.obj
 0002:0000548c       ??_C@_03CNMDKL@May@        000000018004a48c     libucrt:nlsdata.obj
 0002:00005490       ??_C@_03IDFGHECI@Jun@      000000018004a490     libucrt:nlsdata.obj
 0002:00005494       ??_C@_03LBGABGKK@Jul@      000000018004a494     libucrt:nlsdata.obj
 0002:00005498       ??_C@_03IFJFEIGA@Aug@      000000018004a498     libucrt:nlsdata.obj
 0002:0000549c       ??_C@_03GGCAPAJC@Sep@      000000018004a49c     libucrt:nlsdata.obj
 0002:000054a0       ??_C@_03BMAOKBAD@Oct@      000000018004a4a0     libucrt:nlsdata.obj
 0002:000054a4       ??_C@_03JPJOFNIA@Nov@      000000018004a4a4     libucrt:nlsdata.obj
 0002:000054a8       ??_C@_03MKABNOCG@Dec@      000000018004a4a8     libucrt:nlsdata.obj
 0002:000054b0       ??_C@_07CGJPFGJA@January@  000000018004a4b0     libucrt:nlsdata.obj
 0002:000054b8       ??_C@_08GNJGEPFN@February@ 000000018004a4b8     libucrt:nlsdata.obj
 0002:000054c4       ??_C@_05HPCKOFNC@March@    000000018004a4c4     libucrt:nlsdata.obj
 0002:000054cc       ??_C@_05DMJDNLEJ@April@    000000018004a4cc     libucrt:nlsdata.obj
 0002:000054d4       ??_C@_04CNLMGBGM@June@     000000018004a4d4     libucrt:nlsdata.obj
 0002:000054dc       ??_C@_04MIEPOIFP@July@     000000018004a4dc     libucrt:nlsdata.obj
 0002:000054e4       ??_C@_06LBBHFDDG@August@   000000018004a4e4     libucrt:nlsdata.obj
 0002:000054f0       ??_C@_09BHHEALKD@September@ 000000018004a4f0     libucrt:nlsdata.obj
 0002:00005500       ??_C@_07JJNFCEND@October@  000000018004a500     libucrt:nlsdata.obj
 0002:00005508       ??_C@_08HCHEGEOA@November@ 000000018004a508     libucrt:nlsdata.obj
 0002:00005518       ??_C@_08EDHMEBNP@December@ 000000018004a518     libucrt:nlsdata.obj
 0002:00005524       ??_C@_02DEDBPAFC@AM@       000000018004a524     libucrt:nlsdata.obj
 0002:00005528       ??_C@_02CJNFDJBF@PM@       000000018004a528     libucrt:nlsdata.obj
 0002:00005530       ??_C@_08BPBNCDIB@MM?1dd?1yy@ 000000018004a530     libucrt:nlsdata.obj
 0002:00005540       ??_C@_0BE@CKGJFCPC@dddd?0?5MMMM?5dd?0?5yyyy@ 000000018004a540     libucrt:nlsdata.obj
 0002:00005558       ??_C@_08JCCMCCIL@HH?3mm?3ss@ 000000018004a558     libucrt:nlsdata.obj
 0002:00005568       ??_C@_17MBGCMIPB@?$AAS?$AAu?$AAn@ 000000018004a568     libucrt:nlsdata.obj
 0002:00005570       ??_C@_17KBOMKBF@?$AAM?$AAo?$AAn@ 000000018004a570     libucrt:nlsdata.obj
 0002:00005578       ??_C@_17BMKGEGOJ@?$AAT?$AAu?$AAe@ 000000018004a578     libucrt:nlsdata.obj
 0002:00005580       ??_C@_17CJEDCEPE@?$AAW?$AAe?$AAd@ 000000018004a580     libucrt:nlsdata.obj
 0002:00005588       ??_C@_17PDPHAADD@?$AAT?$AAh?$AAu@ 000000018004a588     libucrt:nlsdata.obj
 0002:00005590       ??_C@_17HFOLPPLP@?$AAF?$AAr?$AAi@ 000000018004a590     libucrt:nlsdata.obj
 0002:00005598       ??_C@_17GGIBDPIH@?$AAS?$AAa?$AAt@ 000000018004a598     libucrt:nlsdata.obj
 0002:000055a0       ??_C@_1O@IHNHDHPB@?$AAS?$AAu?$AAn?$AAd?$AAa?$AAy@ 000000018004a5a0     libucrt:nlsdata.obj
 0002:000055b0       ??_C@_1O@MMNBFLIA@?$AAM?$AAo?$AAn?$AAd?$AAa?$AAy@ 000000018004a5b0     libucrt:nlsdata.obj
 0002:000055c0       ??_C@_1BA@ENFBFFEK@?$AAT?$AAu?$AAe?$AAs?$AAd?$AAa?$AAy@ 000000018004a5c0     libucrt:nlsdata.obj
 0002:000055d0       ??_C@_1BE@EBOGMDOH@?$AAW?$AAe?$AAd?$AAn?$AAe?$AAs?$AAd?$AAa?$AAy@ 000000018004a5d0     libucrt:nlsdata.obj
 0002:000055e8       ??_C@_1BC@HHMNLIHE@?$AAT?$AAh?$AAu?$AAr?$AAs?$AAd?$AAa?$AAy@ 000000018004a5e8     libucrt:nlsdata.obj
 0002:00005600       ??_C@_1O@PDICJHAG@?$AAF?$AAr?$AAi?$AAd?$AAa?$AAy@ 000000018004a600     libucrt:nlsdata.obj
 0002:00005610       ??_C@_1BC@ENMNNPAJ@?$AAS?$AAa?$AAt?$AAu?$AAr?$AAd?$AAa?$AAy@ 000000018004a610     libucrt:nlsdata.obj
 0002:00005628       ??_C@_17DKNBKCHM@?$AAJ?$AAa?$AAn@ 000000018004a628     libucrt:nlsdata.obj
 0002:00005630       ??_C@_17LMDJEKJN@?$AAF?$AAe?$AAb@ 000000018004a630     libucrt:nlsdata.obj
 0002:00005638       ??_C@_17CKNLEDEC@?$AAM?$AAa?$AAr@ 000000018004a638     libucrt:nlsdata.obj
 0002:00005640       ??_C@_17LFPOIHDD@?$AAA?$AAp?$AAr@ 000000018004a640     libucrt:nlsdata.obj
 0002:00005648       ??_C@_17PNNKMEED@?$AAM?$AAa?$AAy@ 000000018004a648     libucrt:nlsdata.obj
 0002:00005650       ??_C@_17KCJGOCPB@?$AAJ?$AAu?$AAn@ 000000018004a650     libucrt:nlsdata.obj
 0002:00005658       ??_C@_17IJPCKHK@?$AAJ?$AAu?$AAl@ 000000018004a658     libucrt:nlsdata.obj
 0002:00005660       ??_C@_17ICPELBCN@?$AAA?$AAu?$AAg@ 000000018004a660     libucrt:nlsdata.obj
 0002:00005668       ??_C@_17HCHCOKMG@?$AAS?$AAe?$AAp@ 000000018004a668     libucrt:nlsdata.obj
 0002:00005670       ??_C@_17FNLKOI@?$AAO?$AAc?$AAt@ 000000018004a670     libucrt:nlsdata.obj
 0002:00005678       ??_C@_17BBDMLCIG@?$AAN?$AAo?$AAv@ 000000018004a678     libucrt:nlsdata.obj
 0002:00005680       ??_C@_17EGKACKIF@?$AAD?$AAe?$AAc@ 000000018004a680     libucrt:nlsdata.obj
 0002:00005688       ??_C@_1BA@EFMEIEBA@?$AAJ?$AAa?$AAn?$AAu?$AAa?$AAr?$AAy@ 000000018004a688     libucrt:nlsdata.obj
 0002:00005698       ??_C@_1BC@JGDDFFAM@?$AAF?$AAe?$AAb?$AAr?$AAu?$AAa?$AAr?$AAy@ 000000018004a698     libucrt:nlsdata.obj
 0002:000056b0       ??_C@_1M@IKEENEDF@?$AAM?$AAa?$AAr?$AAc?$AAh@ 000000018004a6b0     libucrt:nlsdata.obj
 0002:000056c0       ??_C@_1M@GJNLMHFD@?$AAA?$AAp?$AAr?$AAi?$AAl@ 000000018004a6c0     libucrt:nlsdata.obj
 0002:000056d0       ??_C@_19EPFLPGAP@?$AAJ?$AAu?$AAn?$AAe@ 000000018004a6d0     libucrt:nlsdata.obj
 0002:000056e0       ??_C@_19BIFMLPCD@?$AAJ?$AAu?$AAl?$AAy@ 000000018004a6e0     libucrt:nlsdata.obj
 0002:000056f0       ??_C@_1O@PAHLKOAC@?$AAA?$AAu?$AAg?$AAu?$AAs?$AAt@ 000000018004a6f0     libucrt:nlsdata.obj
 0002:00005700       ??_C@_1BE@DKAAMBJL@?$AAS?$AAe?$AAp?$AAt?$AAe?$AAm?$AAb?$AAe?$AAr@ 000000018004a700     libucrt:nlsdata.obj
 0002:00005718       ??_C@_1BA@EPANDLNG@?$AAO?$AAc?$AAt?$AAo?$AAb?$AAe?$AAr@ 000000018004a718     libucrt:nlsdata.obj
 0002:00005728       ??_C@_1BC@BGLIFPF@?$AAN?$AAo?$AAv?$AAe?$AAm?$AAb?$AAe?$AAr@ 000000018004a728     libucrt:nlsdata.obj
 0002:00005740       ??_C@_1BC@FEMKIFH@?$AAD?$AAe?$AAc?$AAe?$AAm?$AAb?$AAe?$AAr@ 000000018004a740     libucrt:nlsdata.obj
 0002:00005754       ??_C@_15ODEHAHHF@?$AAA?$AAM@ 000000018004a754     libucrt:nlsdata.obj
 0002:0000575c       ??_C@_15CLMNNGEL@?$AAP?$AAM@ 000000018004a75c     libucrt:nlsdata.obj
 0002:00005768       ??_C@_1BC@IEBCMHCM@?$AAM?$AAM?$AA?1?$AAd?$AAd?$AA?1?$AAy?$AAy@ 000000018004a768     libucrt:nlsdata.obj
 0002:00005780       ??_C@_1CI@KNAKOEBC@?$AAd?$AAd?$AAd?$AAd?$AA?0?$AA?5?$AAM?$AAM?$AAM?$AAM?$AA?5?$AAd?$AAd?$AA?0?$AA?5@ 000000018004a780     libucrt:nlsdata.obj
 0002:000057a8       ??_C@_1BC@GDGBMEMK@?$AAH?$AAH?$AA?3?$AAm?$AAm?$AA?3?$AAs?$AAs@ 000000018004a7a8     libucrt:nlsdata.obj
 0002:000057c0       ??_C@_1M@BMHNFIME@?$AAe?$AAn?$AA?9?$AAU?$AAS@ 000000018004a7c0     libucrt:nlsdata.obj
 0002:00005850       ??_C@_03OEIAHPBN@INF@      000000018004a850     libucrt:cvt.obj
 0002:00005854       ??_C@_03OJHLLCGB@inf@      000000018004a854     libucrt:cvt.obj
 0002:00005858       ??_C@_03LKNCIKJB@NAN@      000000018004a858     libucrt:cvt.obj
 0002:0000585c       ??_C@_03LHCJEHON@nan@      000000018004a85c     libucrt:cvt.obj
 0002:00005860       ??_C@_09OFJJIMPC@NAN?$CISNAN?$CJ@ 000000018004a860     libucrt:cvt.obj
 0002:00005870       ??_C@_09IPFBKMDL@nan?$CIsnan?$CJ@ 000000018004a870     libucrt:cvt.obj
 0002:00005880       ??_C@_08IKHNHAJ@NAN?$CIIND?$CJ@ 000000018004a880     libucrt:cvt.obj
 0002:00005890       ??_C@_08OFCDMILK@nan?$CIind?$CJ@ 000000018004a890     libucrt:cvt.obj
 0002:0000589c       ??_C@_05KLBDPFGC@e?$CL000@ 000000018004a89c     libucrt:cvt.obj
 0002:000058b0       __newctype                 000000018004a8b0     libucrt:ctype.obj
 0002:00005bb0       __newclmap                 000000018004abb0     libucrt:ctype.obj
 0002:00005d30       __newcumap                 000000018004ad30     libucrt:ctype.obj
 0002:00005ec0       ??_C@_05HGHHAHAP@log10@    000000018004aec0     libucrt:fpexcept.obj
 0002:00006d10       ??_C@_15EMKDOKLE@?$AAa?$AAr@ 000000018004bd10     libucrt:lcidtoname_downlevel.obj
 0002:00006d18       ??_C@_15KNPADPLH@?$AAb?$AAg@ 000000018004bd18     libucrt:lcidtoname_downlevel.obj
 0002:00006d20       ??_C@_15EDMHLDMO@?$AAc?$AAa@ 000000018004bd20     libucrt:lcidtoname_downlevel.obj
 0002:00006d28       ??_C@_1O@BPEAJADD@?$AAz?$AAh?$AA?9?$AAC?$AAH?$AAS@ 000000018004bd28     libucrt:lcidtoname_downlevel.obj
 0002:00006d38       ??_C@_15LJNHCMNK@?$AAc?$AAs@ 000000018004bd38     libucrt:lcidtoname_downlevel.obj
 0002:00006d40       ??_C@_15FOMCIDHG@?$AAd?$AAa@ 000000018004bd40     libucrt:lcidtoname_downlevel.obj
 0002:00006d48       ??_C@_15NBKABECB@?$AAd?$AAe@ 000000018004bd48     libucrt:lcidtoname_downlevel.obj
 0002:00006d50       ??_C@_15GHPEIIAO@?$AAe?$AAl@ 000000018004bd50     libucrt:lcidtoname_downlevel.obj
 0002:00006d58       ??_C@_15MNPNEAIF@?$AAe?$AAn@ 000000018004bd58     libucrt:lcidtoname_downlevel.obj
 0002:00006d60       ??_C@_15GPIOMPMH@?$AAe?$AAs@ 000000018004bd60     libucrt:lcidtoname_downlevel.obj
 0002:00006d68       ??_C@_15NGLOAKJC@?$AAf?$AAi@ 000000018004bd68     libucrt:lcidtoname_downlevel.obj
 0002:00006d70       ??_C@_15FBKGNKAM@?$AAf?$AAr@ 000000018004bd70     libucrt:lcidtoname_downlevel.obj
 0002:00006d78       ??_C@_15KGGCNEFK@?$AAh?$AAe@ 000000018004bd78     libucrt:lcidtoname_downlevel.obj
 0002:00006d80       ??_C@_15PGHLIDMF@?$AAh?$AAu@ 000000018004bd80     libucrt:lcidtoname_downlevel.obj
 0002:00006d88       ??_C@_15BIEMAPLM@?$AAi?$AAs@ 000000018004bd88     libucrt:lcidtoname_downlevel.obj
 0002:00006d90       ??_C@_15IFJLDHAF@?$AAi?$AAt@ 000000018004bd90     libucrt:lcidtoname_downlevel.obj
 0002:00006d98       ??_C@_15GEMIOCAG@?$AAj?$AAa@ 000000018004bd98     libucrt:lcidtoname_downlevel.obj
 0002:00006da0       ??_C@_15EPELEGJA@?$AAk?$AAo@ 000000018004bda0     libucrt:lcidtoname_downlevel.obj
 0002:00006da8       ??_C@_15NDDHIMN@?$AAn?$AAl@ 000000018004bda8     libucrt:lcidtoname_downlevel.obj
 0002:00006db0       ??_C@_15BPIGNHCD@?$AAn?$AAo@ 000000018004bdb0     libucrt:lcidtoname_downlevel.obj
 0002:00006db8       ??_C@_15DEOPBLCG@?$AAp?$AAl@ 000000018004bdb8     libucrt:lcidtoname_downlevel.obj
 0002:00006dc0       ??_C@_15KBECGEFG@?$AAp?$AAt@ 000000018004bdc0     libucrt:lcidtoname_downlevel.obj
 0002:00006dc8       ??_C@_15GLJCBFMD@?$AAr?$AAo@ 000000018004bdc8     libucrt:lcidtoname_downlevel.obj
 0002:00006dd0       ??_C@_15FEDGKCDI@?$AAr?$AAu@ 000000018004bdd0     libucrt:lcidtoname_downlevel.obj
 0002:00006dd8       ??_C@_15GLKMLLHM@?$AAh?$AAr@ 000000018004bdd8     libucrt:lcidtoname_downlevel.obj
 0002:00006de0       ??_C@_15CPKMFBDB@?$AAs?$AAk@ 000000018004bde0     libucrt:lcidtoname_downlevel.obj
 0002:00006de8       ??_C@_15BAAIOGMK@?$AAs?$AAq@ 000000018004bde8     libucrt:lcidtoname_downlevel.obj
 0002:00006df0       ??_C@_15INNPNOHD@?$AAs?$AAv@ 000000018004bdf0     libucrt:lcidtoname_downlevel.obj
 0002:00006df8       ??_C@_15CABMMOGH@?$AAt?$AAh@ 000000018004bdf8     libucrt:lcidtoname_downlevel.obj
 0002:00006e00       ??_C@_15BPLIHJJM@?$AAt?$AAr@ 000000018004be00     libucrt:lcidtoname_downlevel.obj
 0002:00006e08       ??_C@_15NEOEKKDJ@?$AAu?$AAr@ 000000018004be08     libucrt:lcidtoname_downlevel.obj
 0002:00006e10       ??_C@_15NFICGAJK@?$AAi?$AAd@ 000000018004be10     libucrt:lcidtoname_downlevel.obj
 0002:00006e18       ??_C@_15PJPFLCCM@?$AAu?$AAk@ 000000018004be18     libucrt:lcidtoname_downlevel.obj
 0002:00006e20       ??_C@_15HPJPHDM@?$AAb?$AAe@ 000000018004be20     libucrt:lcidtoname_downlevel.obj
 0002:00006e28       ??_C@_15LCHLGJII@?$AAs?$AAl@ 000000018004be28     libucrt:lcidtoname_downlevel.obj
 0002:00006e30       ??_C@_15PCFJPHHO@?$AAe?$AAt@ 000000018004be30     libucrt:lcidtoname_downlevel.obj
 0002:00006e38       ??_C@_15HPFPGODN@?$AAl?$AAv@ 000000018004be38     libucrt:lcidtoname_downlevel.obj
 0002:00006e40       ??_C@_15NFFGKGLG@?$AAl?$AAt@ 000000018004be40     libucrt:lcidtoname_downlevel.obj
 0002:00006e48       ??_C@_15BDAKCCHN@?$AAf?$AAa@ 000000018004be48     libucrt:lcidtoname_downlevel.obj
 0002:00006e50       ??_C@_15NFGIAIAJ@?$AAv?$AAi@ 000000018004be50     libucrt:lcidtoname_downlevel.obj
 0002:00006e58       ??_C@_15LMKNDMHN@?$AAh?$AAy@ 000000018004be58     libucrt:lcidtoname_downlevel.obj
 0002:00006e60       ??_C@_15IJBHMCFL@?$AAa?$AAz@ 000000018004be60     libucrt:lcidtoname_downlevel.obj
 0002:00006e68       ??_C@_15EKOFJABL@?$AAe?$AAu@ 000000018004be68     libucrt:lcidtoname_downlevel.obj
 0002:00006e70       ??_C@_15BGHADCNK@?$AAm?$AAk@ 000000018004be70     libucrt:lcidtoname_downlevel.obj
 0002:00006e78       ??_C@_15JDNICKHM@?$AAa?$AAf@ 000000018004be78     libucrt:lcidtoname_downlevel.obj
 0002:00006e80       ??_C@_15KPJEDBKD@?$AAk?$AAa@ 000000018004be80     libucrt:lcidtoname_downlevel.obj
 0002:00006e88       ??_C@_15PDNFFFEO@?$AAf?$AAo@ 000000018004be88     libucrt:lcidtoname_downlevel.obj
 0002:00006e90       ??_C@_15OMLEGLOC@?$AAh?$AAi@ 000000018004be90     libucrt:lcidtoname_downlevel.obj
 0002:00006e98       ??_C@_15IDNNENKK@?$AAm?$AAs@ 000000018004be98     libucrt:lcidtoname_downlevel.obj
 0002:00006ea0       ??_C@_15MACJNBMH@?$AAk?$AAk@ 000000018004bea0     libucrt:lcidtoname_downlevel.obj
 0002:00006ea8       ??_C@_15DKDJEOND@?$AAk?$AAy@ 000000018004bea8     libucrt:lcidtoname_downlevel.obj
 0002:00006eb0       ??_C@_15DFGDLJBG@?$AAs?$AAw@ 000000018004beb0     libucrt:lcidtoname_downlevel.obj
 0002:00006eb8       ??_C@_15BBFAICNG@?$AAu?$AAz@ 000000018004beb8     libucrt:lcidtoname_downlevel.obj
 0002:00006ec0       ??_C@_15DKNDCGEA@?$AAt?$AAt@ 000000018004bec0     libucrt:lcidtoname_downlevel.obj
 0002:00006ec8       ??_C@_15MGIFMDPL@?$AAp?$AAa@ 000000018004bec8     libucrt:lcidtoname_downlevel.obj
 0002:00006ed0       ??_C@_15HCNDBBA@?$AAg?$AAu@ 000000018004bed0     libucrt:lcidtoname_downlevel.obj
 0002:00006ed8       ??_C@_15FNBEIBON@?$AAt?$AAa@ 000000018004bed8     libucrt:lcidtoname_downlevel.obj
 0002:00006ee0       ??_C@_15NCHGBGLK@?$AAt?$AAe@ 000000018004bee0     libucrt:lcidtoname_downlevel.obj
 0002:00006ee8       ??_C@_15PHPHCBPF@?$AAk?$AAn@ 000000018004bee8     libucrt:lcidtoname_downlevel.obj
 0002:00006ef0       ??_C@_15DLGBCKMP@?$AAm?$AAr@ 000000018004bef0     libucrt:lcidtoname_downlevel.obj
 0002:00006ef8       ??_C@_15EABBLBFF@?$AAs?$AAa@ 000000018004bef8     libucrt:lcidtoname_downlevel.obj
 0002:00006f00       ??_C@_15CBKOMCOI@?$AAm?$AAn@ 000000018004bf00     libucrt:lcidtoname_downlevel.obj
 0002:00006f08       ??_C@_15CKDMCJAF@?$AAg?$AAl@ 000000018004bf08     libucrt:lcidtoname_downlevel.obj
 0002:00006f10       ??_C@_17CNJFBPG@?$AAk?$AAo?$AAk@ 000000018004bf10     libucrt:lcidtoname_downlevel.obj
 0002:00006f18       ??_C@_17FFBJICPL@?$AAs?$AAy?$AAr@ 000000018004bf18     libucrt:lcidtoname_downlevel.obj
 0002:00006f20       ??_C@_17KPNDCPAF@?$AAd?$AAi?$AAv@ 000000018004bf20     libucrt:lcidtoname_downlevel.obj
 0002:00006f28       ??_C@_11LOCGONAA@@         000000018004bf28     libucrt:lcidtoname_downlevel.obj
 0002:00006f30       ??_C@_1M@OKAHONE@?$AAa?$AAr?$AA?9?$AAS?$AAA@ 000000018004bf30     libucrt:lcidtoname_downlevel.obj
 0002:00006f40       ??_C@_1M@FFFIGIGK@?$AAb?$AAg?$AA?9?$AAB?$AAG@ 000000018004bf40     libucrt:lcidtoname_downlevel.obj
 0002:00006f50       ??_C@_1M@BJNKEDC@?$AAc?$AAa?$AA?9?$AAE?$AAS@ 000000018004bf50     libucrt:lcidtoname_downlevel.obj
 0002:00006f60       ??_C@_1M@IJJHFJHA@?$AAc?$AAs?$AA?9?$AAC?$AAZ@ 000000018004bf60     libucrt:lcidtoname_downlevel.obj
 0002:00006f70       ??_C@_1M@CLPEOBGI@?$AAd?$AAa?$AA?9?$AAD?$AAK@ 000000018004bf70     libucrt:lcidtoname_downlevel.obj
 0002:00006f80       ??_C@_1M@MCMADGCB@?$AAd?$AAe?$AA?9?$AAD?$AAE@ 000000018004bf80     libucrt:lcidtoname_downlevel.obj
 0002:00006f90       ??_C@_1M@OOCKEMAM@?$AAe?$AAl?$AA?9?$AAG?$AAR@ 000000018004bf90     libucrt:lcidtoname_downlevel.obj
 0002:00006fa0       ??_C@_1M@DDNJFGID@?$AAf?$AAi?$AA?9?$AAF?$AAI@ 000000018004bfa0     libucrt:lcidtoname_downlevel.obj
 0002:00006fb0       ??_C@_1M@GLIPPMAC@?$AAf?$AAr?$AA?9?$AAF?$AAR@ 000000018004bfb0     libucrt:lcidtoname_downlevel.obj
 0002:00006fc0       ??_C@_1M@GFMCHPE@?$AAh?$AAe?$AA?9?$AAI?$AAL@ 000000018004bfc0     libucrt:lcidtoname_downlevel.obj
 0002:00006fd0       ??_C@_1M@MHLPGNKM@?$AAh?$AAu?$AA?9?$AAH?$AAU@ 000000018004bfd0     libucrt:lcidtoname_downlevel.obj
 0002:00006fe0       ??_C@_1M@LPDDNNPN@?$AAi?$AAs?$AA?9?$AAI?$AAS@ 000000018004bfe0     libucrt:lcidtoname_downlevel.obj
 0002:00006ff0       ??_C@_1M@MADIPODN@?$AAi?$AAt?$AA?9?$AAI?$AAT@ 000000018004bff0     libucrt:lcidtoname_downlevel.obj
 0002:00007000       ??_C@_1M@IHBJJGG@?$AAn?$AAl?$AA?9?$AAN?$AAL@ 000000018004c000     libucrt:lcidtoname_downlevel.obj
 0002:00007010       ??_C@_1M@EANAGDL@?$AAn?$AAb?$AA?9?$AAN?$AAO@ 000000018004c010     libucrt:lcidtoname_downlevel.obj
 0002:00007020       ??_C@_1M@NEIEMEGP@?$AAp?$AAl?$AA?9?$AAP?$AAL@ 000000018004c020     libucrt:lcidtoname_downlevel.obj
 0002:00007030       ??_C@_1M@BOCFIGEP@?$AAp?$AAt?$AA?9?$AAB?$AAR@ 000000018004c030     libucrt:lcidtoname_downlevel.obj
 0002:00007040       ??_C@_1M@IMPFOPBG@?$AAr?$AAo?$AA?9?$AAR?$AAO@ 000000018004c040     libucrt:lcidtoname_downlevel.obj
 0002:00007050       ??_C@_1M@IDNNEJMM@?$AAr?$AAu?$AA?9?$AAR?$AAU@ 000000018004c050     libucrt:lcidtoname_downlevel.obj
 0002:00007060       ??_C@_1M@LILEEOGM@?$AAh?$AAr?$AA?9?$AAH?$AAR@ 000000018004c060     libucrt:lcidtoname_downlevel.obj
 0002:00007070       ??_C@_1M@FKIFEHPB@?$AAs?$AAk?$AA?9?$AAS?$AAK@ 000000018004c070     libucrt:lcidtoname_downlevel.obj
 0002:00007080       ??_C@_1M@LJMAMNPJ@?$AAs?$AAq?$AA?9?$AAA?$AAL@ 000000018004c080     libucrt:lcidtoname_downlevel.obj
 0002:00007090       ??_C@_1M@GIAKDKJK@?$AAs?$AAv?$AA?9?$AAS?$AAE@ 000000018004c090     libucrt:lcidtoname_downlevel.obj
 0002:000070a0       ??_C@_1M@MKJKIKCL@?$AAt?$AAh?$AA?9?$AAT?$AAH@ 000000018004c0a0     libucrt:lcidtoname_downlevel.obj
 0002:000070b0       ??_C@_1M@MFLCCMPB@?$AAt?$AAr?$AA?9?$AAT?$AAR@ 000000018004c0b0     libucrt:lcidtoname_downlevel.obj
 0002:000070c0       ??_C@_1M@OIJHDKJN@?$AAu?$AAr?$AA?9?$AAP?$AAK@ 000000018004c0c0     libucrt:lcidtoname_downlevel.obj
 0002:000070d0       ??_C@_1M@LHIPCIEK@?$AAi?$AAd?$AA?9?$AAI?$AAD@ 000000018004c0d0     libucrt:lcidtoname_downlevel.obj
 0002:000070e0       ??_C@_1M@MFMOBGI@?$AAu?$AAk?$AA?9?$AAU?$AAA@ 000000018004c0e0     libucrt:lcidtoname_downlevel.obj
 0002:000070f0       ??_C@_1M@OBGLJIPL@?$AAb?$AAe?$AA?9?$AAB?$AAY@ 000000018004c0f0     libucrt:lcidtoname_downlevel.obj
 0002:00007100       ??_C@_1M@BCFAJEAD@?$AAs?$AAl?$AA?9?$AAS?$AAI@ 000000018004c100     libucrt:lcidtoname_downlevel.obj
 0002:00007110       ??_C@_1M@FKFFEDDN@?$AAe?$AAt?$AA?9?$AAE?$AAE@ 000000018004c110     libucrt:lcidtoname_downlevel.obj
 0002:00007120       ??_C@_1M@KGKKAACI@?$AAl?$AAv?$AA?9?$AAL?$AAV@ 000000018004c120     libucrt:lcidtoname_downlevel.obj
 0002:00007130       ??_C@_1M@IFGBIJO@?$AAl?$AAt?$AA?9?$AAL?$AAT@ 000000018004c130     libucrt:lcidtoname_downlevel.obj
 0002:00007140       ??_C@_1M@FGEAHEDM@?$AAf?$AAa?$AA?9?$AAI?$AAR@ 000000018004c140     libucrt:lcidtoname_downlevel.obj
 0002:00007150       ??_C@_1M@KBMAIBFN@?$AAv?$AAi?$AA?9?$AAV?$AAN@ 000000018004c150     libucrt:lcidtoname_downlevel.obj
 0002:00007160       ??_C@_1M@GPCBKDJK@?$AAh?$AAy?$AA?9?$AAA?$AAM@ 000000018004c160     libucrt:lcidtoname_downlevel.obj
 0002:00007170       ??_C@_1BG@BECMDDJB@?$AAa?$AAz?$AA?9?$AAA?$AAZ?$AA?9?$AAL?$AAa?$AAt?$AAn@ 000000018004c170     libucrt:lcidtoname_downlevel.obj
 0002:00007188       ??_C@_1M@MAOFCAEA@?$AAe?$AAu?$AA?9?$AAE?$AAS@ 000000018004c188     libucrt:lcidtoname_downlevel.obj
 0002:00007198       ??_C@_1M@IGHABKPI@?$AAm?$AAk?$AA?9?$AAM?$AAK@ 000000018004c198     libucrt:lcidtoname_downlevel.obj
 0002:000071a8       ??_C@_1M@IAIGNEJG@?$AAt?$AAn?$AA?9?$AAZ?$AAA@ 000000018004c1a8     libucrt:lcidtoname_downlevel.obj
 0002:000071b8       ??_C@_1M@IIJCOJFA@?$AAx?$AAh?$AA?9?$AAZ?$AAA@ 000000018004c1b8     libucrt:lcidtoname_downlevel.obj
 0002:000071c8       ??_C@_1M@LGPJHNJH@?$AAz?$AAu?$AA?9?$AAZ?$AAA@ 000000018004c1c8     libucrt:lcidtoname_downlevel.obj
 0002:000071d8       ??_C@_1M@HOKAOIO@?$AAa?$AAf?$AA?9?$AAZ?$AAA@ 000000018004c1d8     libucrt:lcidtoname_downlevel.obj
 0002:000071e8       ??_C@_1M@DPCLHLIE@?$AAk?$AAa?$AA?9?$AAG?$AAE@ 000000018004c1e8     libucrt:lcidtoname_downlevel.obj
 0002:000071f8       ??_C@_1M@BLKMHJBI@?$AAf?$AAo?$AA?9?$AAF?$AAO@ 000000018004c1f8     libucrt:lcidtoname_downlevel.obj
 0002:00007208       ??_C@_1M@LGGJAPPB@?$AAh?$AAi?$AA?9?$AAI?$AAN@ 000000018004c208     libucrt:lcidtoname_downlevel.obj
 0002:00007218       ??_C@_1M@FIKPIHFE@?$AAm?$AAt?$AA?9?$AAM?$AAT@ 000000018004c218     libucrt:lcidtoname_downlevel.obj
 0002:00007228       ??_C@_1M@HEGGPBFA@?$AAs?$AAe?$AA?9?$AAN?$AAO@ 000000018004c228     libucrt:lcidtoname_downlevel.obj
 0002:00007238       ??_C@_1M@EIBJEEPA@?$AAm?$AAs?$AA?9?$AAM?$AAY@ 000000018004c238     libucrt:lcidtoname_downlevel.obj
 0002:00007248       ??_C@_1M@FHLBGMPP@?$AAk?$AAk?$AA?9?$AAK?$AAZ@ 000000018004c248     libucrt:lcidtoname_downlevel.obj
 0002:00007258       ??_C@_1M@NGJJLCGI@?$AAk?$AAy?$AA?9?$AAK?$AAG@ 000000018004c258     libucrt:lcidtoname_downlevel.obj
 0002:00007268       ??_C@_1M@GIENNBFC@?$AAs?$AAw?$AA?9?$AAK?$AAE@ 000000018004c268     libucrt:lcidtoname_downlevel.obj
 0002:00007278       ??_C@_1BG@NDGMJIMJ@?$AAu?$AAz?$AA?9?$AAU?$AAZ?$AA?9?$AAL?$AAa?$AAt?$AAn@ 000000018004c278     libucrt:lcidtoname_downlevel.obj
 0002:00007290       ??_C@_1M@IDCCIHBC@?$AAt?$AAt?$AA?9?$AAR?$AAU@ 000000018004c290     libucrt:lcidtoname_downlevel.obj
 0002:000072a0       ??_C@_1M@LOICPMOJ@?$AAb?$AAn?$AA?9?$AAI?$AAN@ 000000018004c2a0     libucrt:lcidtoname_downlevel.obj
 0002:000072b0       ??_C@_1M@KPKKNEAH@?$AAp?$AAa?$AA?9?$AAI?$AAN@ 000000018004c2b0     libucrt:lcidtoname_downlevel.obj
 0002:000072c0       ??_C@_1M@PJGPPBOG@?$AAg?$AAu?$AA?9?$AAI?$AAN@ 000000018004c2c0     libucrt:lcidtoname_downlevel.obj
 0002:000072d0       ??_C@_1M@KMKMOPHI@?$AAt?$AAa?$AA?9?$AAI?$AAN@ 000000018004c2d0     libucrt:lcidtoname_downlevel.obj
 0002:000072e0       ??_C@_1M@KFEHEPAC@?$AAt?$AAe?$AA?9?$AAI?$AAN@ 000000018004c2e0     libucrt:lcidtoname_downlevel.obj
 0002:000072f0       ??_C@_1M@CDCLMGHI@?$AAk?$AAn?$AA?9?$AAI?$AAN@ 000000018004c2f0     libucrt:lcidtoname_downlevel.obj
 0002:00007300       ??_C@_1M@MIODLDKF@?$AAm?$AAl?$AA?9?$AAI?$AAN@ 000000018004c300     libucrt:lcidtoname_downlevel.obj
 0002:00007310       ??_C@_1M@PBIEACPO@?$AAm?$AAr?$AA?9?$AAI?$AAN@ 000000018004c310     libucrt:lcidtoname_downlevel.obj
 0002:00007320       ??_C@_1M@NIDEAGPH@?$AAs?$AAa?$AA?9?$AAI?$AAN@ 000000018004c320     libucrt:lcidtoname_downlevel.obj
 0002:00007330       ??_C@_1M@FHIHCBIO@?$AAm?$AAn?$AA?9?$AAM?$AAN@ 000000018004c330     libucrt:lcidtoname_downlevel.obj
 0002:00007340       ??_C@_1M@JAIJPENP@?$AAc?$AAy?$AA?9?$AAG?$AAB@ 000000018004c340     libucrt:lcidtoname_downlevel.obj
 0002:00007350       ??_C@_1M@PHGFBEPN@?$AAg?$AAl?$AA?9?$AAE?$AAS@ 000000018004c350     libucrt:lcidtoname_downlevel.obj
 0002:00007360       ??_C@_1O@KPIPDNCP@?$AAk?$AAo?$AAk?$AA?9?$AAI?$AAN@ 000000018004c360     libucrt:lcidtoname_downlevel.obj
 0002:00007370       ??_C@_1O@KNHJLDJA@?$AAs?$AAy?$AAr?$AA?9?$AAS?$AAY@ 000000018004c370     libucrt:lcidtoname_downlevel.obj
 0002:00007380       ??_C@_1O@MKEKBLAH@?$AAd?$AAi?$AAv?$AA?9?$AAM?$AAV@ 000000018004c380     libucrt:lcidtoname_downlevel.obj
 0002:00007390       ??_C@_1O@OHDCKDDF@?$AAq?$AAu?$AAz?$AA?9?$AAB?$AAO@ 000000018004c390     libucrt:lcidtoname_downlevel.obj
 0002:000073a0       ??_C@_1M@LEPJNLFD@?$AAn?$AAs?$AA?9?$AAZ?$AAA@ 000000018004c3a0     libucrt:lcidtoname_downlevel.obj
 0002:000073b0       ??_C@_1M@OMLEIIJB@?$AAm?$AAi?$AA?9?$AAN?$AAZ@ 000000018004c3b0     libucrt:lcidtoname_downlevel.obj
 0002:000073c0       ??_C@_1M@PMPEAILG@?$AAa?$AAr?$AA?9?$AAI?$AAQ@ 000000018004c3c0     libucrt:lcidtoname_downlevel.obj
 0002:000073d0       ??_C@_1M@CNKPNOEE@?$AAd?$AAe?$AA?9?$AAC?$AAH@ 000000018004c3d0     libucrt:lcidtoname_downlevel.obj
 0002:000073e0       ??_C@_1M@LKMGMLKO@?$AAe?$AAn?$AA?9?$AAG?$AAB@ 000000018004c3e0     libucrt:lcidtoname_downlevel.obj
 0002:000073f0       ??_C@_1M@PGKJFFGL@?$AAe?$AAs?$AA?9?$AAM?$AAX@ 000000018004c3f0     libucrt:lcidtoname_downlevel.obj
 0002:00007400       ??_C@_1M@DNNANBDC@?$AAf?$AAr?$AA?9?$AAB?$AAE@ 000000018004c400     libucrt:lcidtoname_downlevel.obj
 0002:00007410       ??_C@_1M@HLGMDFHM@?$AAi?$AAt?$AA?9?$AAC?$AAH@ 000000018004c410     libucrt:lcidtoname_downlevel.obj
 0002:00007420       ??_C@_1M@CLLBGJH@?$AAn?$AAl?$AA?9?$AAB?$AAE@ 000000018004c420     libucrt:lcidtoname_downlevel.obj
 0002:00007430       ??_C@_1M@BODBOGLF@?$AAn?$AAn?$AA?9?$AAN?$AAO@ 000000018004c430     libucrt:lcidtoname_downlevel.obj
 0002:00007440       ??_C@_1M@HFFAHKAD@?$AAp?$AAt?$AA?9?$AAP?$AAT@ 000000018004c440     libucrt:lcidtoname_downlevel.obj
 0002:00007450       ??_C@_1BG@LNOAKHIE@?$AAs?$AAr?$AA?9?$AAS?$AAP?$AA?9?$AAL?$AAa?$AAt?$AAn@ 000000018004c450     libucrt:lcidtoname_downlevel.obj
 0002:00007468       ??_C@_1M@HBMHBGAK@?$AAs?$AAv?$AA?9?$AAF?$AAI@ 000000018004c468     libucrt:lcidtoname_downlevel.obj
 0002:00007478       ??_C@_1BG@DGCJGJBE@?$AAa?$AAz?$AA?9?$AAA?$AAZ?$AA?9?$AAC?$AAy?$AAr?$AAl@ 000000018004c478     libucrt:lcidtoname_downlevel.obj
 0002:00007490       ??_C@_1M@KEJDAAHB@?$AAs?$AAe?$AA?9?$AAS?$AAE@ 000000018004c490     libucrt:lcidtoname_downlevel.obj
 0002:000074a0       ??_C@_1M@HEIBJJAD@?$AAm?$AAs?$AA?9?$AAB?$AAN@ 000000018004c4a0     libucrt:lcidtoname_downlevel.obj
 0002:000074b0       ??_C@_1BG@PBGJMCEM@?$AAu?$AAz?$AA?9?$AAU?$AAZ?$AA?9?$AAC?$AAy?$AAr?$AAl@ 000000018004c4b0     libucrt:lcidtoname_downlevel.obj
 0002:000074c8       ??_C@_1O@LAOBCMDF@?$AAq?$AAu?$AAz?$AA?9?$AAE?$AAC@ 000000018004c4c8     libucrt:lcidtoname_downlevel.obj
 0002:000074d8       ??_C@_1M@POEEMAIO@?$AAa?$AAr?$AA?9?$AAE?$AAG@ 000000018004c4d8     libucrt:lcidtoname_downlevel.obj
 0002:000074e8       ??_C@_1M@EFAKDEDL@?$AAz?$AAh?$AA?9?$AAH?$AAK@ 000000018004c4e8     libucrt:lcidtoname_downlevel.obj
 0002:000074f8       ??_C@_1M@HKKIJHGI@?$AAd?$AAe?$AA?9?$AAA?$AAT@ 000000018004c4f8     libucrt:lcidtoname_downlevel.obj
 0002:00007508       ??_C@_1M@KBFBEHJF@?$AAe?$AAn?$AA?9?$AAA?$AAU@ 000000018004c508     libucrt:lcidtoname_downlevel.obj
 0002:00007518       ??_C@_1M@MNPLFAAH@?$AAe?$AAs?$AA?9?$AAE?$AAS@ 000000018004c518     libucrt:lcidtoname_downlevel.obj
 0002:00007528       ??_C@_1M@HJOOJFMA@?$AAf?$AAr?$AA?9?$AAC?$AAA@ 000000018004c528     libucrt:lcidtoname_downlevel.obj
 0002:00007538       ??_C@_1BG@JPOFPNAB@?$AAs?$AAr?$AA?9?$AAS?$AAP?$AA?9?$AAC?$AAy?$AAr?$AAl@ 000000018004c538     libucrt:lcidtoname_downlevel.obj
 0002:00007550       ??_C@_1M@LNFOCMOB@?$AAs?$AAe?$AA?9?$AAF?$AAI@ 000000018004c550     libucrt:lcidtoname_downlevel.obj
 0002:00007560       ??_C@_1O@MGJBOAMB@?$AAq?$AAu?$AAz?$AA?9?$AAP?$AAE@ 000000018004c560     libucrt:lcidtoname_downlevel.obj
 0002:00007570       ??_C@_1M@GJINLBOK@?$AAa?$AAr?$AA?9?$AAL?$AAY@ 000000018004c570     libucrt:lcidtoname_downlevel.obj
 0002:00007580       ??_C@_1M@GGMNHJNL@?$AAz?$AAh?$AA?9?$AAS?$AAG@ 000000018004c580     libucrt:lcidtoname_downlevel.obj
 0002:00007590       ??_C@_1M@HOIKODND@?$AAd?$AAe?$AA?9?$AAL?$AAU@ 000000018004c590     libucrt:lcidtoname_downlevel.obj
 0002:000075a0       ??_C@_1M@DDOCCGFG@?$AAe?$AAn?$AA?9?$AAC?$AAA@ 000000018004c5a0     libucrt:lcidtoname_downlevel.obj
 0002:000075b0       ??_C@_1M@BNOEMJLF@?$AAe?$AAs?$AA?9?$AAG?$AAT@ 000000018004c5b0     libucrt:lcidtoname_downlevel.obj
 0002:000075c0       ??_C@_1M@EOGNKEK@?$AAf?$AAr?$AA?9?$AAC?$AAH@ 000000018004c5c0     libucrt:lcidtoname_downlevel.obj
 0002:000075d0       ??_C@_1M@FLIDJFHL@?$AAh?$AAr?$AA?9?$AAB?$AAA@ 000000018004c5d0     libucrt:lcidtoname_downlevel.obj
 0002:000075e0       ??_C@_1O@FMCELNAJ@?$AAs?$AAm?$AAj?$AA?9?$AAN?$AAO@ 000000018004c5e0     libucrt:lcidtoname_downlevel.obj
 0002:000075f0       ??_C@_1M@JHGLJMGJ@?$AAa?$AAr?$AA?9?$AAD?$AAZ@ 000000018004c5f0     libucrt:lcidtoname_downlevel.obj
 0002:00007600       ??_C@_1M@JKKFDCNP@?$AAz?$AAh?$AA?9?$AAM?$AAO@ 000000018004c600     libucrt:lcidtoname_downlevel.obj
 0002:00007610       ??_C@_1M@GEEFALPE@?$AAd?$AAe?$AA?9?$AAL?$AAI@ 000000018004c610     libucrt:lcidtoname_downlevel.obj
 0002:00007620       ??_C@_1M@IGEOFBG@?$AAe?$AAn?$AA?9?$AAN?$AAZ@ 000000018004c620     libucrt:lcidtoname_downlevel.obj
 0002:00007630       ??_C@_1M@KDBONEHP@?$AAe?$AAs?$AA?9?$AAC?$AAR@ 000000018004c630     libucrt:lcidtoname_downlevel.obj
 0002:00007640       ??_C@_1M@FHMDOHNN@?$AAf?$AAr?$AA?9?$AAL?$AAU@ 000000018004c640     libucrt:lcidtoname_downlevel.obj
 0002:00007650       ??_C@_1BG@NFKKMAFG@?$AAb?$AAs?$AA?9?$AAB?$AAA?$AA?9?$AAL?$AAa?$AAt?$AAn@ 000000018004c650     libucrt:lcidtoname_downlevel.obj
 0002:00007668       ??_C@_1O@IMNBEMCI@?$AAs?$AAm?$AAj?$AA?9?$AAS?$AAE@ 000000018004c668     libucrt:lcidtoname_downlevel.obj
 0002:00007678       ??_C@_1M@DHHMBNDP@?$AAa?$AAr?$AA?9?$AAM?$AAA@ 000000018004c678     libucrt:lcidtoname_downlevel.obj
 0002:00007688       ??_C@_1M@BNBLJCGH@?$AAe?$AAn?$AA?9?$AAI?$AAE@ 000000018004c688     libucrt:lcidtoname_downlevel.obj
 0002:00007698       ??_C@_1M@GEPAFMDL@?$AAe?$AAs?$AA?9?$AAP?$AAA@ 000000018004c698     libucrt:lcidtoname_downlevel.obj
 0002:000076a8       ??_C@_1M@OJONDMDL@?$AAf?$AAr?$AA?9?$AAM?$AAC@ 000000018004c6a8     libucrt:lcidtoname_downlevel.obj
 0002:000076b8       ??_C@_1BG@OBCNFJB@?$AAs?$AAr?$AA?9?$AAB?$AAA?$AA?9?$AAL?$AAa?$AAt?$AAn@ 000000018004c6b8     libucrt:lcidtoname_downlevel.obj
 0002:000076d0       ??_C@_1O@KEMEEGPO@?$AAs?$AAm?$AAa?$AA?9?$AAN?$AAO@ 000000018004c6d0     libucrt:lcidtoname_downlevel.obj
 0002:000076e0       ??_C@_1M@ELMGFODK@?$AAa?$AAr?$AA?9?$AAT?$AAN@ 000000018004c6e0     libucrt:lcidtoname_downlevel.obj
 0002:000076f0       ??_C@_1M@BHDLHFAF@?$AAe?$AAn?$AA?9?$AAZ?$AAA@ 000000018004c6f0     libucrt:lcidtoname_downlevel.obj
 0002:00007700       ??_C@_1M@BMGIGLIF@?$AAe?$AAs?$AA?9?$AAD?$AAO@ 000000018004c700     libucrt:lcidtoname_downlevel.obj
 0002:00007710       ??_C@_1BG@CMBHIPBE@?$AAs?$AAr?$AA?9?$AAB?$AAA?$AA?9?$AAC?$AAy?$AAr?$AAl@ 000000018004c710     libucrt:lcidtoname_downlevel.obj
 0002:00007728       ??_C@_1O@HEDBLHNP@?$AAs?$AAm?$AAa?$AA?9?$AAS?$AAE@ 000000018004c728     libucrt:lcidtoname_downlevel.obj
 0002:00007738       ??_C@_1M@DAGCADIM@?$AAa?$AAr?$AA?9?$AAO?$AAM@ 000000018004c738     libucrt:lcidtoname_downlevel.obj
 0002:00007748       ??_C@_1M@FODLMICG@?$AAe?$AAn?$AA?9?$AAJ?$AAM@ 000000018004c748     libucrt:lcidtoname_downlevel.obj
 0002:00007758       ??_C@_1M@DNMLCIHB@?$AAe?$AAs?$AA?9?$AAV?$AAE@ 000000018004c758     libucrt:lcidtoname_downlevel.obj
 0002:00007768       ??_C@_1O@EOKHMKJK@?$AAs?$AAm?$AAs?$AA?9?$AAF?$AAI@ 000000018004c768     libucrt:lcidtoname_downlevel.obj
 0002:00007778       ??_C@_1M@CAFJMKOF@?$AAa?$AAr?$AA?9?$AAY?$AAE@ 000000018004c778     libucrt:lcidtoname_downlevel.obj
 0002:00007788       ??_C@_1M@CBFHIJLI@?$AAe?$AAn?$AA?9?$AAC?$AAB@ 000000018004c788     libucrt:lcidtoname_downlevel.obj
 0002:00007798       ??_C@_1M@BGNFLDN@?$AAe?$AAs?$AA?9?$AAC?$AAO@ 000000018004c798     libucrt:lcidtoname_downlevel.obj
 0002:000077a8       ??_C@_1O@JMPHMAMC@?$AAs?$AAm?$AAn?$AA?9?$AAF?$AAI@ 000000018004c7a8     libucrt:lcidtoname_downlevel.obj
 0002:000077b8       ??_C@_1M@JLANABKE@?$AAa?$AAr?$AA?9?$AAS?$AAY@ 000000018004c7b8     libucrt:lcidtoname_downlevel.obj
 0002:000077c8       ??_C@_1M@HPKGCFGN@?$AAe?$AAn?$AA?9?$AAB?$AAZ@ 000000018004c7c8     libucrt:lcidtoname_downlevel.obj
 0002:000077d8       ??_C@_1M@OLJCMLGM@?$AAe?$AAs?$AA?9?$AAP?$AAE@ 000000018004c7d8     libucrt:lcidtoname_downlevel.obj
 0002:000077e8       ??_C@_1M@MKKGFKLE@?$AAa?$AAr?$AA?9?$AAJ?$AAO@ 000000018004c7e8     libucrt:lcidtoname_downlevel.obj
 0002:000077f8       ??_C@_1M@EKPGLDNI@?$AAe?$AAn?$AA?9?$AAT?$AAT@ 000000018004c7f8     libucrt:lcidtoname_downlevel.obj
 0002:00007808       ??_C@_1M@OONGHFHE@?$AAe?$AAs?$AA?9?$AAA?$AAR@ 000000018004c808     libucrt:lcidtoname_downlevel.obj
 0002:00007818       ??_C@_1M@OOJFGBHE@?$AAa?$AAr?$AA?9?$AAL?$AAB@ 000000018004c818     libucrt:lcidtoname_downlevel.obj
 0002:00007828       ??_C@_1M@GCEJHNEG@?$AAe?$AAn?$AA?9?$AAZ?$AAW@ 000000018004c828     libucrt:lcidtoname_downlevel.obj
 0002:00007838       ??_C@_1M@JNOCAHJI@?$AAe?$AAs?$AA?9?$AAE?$AAC@ 000000018004c838     libucrt:lcidtoname_downlevel.obj
 0002:00007848       ??_C@_1M@JEFHPGGB@?$AAa?$AAr?$AA?9?$AAK?$AAW@ 000000018004c848     libucrt:lcidtoname_downlevel.obj
 0002:00007858       ??_C@_1M@MLKIBJOJ@?$AAe?$AAn?$AA?9?$AAP?$AAH@ 000000018004c858     libucrt:lcidtoname_downlevel.obj
 0002:00007868       ??_C@_1M@BDNIPEND@?$AAe?$AAs?$AA?9?$AAC?$AAL@ 000000018004c868     libucrt:lcidtoname_downlevel.obj
 0002:00007878       ??_C@_1M@MPNMEKBD@?$AAa?$AAr?$AA?9?$AAA?$AAE@ 000000018004c878     libucrt:lcidtoname_downlevel.obj
 0002:00007888       ??_C@_1M@KBJALCPI@?$AAe?$AAs?$AA?9?$AAU?$AAY@ 000000018004c888     libucrt:lcidtoname_downlevel.obj
 0002:00007898       ??_C@_1M@LLCCOAGA@?$AAa?$AAr?$AA?9?$AAB?$AAH@ 000000018004c898     libucrt:lcidtoname_downlevel.obj
 0002:000078a8       ??_C@_1M@PBFNCDEL@?$AAe?$AAs?$AA?9?$AAP?$AAY@ 000000018004c8a8     libucrt:lcidtoname_downlevel.obj
 0002:000078b8       ??_C@_1M@EDGINPNP@?$AAa?$AAr?$AA?9?$AAQ?$AAA@ 000000018004c8b8     libucrt:lcidtoname_downlevel.obj
 0002:000078c8       ??_C@_1M@MKDBIIJI@?$AAe?$AAs?$AA?9?$AAB?$AAO@ 000000018004c8c8     libucrt:lcidtoname_downlevel.obj
 0002:000078d8       ??_C@_1M@CPKKEBLD@?$AAe?$AAs?$AA?9?$AAS?$AAV@ 000000018004c8d8     libucrt:lcidtoname_downlevel.obj
 0002:000078e8       ??_C@_1M@NDBGMMJL@?$AAe?$AAs?$AA?9?$AAH?$AAN@ 000000018004c8e8     libucrt:lcidtoname_downlevel.obj
 0002:000078f8       ??_C@_1M@JIJIBHDP@?$AAe?$AAs?$AA?9?$AAN?$AAI@ 000000018004c8f8     libucrt:lcidtoname_downlevel.obj
 0002:00007908       ??_C@_1M@CGFMKEEK@?$AAe?$AAs?$AA?9?$AAP?$AAR@ 000000018004c908     libucrt:lcidtoname_downlevel.obj
 0002:00007918       ??_C@_1O@ICJHKIIK@?$AAz?$AAh?$AA?9?$AAC?$AAH?$AAT@ 000000018004c918     libucrt:lcidtoname_downlevel.obj
 0002:00007928       ??_C@_15CLNEJCE@?$AAs?$AAr@ 000000018004c928     libucrt:lcidtoname_downlevel.obj
 0002:00008770       ??_C@_1M@KAHEKEIG@?$AAa?$AAf?$AA?9?$AAz?$AAa@ 000000018004d770     libucrt:lcidtoname_downlevel.obj
 0002:00008780       ??_C@_1M@GIECOABL@?$AAa?$AAr?$AA?9?$AAa?$AAe@ 000000018004d780     libucrt:lcidtoname_downlevel.obj
 0002:00008790       ??_C@_1M@BMLMEKGI@?$AAa?$AAr?$AA?9?$AAb?$AAh@ 000000018004d790     libucrt:lcidtoname_downlevel.obj
 0002:000087a0       ??_C@_1M@DAPFDGGB@?$AAa?$AAr?$AA?9?$AAd?$AAz@ 000000018004d7a0     libucrt:lcidtoname_downlevel.obj
 0002:000087b0       ??_C@_1M@FJNKGKIG@?$AAa?$AAr?$AA?9?$AAe?$AAg@ 000000018004d7b0     libucrt:lcidtoname_downlevel.obj
 0002:000087c0       ??_C@_1M@FLGKKCLO@?$AAa?$AAr?$AA?9?$AAi?$AAq@ 000000018004d7c0     libucrt:lcidtoname_downlevel.obj
 0002:000087d0       ??_C@_1M@GNDIPALM@?$AAa?$AAr?$AA?9?$AAj?$AAo@ 000000018004d7d0     libucrt:lcidtoname_downlevel.obj
 0002:000087e0       ??_C@_1M@DDMJFMGJ@?$AAa?$AAr?$AA?9?$AAk?$AAw@ 000000018004d7e0     libucrt:lcidtoname_downlevel.obj
 0002:000087f0       ??_C@_1M@EJALMLHM@?$AAa?$AAr?$AA?9?$AAl?$AAb@ 000000018004d7f0     libucrt:lcidtoname_downlevel.obj
 0002:00008800       ??_C@_1M@MOBDBLOC@?$AAa?$AAr?$AA?9?$AAl?$AAy@ 000000018004d800     libucrt:lcidtoname_downlevel.obj
 0002:00008810       ??_C@_1M@JAOCLHDH@?$AAa?$AAr?$AA?9?$AAm?$AAa@ 000000018004d810     libucrt:lcidtoname_downlevel.obj
 0002:00008820       ??_C@_1M@JHPMKJIE@?$AAa?$AAr?$AA?9?$AAo?$AAm@ 000000018004d820     libucrt:lcidtoname_downlevel.obj
 0002:00008830       ??_C@_1M@OEPGHFNH@?$AAa?$AAr?$AA?9?$AAq?$AAa@ 000000018004d830     libucrt:lcidtoname_downlevel.obj
 0002:00008840       ??_C@_1M@KJDONENM@?$AAa?$AAr?$AA?9?$AAs?$AAa@ 000000018004d840     libucrt:lcidtoname_downlevel.obj
 0002:00008850       ??_C@_1M@DMJDKLKM@?$AAa?$AAr?$AA?9?$AAs?$AAy@ 000000018004d850     libucrt:lcidtoname_downlevel.obj
 0002:00008860       ??_C@_1M@OMFIPEDC@?$AAa?$AAr?$AA?9?$AAt?$AAn@ 000000018004d860     libucrt:lcidtoname_downlevel.obj
 0002:00008870       ??_C@_1M@IHMHGAON@?$AAa?$AAr?$AA?9?$AAy?$AAe@ 000000018004d870     libucrt:lcidtoname_downlevel.obj
 0002:00008880       ??_C@_1BG@KDCPGJGB@?$AAa?$AAz?$AA?9?$AAa?$AAz?$AA?9?$AAc?$AAy?$AAr?$AAl@ 000000018004d880     libucrt:lcidtoname_downlevel.obj
 0002:00008898       ??_C@_1BG@IBCKDDOE@?$AAa?$AAz?$AA?9?$AAa?$AAz?$AA?9?$AAl?$AAa?$AAt?$AAn@ 000000018004d898     libucrt:lcidtoname_downlevel.obj
 0002:000088b0       ??_C@_1M@EGPFDCPD@?$AAb?$AAe?$AA?9?$AAb?$AAy@ 000000018004d8b0     libucrt:lcidtoname_downlevel.obj
 0002:000088c0       ??_C@_1M@PCMGMCGC@?$AAb?$AAg?$AA?9?$AAb?$AAg@ 000000018004d8c0     libucrt:lcidtoname_downlevel.obj
 0002:000088d0       ??_C@_1M@BJBMFGOB@?$AAb?$AAn?$AA?9?$AAi?$AAn@ 000000018004d8d0     libucrt:lcidtoname_downlevel.obj
 0002:000088e0       ??_C@_1BG@EAKMMACD@?$AAb?$AAs?$AA?9?$AAb?$AAa?$AA?9?$AAl?$AAa?$AAt?$AAn@ 000000018004d8e0     libucrt:lcidtoname_downlevel.obj
 0002:000088f8       ??_C@_1M@KGADAODK@?$AAc?$AAa?$AA?9?$AAe?$AAs@ 000000018004d8f8     libucrt:lcidtoname_downlevel.obj
 0002:00008908       ??_C@_1M@COAJPDHI@?$AAc?$AAs?$AA?9?$AAc?$AAz@ 000000018004d908     libucrt:lcidtoname_downlevel.obj
 0002:00008918       ??_C@_1M@DHBHFONH@?$AAc?$AAy?$AA?9?$AAg?$AAb@ 000000018004d918     libucrt:lcidtoname_downlevel.obj
 0002:00008928       ??_C@_1M@IMGKELGA@?$AAd?$AAa?$AA?9?$AAd?$AAk@ 000000018004d928     libucrt:lcidtoname_downlevel.obj
 0002:00008938       ??_C@_1M@NNDGDNGA@?$AAd?$AAe?$AA?9?$AAa?$AAt@ 000000018004d938     libucrt:lcidtoname_downlevel.obj
 0002:00008948       ??_C@_1M@IKDBHEEM@?$AAd?$AAe?$AA?9?$AAc?$AAh@ 000000018004d948     libucrt:lcidtoname_downlevel.obj
 0002:00008958       ??_C@_1M@GFFOJMCJ@?$AAd?$AAe?$AA?9?$AAd?$AAe@ 000000018004d958     libucrt:lcidtoname_downlevel.obj
 0002:00008968       ??_C@_1M@MDNLKBPM@?$AAd?$AAe?$AA?9?$AAl?$AAi@ 000000018004d968     libucrt:lcidtoname_downlevel.obj
 0002:00008978       ??_C@_1M@NJBEEJNL@?$AAd?$AAe?$AA?9?$AAl?$AAu@ 000000018004d978     libucrt:lcidtoname_downlevel.obj
 0002:00008988       ??_C@_1O@GNNELBAP@?$AAd?$AAi?$AAv?$AA?9?$AAm?$AAv@ 000000018004d988     libucrt:lcidtoname_downlevel.obj
 0002:00008998       ??_C@_1M@EJLEOGAE@?$AAe?$AAl?$AA?9?$AAg?$AAr@ 000000018004d998     libucrt:lcidtoname_downlevel.obj
 0002:000089a8       ??_C@_1M@GMPONJN@?$AAe?$AAn?$AA?9?$AAa?$AAu@ 000000018004d9a8     libucrt:lcidtoname_downlevel.obj
 0002:000089b8       ??_C@_1M@NIDIIPGF@?$AAe?$AAn?$AA?9?$AAb?$AAz@ 000000018004d9b8     libucrt:lcidtoname_downlevel.obj
 0002:000089c8       ??_C@_1M@JEHMIMFO@?$AAe?$AAn?$AA?9?$AAc?$AAa@ 000000018004d9c8     libucrt:lcidtoname_downlevel.obj
 0002:000089d8       ??_C@_1M@IGMJCDLA@?$AAe?$AAn?$AA?9?$AAc?$AAb@ 000000018004d9d8     libucrt:lcidtoname_downlevel.obj
 0002:000089e8       ??_C@_1M@BNFIGBKG@?$AAe?$AAn?$AA?9?$AAg?$AAb@ 000000018004d9e8     libucrt:lcidtoname_downlevel.obj
 0002:000089f8       ??_C@_1M@LKIFDIGP@?$AAe?$AAn?$AA?9?$AAi?$AAe@ 000000018004d9f8     libucrt:lcidtoname_downlevel.obj
 0002:00008a08       ??_C@_1M@PJKFGCCO@?$AAe?$AAn?$AA?9?$AAj?$AAm@ 000000018004da08     libucrt:lcidtoname_downlevel.obj
 0002:00008a18       ??_C@_1M@KPPKEPBO@?$AAe?$AAn?$AA?9?$AAn?$AAz@ 000000018004da18     libucrt:lcidtoname_downlevel.obj
 0002:00008a28       ??_C@_1M@GMDGLDOB@?$AAe?$AAn?$AA?9?$AAp?$AAh@ 000000018004da28     libucrt:lcidtoname_downlevel.obj
 0002:00008a38       ??_C@_1M@ONGIBJNA@?$AAe?$AAn?$AA?9?$AAt?$AAt@ 000000018004da38     libucrt:lcidtoname_downlevel.obj
 0002:00008a48       ??_C@_1M@LLODPCMM@?$AAe?$AAn?$AA?9?$AAu?$AAs@ 000000018004da48     libucrt:lcidtoname_downlevel.obj
 0002:00008a58       ??_C@_1M@LAKFNPAN@?$AAe?$AAn?$AA?9?$AAz?$AAa@ 000000018004da58     libucrt:lcidtoname_downlevel.obj
 0002:00008a68       ??_C@_1M@MFNHNHEO@?$AAe?$AAn?$AA?9?$AAz?$AAw@ 000000018004da68     libucrt:lcidtoname_downlevel.obj
 0002:00008a78       ??_C@_1M@EJEINPHM@?$AAe?$AAs?$AA?9?$AAa?$AAr@ 000000018004da78     libucrt:lcidtoname_downlevel.obj
 0002:00008a88       ??_C@_1M@GNKPCCJA@?$AAe?$AAs?$AA?9?$AAb?$AAo@ 000000018004da88     libucrt:lcidtoname_downlevel.obj
 0002:00008a98       ??_C@_1M@LEEGFONL@?$AAe?$AAs?$AA?9?$AAc?$AAl@ 000000018004da98     libucrt:lcidtoname_downlevel.obj
 0002:00008aa8       ??_C@_1M@KGPDPBDF@?$AAe?$AAs?$AA?9?$AAc?$AAo@ 000000018004daa8     libucrt:lcidtoname_downlevel.obj
 0002:00008ab8       ??_C@_1M@EIAHOHH@?$AAe?$AAs?$AA?9?$AAc?$AAr@ 000000018004dab8     libucrt:lcidtoname_downlevel.obj
 0002:00008ac8       ??_C@_1M@LLPGMBIN@?$AAe?$AAs?$AA?9?$AAd?$AAo@ 000000018004dac8     libucrt:lcidtoname_downlevel.obj
 0002:00008ad8       ??_C@_1M@DKHMKNJA@?$AAe?$AAs?$AA?9?$AAe?$AAc@ 000000018004dad8     libucrt:lcidtoname_downlevel.obj
 0002:00008ae8       ??_C@_1M@GKGFPKAP@?$AAe?$AAs?$AA?9?$AAe?$AAs@ 000000018004dae8     libucrt:lcidtoname_downlevel.obj
 0002:00008af8       ??_C@_1M@LKHKGDLN@?$AAe?$AAs?$AA?9?$AAg?$AAt@ 000000018004daf8     libucrt:lcidtoname_downlevel.obj
 0002:00008b08       ??_C@_1M@HEIIGGJD@?$AAe?$AAs?$AA?9?$AAh?$AAn@ 000000018004db08     libucrt:lcidtoname_downlevel.obj
 0002:00008b18       ??_C@_1M@FBDHPPGD@?$AAe?$AAs?$AA?9?$AAm?$AAx@ 000000018004db18     libucrt:lcidtoname_downlevel.obj
 0002:00008b28       ??_C@_1M@DPAGLNDH@?$AAe?$AAs?$AA?9?$AAn?$AAi@ 000000018004db28     libucrt:lcidtoname_downlevel.obj
 0002:00008b38       ??_C@_1M@MDGOPGDD@?$AAe?$AAs?$AA?9?$AAp?$AAa@ 000000018004db38     libucrt:lcidtoname_downlevel.obj
 0002:00008b48       ??_C@_1M@EMAMGBGE@?$AAe?$AAs?$AA?9?$AAp?$AAe@ 000000018004db48     libucrt:lcidtoname_downlevel.obj
 0002:00008b58       ??_C@_1M@IBMCAOEC@?$AAe?$AAs?$AA?9?$AAp?$AAr@ 000000018004db58     libucrt:lcidtoname_downlevel.obj
 0002:00008b68       ??_C@_1M@FGMDIJED@?$AAe?$AAs?$AA?9?$AAp?$AAy@ 000000018004db68     libucrt:lcidtoname_downlevel.obj
 0002:00008b78       ??_C@_1M@IIDEOLLL@?$AAe?$AAs?$AA?9?$AAs?$AAv@ 000000018004db78     libucrt:lcidtoname_downlevel.obj
 0002:00008b88       ??_C@_1M@GAOBIPA@?$AAe?$AAs?$AA?9?$AAu?$AAy@ 000000018004db88     libucrt:lcidtoname_downlevel.obj
 0002:00008b98       ??_C@_1M@JKFFICHJ@?$AAe?$AAs?$AA?9?$AAv?$AAe@ 000000018004db98     libucrt:lcidtoname_downlevel.obj
 0002:00008ba8       ??_C@_1M@PNMLOJDF@?$AAe?$AAt?$AA?9?$AAe?$AAe@ 000000018004dba8     libucrt:lcidtoname_downlevel.obj
 0002:00008bb8       ??_C@_1M@GHHLIKEI@?$AAe?$AAu?$AA?9?$AAe?$AAs@ 000000018004dbb8     libucrt:lcidtoname_downlevel.obj
 0002:00008bc8       ??_C@_1M@PBNONODE@?$AAf?$AAa?$AA?9?$AAi?$AAr@ 000000018004dbc8     libucrt:lcidtoname_downlevel.obj
 0002:00008bd8       ??_C@_1M@JEEHPMIL@?$AAf?$AAi?$AA?9?$AAf?$AAi@ 000000018004dbd8     libucrt:lcidtoname_downlevel.obj
 0002:00008be8       ??_C@_1M@LMDCNDBA@?$AAf?$AAo?$AA?9?$AAf?$AAo@ 000000018004dbe8     libucrt:lcidtoname_downlevel.obj
 0002:00008bf8       ??_C@_1M@JKEOHLDK@?$AAf?$AAr?$AA?9?$AAb?$AAe@ 000000018004dbf8     libucrt:lcidtoname_downlevel.obj
 0002:00008c08       ??_C@_1M@NOHADPMI@?$AAf?$AAr?$AA?9?$AAc?$AAa@ 000000018004dc08     libucrt:lcidtoname_downlevel.obj
 0002:00008c18       ??_C@_1M@KDHIHAEC@?$AAf?$AAr?$AA?9?$AAc?$AAh@ 000000018004dc18     libucrt:lcidtoname_downlevel.obj
 0002:00008c28       ??_C@_1M@MMBBFGAK@?$AAf?$AAr?$AA?9?$AAf?$AAr@ 000000018004dc28     libucrt:lcidtoname_downlevel.obj
 0002:00008c38       ??_C@_1M@PAFNENNF@?$AAf?$AAr?$AA?9?$AAl?$AAu@ 000000018004dc38     libucrt:lcidtoname_downlevel.obj
 0002:00008c48       ??_C@_1M@EOHDJGDD@?$AAf?$AAr?$AA?9?$AAm?$AAc@ 000000018004dc48     libucrt:lcidtoname_downlevel.obj
 0002:00008c58       ??_C@_1M@FAPLLOPF@?$AAg?$AAl?$AA?9?$AAe?$AAs@ 000000018004dc58     libucrt:lcidtoname_downlevel.obj
 0002:00008c68       ??_C@_1M@FOPBFLOO@?$AAg?$AAu?$AA?9?$AAi?$AAn@ 000000018004dc68     libucrt:lcidtoname_downlevel.obj
 0002:00008c78       ??_C@_1M@KBMCINPM@?$AAh?$AAe?$AA?9?$AAi?$AAl@ 000000018004dc78     libucrt:lcidtoname_downlevel.obj
 0002:00008c88       ??_C@_1M@BBPHKFPJ@?$AAh?$AAi?$AA?9?$AAi?$AAn@ 000000018004dc88     libucrt:lcidtoname_downlevel.obj
 0002:00008c98       ??_C@_1M@PMBNDPHD@?$AAh?$AAr?$AA?9?$AAb?$AAa@ 000000018004dc98     libucrt:lcidtoname_downlevel.obj
 0002:00008ca8       ??_C@_1M@BPCKOEGE@?$AAh?$AAr?$AA?9?$AAh?$AAr@ 000000018004dca8     libucrt:lcidtoname_downlevel.obj
 0002:00008cb8       ??_C@_1M@GACBMHKE@?$AAh?$AAu?$AA?9?$AAh?$AAu@ 000000018004dcb8     libucrt:lcidtoname_downlevel.obj
 0002:00008cc8       ??_C@_1M@MILPAJJC@?$AAh?$AAy?$AA?9?$AAa?$AAm@ 000000018004dcc8     libucrt:lcidtoname_downlevel.obj
 0002:00008cd8       ??_C@_1M@BABBICEC@?$AAi?$AAd?$AA?9?$AAi?$AAd@ 000000018004dcd8     libucrt:lcidtoname_downlevel.obj
 0002:00008ce8       ??_C@_1M@BIKNHHPF@?$AAi?$AAs?$AA?9?$AAi?$AAs@ 000000018004dce8     libucrt:lcidtoname_downlevel.obj
 0002:00008cf8       ??_C@_1M@NMPCJPHE@?$AAi?$AAt?$AA?9?$AAc?$AAh@ 000000018004dcf8     libucrt:lcidtoname_downlevel.obj
 0002:00008d08       ??_C@_1M@GHKGFEDF@?$AAi?$AAt?$AA?9?$AAi?$AAt@ 000000018004dd08     libucrt:lcidtoname_downlevel.obj
 0002:00008d18       ??_C@_1M@NIEJCJJA@?$AAj?$AAa?$AA?9?$AAj?$AAp@ 000000018004dd18     libucrt:lcidtoname_downlevel.obj
 0002:00008d28       ??_C@_1M@JILFNBIM@?$AAk?$AAa?$AA?9?$AAg?$AAe@ 000000018004dd28     libucrt:lcidtoname_downlevel.obj
 0002:00008d38       ??_C@_1M@PACPMGPH@?$AAk?$AAk?$AA?9?$AAk?$AAz@ 000000018004dd38     libucrt:lcidtoname_downlevel.obj
 0002:00008d48       ??_C@_1M@IELFGMHA@?$AAk?$AAn?$AA?9?$AAi?$AAn@ 000000018004dd48     libucrt:lcidtoname_downlevel.obj
 0002:00008d58       ??_C@_1O@IBBJHCH@?$AAk?$AAo?$AAk?$AA?9?$AAi?$AAn@ 000000018004dd58     libucrt:lcidtoname_downlevel.obj
 0002:00008d68       ??_C@_1M@DMHAEOGC@?$AAk?$AAo?$AA?9?$AAk?$AAr@ 000000018004dd68     libucrt:lcidtoname_downlevel.obj
 0002:00008d78       ??_C@_1M@HBAHBIGA@?$AAk?$AAy?$AA?9?$AAk?$AAg@ 000000018004dd78     libucrt:lcidtoname_downlevel.obj
 0002:00008d88       ??_C@_1M@KPMILCJG@?$AAl?$AAt?$AA?9?$AAl?$AAt@ 000000018004dd88     libucrt:lcidtoname_downlevel.obj
 0002:00008d98       ??_C@_1M@BDEKKCA@?$AAl?$AAv?$AA?9?$AAl?$AAv@ 000000018004dd98     libucrt:lcidtoname_downlevel.obj
 0002:00008da8       ??_C@_1M@ELCKCCJJ@?$AAm?$AAi?$AA?9?$AAn?$AAz@ 000000018004dda8     libucrt:lcidtoname_downlevel.obj
 0002:00008db8       ??_C@_1M@CBOOLAPA@?$AAm?$AAk?$AA?9?$AAm?$AAk@ 000000018004ddb8     libucrt:lcidtoname_downlevel.obj
 0002:00008dc8       ??_C@_1M@GPHNBJKN@?$AAm?$AAl?$AA?9?$AAi?$AAn@ 000000018004ddc8     libucrt:lcidtoname_downlevel.obj
 0002:00008dd8       ??_C@_1M@PABJILIG@?$AAm?$AAn?$AA?9?$AAm?$AAn@ 000000018004ddd8     libucrt:lcidtoname_downlevel.obj
 0002:00008de8       ??_C@_1M@FGBKKIPG@?$AAm?$AAr?$AA?9?$AAi?$AAn@ 000000018004dde8     libucrt:lcidtoname_downlevel.obj
 0002:00008df8       ??_C@_1M@NDBPDDAL@?$AAm?$AAs?$AA?9?$AAb?$AAn@ 000000018004ddf8     libucrt:lcidtoname_downlevel.obj
 0002:00008e08       ??_C@_1M@OPIHOOPI@?$AAm?$AAs?$AA?9?$AAm?$AAy@ 000000018004de08     libucrt:lcidtoname_downlevel.obj
 0002:00008e18       ??_C@_1M@PPDBCNFM@?$AAm?$AAt?$AA?9?$AAm?$AAt@ 000000018004de18     libucrt:lcidtoname_downlevel.obj
 0002:00008e28       ??_C@_1M@KDJDKMDD@?$AAn?$AAb?$AA?9?$AAn?$AAo@ 000000018004de28     libucrt:lcidtoname_downlevel.obj
 0002:00008e38       ??_C@_1M@KFCFLMJP@?$AAn?$AAl?$AA?9?$AAb?$AAe@ 000000018004de38     libucrt:lcidtoname_downlevel.obj
 0002:00008e48       ??_C@_1M@KPOPDDGO@?$AAn?$AAl?$AA?9?$AAn?$AAl@ 000000018004de48     libucrt:lcidtoname_downlevel.obj
 0002:00008e58       ??_C@_1M@LJKPEMLN@?$AAn?$AAn?$AA?9?$AAn?$AAo@ 000000018004de58     libucrt:lcidtoname_downlevel.obj
 0002:00008e68       ??_C@_1M@BDGHHBFL@?$AAn?$AAs?$AA?9?$AAz?$AAa@ 000000018004de68     libucrt:lcidtoname_downlevel.obj
 0002:00008e78       ??_C@_1M@IDEHOAP@?$AAp?$AAa?$AA?9?$AAi?$AAn@ 000000018004de78     libucrt:lcidtoname_downlevel.obj
 0002:00008e88       ??_C@_1M@HDBKGOGH@?$AAp?$AAl?$AA?9?$AAp?$AAl@ 000000018004de88     libucrt:lcidtoname_downlevel.obj
 0002:00008e98       ??_C@_1M@LJLLCMEH@?$AAp?$AAt?$AA?9?$AAb?$AAr@ 000000018004de98     libucrt:lcidtoname_downlevel.obj
 0002:00008ea8       ??_C@_1M@NCMONAAL@?$AAp?$AAt?$AA?9?$AAp?$AAt@ 000000018004dea8     libucrt:lcidtoname_downlevel.obj
 0002:00008eb8       ??_C@_1O@EAKMAJDN@?$AAq?$AAu?$AAz?$AA?9?$AAb?$AAo@ 000000018004deb8     libucrt:lcidtoname_downlevel.obj
 0002:00008ec8       ??_C@_1O@BHHPIGDN@?$AAq?$AAu?$AAz?$AA?9?$AAe?$AAc@ 000000018004dec8     libucrt:lcidtoname_downlevel.obj
 0002:00008ed8       ??_C@_1O@GBAPEKMJ@?$AAq?$AAu?$AAz?$AA?9?$AAp?$AAe@ 000000018004ded8     libucrt:lcidtoname_downlevel.obj
 0002:00008ee8       ??_C@_1M@CLGLEFBO@?$AAr?$AAo?$AA?9?$AAr?$AAo@ 000000018004dee8     libucrt:lcidtoname_downlevel.obj
 0002:00008ef8       ??_C@_1M@CEEDODME@?$AAr?$AAu?$AA?9?$AAr?$AAu@ 000000018004def8     libucrt:lcidtoname_downlevel.obj
 0002:00008f08       ??_C@_1M@HPKKKMPP@?$AAs?$AAa?$AA?9?$AAi?$AAn@ 000000018004df08     libucrt:lcidtoname_downlevel.obj
 0002:00008f18       ??_C@_1M@BKMAIGOJ@?$AAs?$AAe?$AA?9?$AAf?$AAi@ 000000018004df18     libucrt:lcidtoname_downlevel.obj
 0002:00008f28       ??_C@_1M@NDPIFLFI@?$AAs?$AAe?$AA?9?$AAn?$AAo@ 000000018004df28     libucrt:lcidtoname_downlevel.obj
 0002:00008f38       ??_C@_1M@DANKKHJ@?$AAs?$AAe?$AA?9?$AAs?$AAe@ 000000018004df38     libucrt:lcidtoname_downlevel.obj
 0002:00008f48       ??_C@_1M@PNBLONPJ@?$AAs?$AAk?$AA?9?$AAs?$AAk@ 000000018004df48     libucrt:lcidtoname_downlevel.obj
 0002:00008f58       ??_C@_1M@LFMODOAL@?$AAs?$AAl?$AA?9?$AAs?$AAi@ 000000018004df58     libucrt:lcidtoname_downlevel.obj
 0002:00008f68       ??_C@_1O@DFKOMPG@?$AAs?$AAm?$AAa?$AA?9?$AAn?$AAo@ 000000018004df68     libucrt:lcidtoname_downlevel.obj
 0002:00008f78       ??_C@_1O@NDKPBNNH@?$AAs?$AAm?$AAa?$AA?9?$AAs?$AAe@ 000000018004df78     libucrt:lcidtoname_downlevel.obj
 0002:00008f88       ??_C@_1O@PLLKBHAB@?$AAs?$AAm?$AAj?$AA?9?$AAn?$AAo@ 000000018004df88     libucrt:lcidtoname_downlevel.obj
 0002:00008f98       ??_C@_1O@CLEPOGCA@?$AAs?$AAm?$AAj?$AA?9?$AAs?$AAe@ 000000018004df98     libucrt:lcidtoname_downlevel.obj
 0002:00008fa8       ??_C@_1O@DLGJGKMK@?$AAs?$AAm?$AAn?$AA?9?$AAf?$AAi@ 000000018004dfa8     libucrt:lcidtoname_downlevel.obj
 0002:00008fb8       ??_C@_1O@OJDJGAJC@?$AAs?$AAm?$AAs?$AA?9?$AAf?$AAi@ 000000018004dfb8     libucrt:lcidtoname_downlevel.obj
 0002:00008fc8       ??_C@_1M@BOFOGHPB@?$AAs?$AAq?$AA?9?$AAa?$AAl@ 000000018004dfc8     libucrt:lcidtoname_downlevel.obj
 0002:00008fd8       ??_C@_1BG@LJBBIPGB@?$AAs?$AAr?$AA?9?$AAb?$AAa?$AA?9?$AAc?$AAy?$AAr?$AAl@ 000000018004dfd8     libucrt:lcidtoname_downlevel.obj
 0002:00008ff0       ??_C@_1BG@JLBENFOE@?$AAs?$AAr?$AA?9?$AAb?$AAa?$AA?9?$AAl?$AAa?$AAt?$AAn@ 000000018004dff0     libucrt:lcidtoname_downlevel.obj
 0002:00009008       ??_C@_1BG@KODPNHE@?$AAs?$AAr?$AA?9?$AAs?$AAp?$AA?9?$AAc?$AAy?$AAr?$AAl@ 000000018004e008     libucrt:lcidtoname_downlevel.obj
 0002:00009020       ??_C@_1BG@CIOGKHPB@?$AAs?$AAr?$AA?9?$AAs?$AAp?$AA?9?$AAl?$AAa?$AAt?$AAn@ 000000018004e020     libucrt:lcidtoname_downlevel.obj
 0002:00009038       ??_C@_1M@NGFJLMAC@?$AAs?$AAv?$AA?9?$AAf?$AAi@ 000000018004e038     libucrt:lcidtoname_downlevel.obj
 0002:00009048       ??_C@_1M@MPJEJAJC@?$AAs?$AAv?$AA?9?$AAs?$AAe@ 000000018004e048     libucrt:lcidtoname_downlevel.obj
 0002:00009058       ??_C@_1M@MPNDHLFK@?$AAs?$AAw?$AA?9?$AAk?$AAe@ 000000018004e058     libucrt:lcidtoname_downlevel.obj
 0002:00009068       ??_C@_1O@KOHBJJI@?$AAs?$AAy?$AAr?$AA?9?$AAs?$AAy@ 000000018004e068     libucrt:lcidtoname_downlevel.obj
 0002:00009078       ??_C@_1M@LDCEFHA@?$AAt?$AAa?$AA?9?$AAi?$AAn@ 000000018004e078     libucrt:lcidtoname_downlevel.obj
 0002:00009088       ??_C@_1M@CNJOFAK@?$AAt?$AAe?$AA?9?$AAi?$AAn@ 000000018004e088     libucrt:lcidtoname_downlevel.obj
 0002:00009098       ??_C@_1M@GNAECACD@?$AAt?$AAh?$AA?9?$AAt?$AAh@ 000000018004e098     libucrt:lcidtoname_downlevel.obj
 0002:000090a8       ??_C@_1M@CHBIHOJO@?$AAt?$AAn?$AA?9?$AAz?$AAa@ 000000018004e0a8     libucrt:lcidtoname_downlevel.obj
 0002:000090b8       ??_C@_1M@GCCMIGPJ@?$AAt?$AAr?$AA?9?$AAt?$AAr@ 000000018004e0b8     libucrt:lcidtoname_downlevel.obj
 0002:000090c8       ??_C@_1M@CELMCNBK@?$AAt?$AAt?$AA?9?$AAr?$AAu@ 000000018004e0c8     libucrt:lcidtoname_downlevel.obj
 0002:000090d8       ??_C@_1M@KLMCELGA@?$AAu?$AAk?$AA?9?$AAu?$AAa@ 000000018004e0d8     libucrt:lcidtoname_downlevel.obj
 0002:000090e8       ??_C@_1M@EPAJJAJF@?$AAu?$AAr?$AA?9?$AAp?$AAk@ 000000018004e0e8     libucrt:lcidtoname_downlevel.obj
 0002:000090f8       ??_C@_1BG@GEGPMCDJ@?$AAu?$AAz?$AA?9?$AAu?$AAz?$AA?9?$AAc?$AAy?$AAr?$AAl@ 000000018004e0f8     libucrt:lcidtoname_downlevel.obj
 0002:00009110       ??_C@_1BG@EGGKJILM@?$AAu?$AAz?$AA?9?$AAu?$AAz?$AA?9?$AAl?$AAa?$AAt?$AAn@ 000000018004e110     libucrt:lcidtoname_downlevel.obj
 0002:00009128       ??_C@_1M@GFOCLFF@?$AAv?$AAi?$AA?9?$AAv?$AAn@ 000000018004e128     libucrt:lcidtoname_downlevel.obj
 0002:00009138       ??_C@_1M@CPAMEDFI@?$AAx?$AAh?$AA?9?$AAz?$AAa@ 000000018004e138     libucrt:lcidtoname_downlevel.obj
 0002:00009148       ??_C@_1O@EBKIFIGN@?$AAz?$AAh?$AA?9?$AAc?$AAh?$AAs@ 000000018004e148     libucrt:lcidtoname_downlevel.obj
 0002:00009158       ??_C@_1O@NMHPGANE@?$AAz?$AAh?$AA?9?$AAc?$AAh?$AAt@ 000000018004e158     libucrt:lcidtoname_downlevel.obj
 0002:00009168       ??_C@_1M@LPINJOMC@?$AAz?$AAh?$AA?9?$AAc?$AAn@ 000000018004e168     libucrt:lcidtoname_downlevel.obj
 0002:00009178       ??_C@_1M@OCJEJODD@?$AAz?$AAh?$AA?9?$AAh?$AAk@ 000000018004e178     libucrt:lcidtoname_downlevel.obj
 0002:00009188       ??_C@_1M@DNDLJINH@?$AAz?$AAh?$AA?9?$AAm?$AAo@ 000000018004e188     libucrt:lcidtoname_downlevel.obj
 0002:00009198       ??_C@_1M@MBFDNDND@?$AAz?$AAh?$AA?9?$AAs?$AAg@ 000000018004e198     libucrt:lcidtoname_downlevel.obj
 0002:000091a8       ??_C@_1M@IMEPLEPE@?$AAz?$AAh?$AA?9?$AAt?$AAw@ 000000018004e1a8     libucrt:lcidtoname_downlevel.obj
 0002:000091b8       ??_C@_1M@BBGHNHJP@?$AAz?$AAu?$AA?9?$AAz?$AAa@ 000000018004e1b8     libucrt:lcidtoname_downlevel.obj
 0002:000091d0       ?large_power_data@?1??multiply_by_power_of_ten@__crt_strtox@@YA_NAEAUbig_integer@2@I@Z@4QBIB 000000018004e1d0     libucrt:cfout.obj
 0002:00009b78       ?small_powers_of_ten@?1??multiply_by_power_of_ten@__crt_strtox@@YA_NAEAUbig_integer@2@I@Z@4QBIB 000000018004eb78     libucrt:cfout.obj
 0002:00009b9c       ??_C@_01GBGANLPD@0@        000000018004eb9c     libucrt:cfout.obj
 0002:00009ba0       ??_C@_05DNEBIAHO@1?$CDINF@ 000000018004eba0     libucrt:cfout.obj
 0002:00009ba8       ??_C@_06IMKFLFPG@1?$CDQNAN@ 000000018004eba8     libucrt:cfout.obj
 0002:00009bb0       ??_C@_06PGGFOGJG@1?$CDSNAN@ 000000018004ebb0     libucrt:cfout.obj
 0002:00009bb8       ??_C@_05PHHOCPM@1?$CDIND@  000000018004ebb8     libucrt:cfout.obj
 0002:00009e10       ??_C@_1BA@BALFACEM@?$AAC?$AAO?$AAN?$AAO?$AAU?$AAT?$AA$@ 000000018004ee10     libucrt:initcon.obj
 0002:00009e20       __log10_256_lead           000000018004ee20     libucrt:log10_256_lead_tail_table.obj
 0002:0000a630       __log10_256_tail           000000018004f630     libucrt:log10_256_lead_tail_table.obj
 0002:0000ae40       __log_F_inv_qword          000000018004fe40     libucrt:log_f_inv_qword_table.obj
 0002:0000b6b8       ??_R4type_info@@6B@        00000001800506b8     LIBCMT:std_type_info_static.obj
 0002:0000b6e0       ??_R3type_info@@8          00000001800506e0     LIBCMT:std_type_info_static.obj
 0002:0000b6f8       ??_R2type_info@@8          00000001800506f8     LIBCMT:std_type_info_static.obj
 0002:0000b708       ??_R1A@?0A@EA@type_info@@8 0000000180050708     LIBCMT:std_type_info_static.obj
 0002:0000b730       ??_R3DNameNode@@8          0000000180050730     libvcruntime:undname.obj
 0002:0000b748       ??_R2DNameNode@@8          0000000180050748     libvcruntime:undname.obj
 0002:0000b758       ??_R1A@?0A@EA@DNameNode@@8 0000000180050758     libvcruntime:undname.obj
 0002:0000b780       ??_R4charNode@@6B@         0000000180050780     libvcruntime:undname.obj
 0002:0000b7a8       ??_R3charNode@@8           00000001800507a8     libvcruntime:undname.obj
 0002:0000b7c0       ??_R2charNode@@8           00000001800507c0     libvcruntime:undname.obj
 0002:0000b7d8       ??_R1A@?0A@EA@charNode@@8  00000001800507d8     libvcruntime:undname.obj
 0002:0000b800       ??_R4pcharNode@@6B@        0000000180050800     libvcruntime:undname.obj
 0002:0000b828       ??_R3pcharNode@@8          0000000180050828     libvcruntime:undname.obj
 0002:0000b840       ??_R2pcharNode@@8          0000000180050840     libvcruntime:undname.obj
 0002:0000b858       ??_R1A@?0A@EA@pcharNode@@8 0000000180050858     libvcruntime:undname.obj
 0002:0000b880       ??_R4pDNameNode@@6B@       0000000180050880     libvcruntime:undname.obj
 0002:0000b8a8       ??_R3pDNameNode@@8         00000001800508a8     libvcruntime:undname.obj
 0002:0000b8c0       ??_R2pDNameNode@@8         00000001800508c0     libvcruntime:undname.obj
 0002:0000b8d8       ??_R1A@?0A@EA@pDNameNode@@8 00000001800508d8     libvcruntime:undname.obj
 0002:0000b900       ??_R4DNameStatusNode@@6B@  0000000180050900     libvcruntime:undname.obj
 0002:0000b928       ??_R3DNameStatusNode@@8    0000000180050928     libvcruntime:undname.obj
 0002:0000b940       ??_R2DNameStatusNode@@8    0000000180050940     libvcruntime:undname.obj
 0002:0000b958       ??_R1A@?0A@EA@DNameStatusNode@@8 0000000180050958     libvcruntime:undname.obj
 0002:0000b980       ??_R4pairNode@@6B@         0000000180050980     libvcruntime:undname.obj
 0002:0000b9a8       ??_R3pairNode@@8           00000001800509a8     libvcruntime:undname.obj
 0002:0000b9c0       ??_R2pairNode@@8           00000001800509c0     libvcruntime:undname.obj
 0002:0000b9d8       ??_R1A@?0A@EA@pairNode@@8  00000001800509d8     libvcruntime:undname.obj
 0002:0000ba00       ??_R4exception@std@@6B@    0000000180050a00     libvcruntime:frame.obj
 0002:0000ba28       ??_R3exception@std@@8      0000000180050a28     libvcruntime:frame.obj
 0002:0000ba40       ??_R2exception@std@@8      0000000180050a40     libvcruntime:frame.obj
 0002:0000ba50       ??_R1A@?0A@EA@exception@std@@8 0000000180050a50     libvcruntime:frame.obj
 0002:0000ba78       ??_R4bad_exception@std@@6B@ 0000000180050a78     libvcruntime:frame.obj
 0002:0000baa0       ??_R3bad_exception@std@@8  0000000180050aa0     libvcruntime:frame.obj
 0002:0000bab8       ??_R2bad_exception@std@@8  0000000180050ab8     libvcruntime:frame.obj
 0002:0000bad0       ??_R1A@?0A@EA@bad_exception@std@@8 0000000180050ad0     libvcruntime:frame.obj
 0002:0000bee8       __rtc_iaa                  0000000180050ee8     LIBCMT:initsect.obj
 0002:0000bef0       __rtc_izz                  0000000180050ef0     LIBCMT:initsect.obj
 0002:0000bef8       __rtc_taa                  0000000180050ef8     LIBCMT:initsect.obj
 0002:0000bf00       __rtc_tzz                  0000000180050f00     LIBCMT:initsect.obj
 0002:0000fc68       _TI2?AVbad_exception@std@@ 0000000180054c68     libvcruntime:frame.obj
 0002:0000fc88       _CTA2?AVbad_exception@std@@ 0000000180054c88     libvcruntime:frame.obj
 0002:0000fca0       _CT??_R0?AVbad_exception@std@@@8??0bad_exception@std@@QEAA@AEBV01@@Z24 0000000180054ca0     libvcruntime:frame.obj
 0002:0000fcc8       _CT??_R0?AVexception@std@@@8??0exception@std@@QEAA@AEBV01@@Z24 0000000180054cc8     libvcruntime:frame.obj
 0002:0000fcec       __DELAY_IMPORT_DESCRIPTOR_physxcommon_64_dll 0000000180054cec     PhysXCommon_64:PhysXCommon_64.dll
 0002:0000fd0c       __DELAY_IMPORT_DESCRIPTOR_physxfoundation_64_dll 0000000180054d0c     PhysXFoundation_64:PhysXFoundation_64.dll
 0002:0000fd2c       __NULL_DELAY_IMPORT_DESCRIPTOR 0000000180054d2c     PhysXCommon_64:PhysXCommon_64.dll
 0002:0000fe70       \177PhysXCommon_64_NULL_THUNK_DATA_DLN 0000000180054e70     PhysXCommon_64:PhysXCommon_64.dll
 0002:0000fed0       \177PhysXFoundation_64_NULL_THUNK_DATA_DLN 0000000180054ed0     PhysXFoundation_64:PhysXFoundation_64.dll
 0002:00010830       \177PhysXCommon_64_NULL_THUNK_DATA_DLB 0000000180055830     PhysXCommon_64:PhysXCommon_64.dll
 0002:00010958       \177PhysXFoundation_64_NULL_THUNK_DATA_DLB 0000000180055958     PhysXFoundation_64:PhysXFoundation_64.dll
 0002:000126b0       __IMPORT_DESCRIPTOR_KERNEL32 00000001800576b0     kernel32:KERNEL32.dll
 0002:000126c4       __NULL_IMPORT_DESCRIPTOR   00000001800576c4     kernel32:KERNEL32.dll
 0003:00000008       __pfnDliNotifyHook2        0000000180058008     WindowsCookingDelayLoadHook.obj
 0003:00000010       _fltused                   0000000180058010     LIBCMT:fltused.obj
 0003:00000020       __isa_available            0000000180058020     LIBCMT:cpu_disp.obj
 0003:00000024       __isa_enabled              0000000180058024     LIBCMT:cpu_disp.obj
 0003:00000028       __memcpy_nt_iters          0000000180058028     LIBCMT:cpu_disp.obj
 0003:00000030       __memset_nt_iters          0000000180058030     LIBCMT:cpu_disp.obj
 0003:00000040       __scrt_native_dllmain_reason 0000000180058040     LIBCMT:utility.obj
 0003:00000048       __security_cookie_complement 0000000180058048     LIBCMT:gs_cookie.obj
 0003:00000050       __security_cookie          0000000180058050     LIBCMT:gs_cookie.obj
 0003:00000080       __abort_behavior           0000000180058080     libucrt:abort.obj
 0003:000000b0       __acrt_initial_multibyte_data 00000001800580b0     libucrt:mbctype.obj
 0003:000005f0       __acrt_initial_locale_data 00000001800585f0     libucrt:nlsdata.obj
 0003:00000748       __acrt_initial_locale_pointers 0000000180058748     libucrt:nlsdata.obj
 0003:00000758       __acrt_wide_c_locale_string 0000000180058758     libucrt:nlsdata.obj
 0003:00000760       _iob                       0000000180058760     libucrt:_file.obj
 0003:00000870       __globallocalestatus       0000000180058870     libucrt:glstatus.obj
 0003:00000880       __acrt_lconv_c             0000000180058880     libucrt:localeconv.obj
 0003:00000918       __acrt_lconv_static_decimal 0000000180058918     libucrt:localeconv.obj
 0003:0000091c       __acrt_lconv_static_W_decimal 000000018005891c     libucrt:localeconv.obj
 0003:00000920       _lookuptrailbytes          0000000180058920     libucrt:read.obj
 0003:00000a30       ??_R0?AVAdjEdge@@@8        0000000180058a30     Adjacencies.obj
 0003:00000a50       ??_R0I@8                   0000000180058a50     Adjacencies.obj
 0003:00000a68       ??_R0?AVAdjTriangle@physx@@@8 0000000180058a68     Adjacencies.obj
 0003:00000a90       ??_R0?AVCooking@physx@@@8  0000000180058a90     Cooking.obj
 0003:00000ab8       ??_R0?AVHeightField@Gu@physx@@@8 0000000180058ab8     Cooking.obj
 0003:00000ae8       ??_R0?AVQuickHullConvexHullLib@physx@@@8 0000000180058ae8     Cooking.obj
 0003:00000b20       ??_R0?AUPxDebugLine@physx@@@8 0000000180058b20     Cooking.obj
 0003:00000b48       ??_R0M@8                   0000000180058b48     CookingUtils.obj
 0003:00000b60       ??_R0?AUEdgeData@Gu@physx@@@8 0000000180058b60     EdgeList.obj
 0003:00000b88       ??_R0?AUEdgeTriangleData@Gu@physx@@@8 0000000180058b88     EdgeList.obj
 0003:00000bb8       ??_R0?AVQuantizerImpl@@@8  0000000180058bb8     Quantizer.obj
 0003:00000be0       ??_R0?AVPxVec3@physx@@@8   0000000180058be0     Quantizer.obj
 0003:00000c08       ??_R0?AUSlab@NodeAllocator@Gu@physx@@@8 0000000180058c08     BVHStructureBuilder.obj
 0003:00000c40       ??_R0?AUInterval@physx@@@8 0000000180058c40     RTreeCooking.obj
 0003:00000c68       ??_R0?AURTreeNodeQ@Gu@physx@@@8 0000000180058c68     RTreeCooking.obj
 0003:00000c98       ??_R0?AURTreeNodeNQ@physx@@@8 0000000180058c98     RTreeCooking.obj
 0003:00000cc0       ??_R0?AUPxBounds3V@physx@@@8 0000000180058cc0     RTreeCooking.obj
 0003:00000ce8       ??_R0?AVEdgeListBuilder@Gu@physx@@@8 0000000180058ce8     TriangleMeshBuilder.obj
 0003:00000d18       ??_R0?AVBV32Tree@Gu@physx@@@8 0000000180058d18     TriangleMeshBuilder.obj
 0003:00000d40       ??_R0E@8                   0000000180058d40     TriangleMeshBuilder.obj
 0003:00000d58       ??_R0G@8                   0000000180058d58     TriangleMeshBuilder.obj
 0003:00000d70       ??_R0?AUEdgeTriLookup@physx@@@8 0000000180058d70     TriangleMeshBuilder.obj
 0003:00000da0       ??_R0?AUEdgeDescData@Gu@physx@@@8 0000000180058da0     ConvexHullBuilder.obj
 0003:00000dd0       ??_R0_N@8                  0000000180058dd0     ConvexHullBuilder.obj
 0003:00000de8       ??_R0?AVConvexHull@physx@@@8 0000000180058de8     ConvexHullUtils.obj
 0003:00000e10       ??_R0?AVPxPlane@physx@@@8  0000000180058e10     ConvexHullUtils.obj
 0003:00000e38       ??_R0?AVHalfEdge@ConvexHull@physx@@@8 0000000180058e38     ConvexHullUtils.obj
 0003:00000e68       ??_R0?AVBigConvexData@physx@@@8 0000000180058e68     ConvexMeshBuilder.obj
 0003:00000e98       ??_R0?AUHullTriangleData@physx@@@8 0000000180058e98     ConvexPolygonsBuilder.obj
 0003:00000ec8       ??_R0?AVPair@@@8           0000000180058ec8     ConvexPolygonsBuilder.obj
 0003:00000ee8       ??_R0?AVQuickHull@local@@@8 0000000180058ee8     QuickHullConvexHullLib.obj
 0003:00000f10       ??_R0?AUExpandPoint@local@@@8 0000000180058f10     QuickHullConvexHullLib.obj
 0003:00000f38       ??_R0PEAUQuickHullVertex@local@@@8 0000000180058f38     QuickHullConvexHullLib.obj
 0003:00000f68       ??_R0PEAUQuickHullFace@local@@@8 0000000180058f68     QuickHullConvexHullLib.obj
 0003:00000f98       ??_R0PEAUQuickHullHalfEdge@local@@@8 0000000180058f98     QuickHullConvexHullLib.obj
 0003:00000fc8       ??_R0?AVtype_info@@@8      0000000180058fc8     LIBCMT:std_type_info_static.obj
 0003:00000fe8       ??_R0?AVDNameNode@@@8      0000000180058fe8     libvcruntime:undname.obj
 0003:00001008       ??_R0?AVcharNode@@@8       0000000180059008     libvcruntime:undname.obj
 0003:00001028       ??_R0?AVpcharNode@@@8      0000000180059028     libvcruntime:undname.obj
 0003:00001048       ??_R0?AVpDNameNode@@@8     0000000180059048     libvcruntime:undname.obj
 0003:00001070       ??_R0?AVDNameStatusNode@@@8 0000000180059070     libvcruntime:undname.obj
 0003:00001098       ??_R0?AVpairNode@@@8       0000000180059098     libvcruntime:undname.obj
 0003:000010b8       ??_R0?AVbad_exception@std@@@8 00000001800590b8     libvcruntime:frame.obj
 0003:000010e0       ??_R0?AVexception@std@@@8  00000001800590e0     libvcruntime:frame.obj
 0003:00001108       __imp_??0RadixSortBuffered@Cm@physx@@QEAA@XZ 0000000180059108     PhysXCommon_64:PhysXCommon_64.dll
 0003:00001110       __imp_??1BigConvexData@physx@@QEAA@XZ 0000000180059110     PhysXCommon_64:PhysXCommon_64.dll
 0003:00001118       __imp_??1RadixSortBuffered@Cm@physx@@UEAA@XZ 0000000180059118     PhysXCommon_64:PhysXCommon_64.dll
 0003:00001120       __imp_?Sort@RadixSortBuffered@Cm@physx@@QEAAAEAV123@PEBIIW4RadixHint@23@@Z 0000000180059120     PhysXCommon_64:PhysXCommon_64.dll
 0003:00001128       __imp_??0HeightField@Gu@physx@@QEAA@PEAVGuMeshFactory@2@@Z 0000000180059128     PhysXCommon_64:PhysXCommon_64.dll
 0003:00001130       __imp_?loadFromDesc@HeightField@Gu@physx@@QEAA_NAEBVPxHeightFieldDesc@3@@Z 0000000180059130     PhysXCommon_64:PhysXCommon_64.dll
 0003:00001138       __imp_?computeCellCoordinates@HeightField@Gu@physx@@QEBAIMMAEAM0@Z 0000000180059138     PhysXCommon_64:PhysXCommon_64.dll
 0003:00001140       __imp_?releaseMemory@HeightField@Gu@physx@@QEAAXXZ 0000000180059140     PhysXCommon_64:PhysXCommon_64.dll
 0003:00001148       __imp_??1HeightField@Gu@physx@@UEAA@XZ 0000000180059148     PhysXCommon_64:PhysXCommon_64.dll
 0003:00001150       __imp_??0NodeAllocator@Gu@physx@@QEAA@XZ 0000000180059150     PhysXCommon_64:PhysXCommon_64.dll
 0003:00001158       __imp_??1NodeAllocator@Gu@physx@@QEAA@XZ 0000000180059158     PhysXCommon_64:PhysXCommon_64.dll
 0003:00001160       __imp_?release@NodeAllocator@Gu@physx@@QEAAXXZ 0000000180059160     PhysXCommon_64:PhysXCommon_64.dll
 0003:00001168       __imp_?buildAABBTree@Gu@physx@@YA_NAEAVAABBTreeBuildParams@12@AEAVNodeAllocator@12@AEAUBuildStats@12@AEAPEAI@Z 0000000180059168     PhysXCommon_64:PhysXCommon_64.dll
 0003:00001170       __imp_?writeDword@physx@@YAXI_NAEAVPxOutputStream@1@@Z 0000000180059170     PhysXCommon_64:PhysXCommon_64.dll
 0003:00001178       __imp_?writeFloatBuffer@physx@@YAXPEBMI_NAEAVPxOutputStream@1@@Z 0000000180059178     PhysXCommon_64:PhysXCommon_64.dll
 0003:00001180       __imp_?writeHeader@physx@@YA_NCCCCI_NAEAVPxOutputStream@1@@Z 0000000180059180     PhysXCommon_64:PhysXCommon_64.dll
 0003:00001188       __imp_?writeWord@physx@@YAXG_NAEAVPxOutputStream@1@@Z 0000000180059188     PhysXCommon_64:PhysXCommon_64.dll
 0003:00001190       __imp_?writeFloat@physx@@YAXM_NAEAVPxOutputStream@1@@Z 0000000180059190     PhysXCommon_64:PhysXCommon_64.dll
 0003:00001198       __imp_?computeBoundsAroundVertices@Gu@physx@@YAXAEAVPxBounds3@2@IPEIBVPxVec3@2@@Z 0000000180059198     PhysXCommon_64:PhysXCommon_64.dll
 0003:000011a0       __imp_??0SourceMesh@Gu@physx@@QEAA@XZ 00000001800591a0     PhysXCommon_64:PhysXCommon_64.dll
 0003:000011a8       __imp_??1SourceMesh@Gu@physx@@QEAA@XZ 00000001800591a8     PhysXCommon_64:PhysXCommon_64.dll
 0003:000011b0       __imp_??0BV4Tree@Gu@physx@@QEAA@XZ 00000001800591b0     PhysXCommon_64:PhysXCommon_64.dll
 0003:000011b8       __imp_??1BV4Tree@Gu@physx@@QEAA@XZ 00000001800591b8     PhysXCommon_64:PhysXCommon_64.dll
 0003:000011c0       __imp_??0BV32Tree@Gu@physx@@QEAA@XZ 00000001800591c0     PhysXCommon_64:PhysXCommon_64.dll
 0003:000011c8       __imp_??1BV32Tree@Gu@physx@@QEAA@XZ 00000001800591c8     PhysXCommon_64:PhysXCommon_64.dll
 0003:000011d0       __imp_?writeWordBuffer@physx@@YAXPEBGI_NAEAVPxOutputStream@1@@Z 00000001800591d0     PhysXCommon_64:PhysXCommon_64.dll
 0003:000011d8       __imp_?computeMaxIndex@physx@@YAIPEBII@Z 00000001800591d8     PhysXCommon_64:PhysXCommon_64.dll
 0003:000011e0       __imp_?storeIndices@physx@@YAXIIPEBIAEAVPxOutputStream@1@_N@Z 00000001800591e0     PhysXCommon_64:PhysXCommon_64.dll
 0003:000011e8       __imp_?BuildBV4Ex@Gu@physx@@YA_NAEAVBV4Tree@12@AEAVSourceMesh@12@MI@Z 00000001800591e8     PhysXCommon_64:PhysXCommon_64.dll
 0003:000011f0       __imp_?BuildBV32Ex@Gu@physx@@YA_NAEAVBV32Tree@12@AEAVSourceMesh@12@MI@Z 00000001800591f0     PhysXCommon_64:PhysXCommon_64.dll
 0003:000011f8       __imp_?computeMaxIndex@physx@@YAGPEBGI@Z 00000001800591f8     PhysXCommon_64:PhysXCommon_64.dll
 0003:00001200       __imp_?WriteHeader@Gu@physx@@YA_NEEEEI_NAEAVPxOutputStream@2@@Z 0000000180059200     PhysXCommon_64:PhysXCommon_64.dll
 0003:00001208       __imp_?StoreIndices@Gu@physx@@YAXGIPEBGAEAVPxOutputStream@2@_N@Z 0000000180059208     PhysXCommon_64:PhysXCommon_64.dll
 0003:00001210       __imp_?CreateOffsets@BigConvexData@physx@@IEAAXXZ 0000000180059210     PhysXCommon_64:PhysXCommon_64.dll
 0003:00001218       __imp_?computeOBBPoints@Gu@physx@@YAXPEIAVPxVec3@2@AEBV32@1111@Z 0000000180059218     PhysXCommon_64:PhysXCommon_64.dll
 0003:00001220       __imp_??0BigConvexData@physx@@QEAA@XZ 0000000180059220     PhysXCommon_64:PhysXCommon_64.dll
 0003:00001228       \177PhysXCommon_64_NULL_THUNK_DATA_DLA 0000000180059228     PhysXCommon_64:PhysXCommon_64.dll
 0003:00001230       __imp_PxGetFoundation      0000000180059230     PhysXFoundation_64:PhysXFoundation_64.dll
 0003:00001238       __imp_?deallocate@TempAllocator@shdfnd@physx@@QEAAXPEAX@Z 0000000180059238     PhysXFoundation_64:PhysXFoundation_64.dll
 0003:00001240       __imp_?getAllocator@shdfnd@physx@@YAAEAVPxAllocatorCallback@2@XZ 0000000180059240     PhysXFoundation_64:PhysXFoundation_64.dll
 0003:00001248       __imp_?getInstance@Foundation@shdfnd@physx@@SAAEAV123@XZ 0000000180059248     PhysXFoundation_64:PhysXFoundation_64.dll
 0003:00001250       __imp_?error@Foundation@shdfnd@physx@@QEAAXW4Enum@PxErrorCode@3@PEBDH1ZZ 0000000180059250     PhysXFoundation_64:PhysXFoundation_64.dll
 0003:00001258       __imp_?incRefCount@Foundation@shdfnd@physx@@SAXXZ 0000000180059258     PhysXFoundation_64:PhysXFoundation_64.dll
 0003:00001260       __imp_?decRefCount@Foundation@shdfnd@physx@@SAXXZ 0000000180059260     PhysXFoundation_64:PhysXFoundation_64.dll
 0003:00001268       __imp_??0FPUGuard@shdfnd@physx@@QEAA@XZ 0000000180059268     PhysXFoundation_64:PhysXFoundation_64.dll
 0003:00001270       __imp_??1FPUGuard@shdfnd@physx@@QEAA@XZ 0000000180059270     PhysXFoundation_64:PhysXFoundation_64.dll
 0003:00001278       __imp_?allocate@TempAllocator@shdfnd@physx@@QEAAPEAX_KPEBDH@Z 0000000180059278     PhysXFoundation_64:PhysXFoundation_64.dll
 0003:00001280       __imp_?PxDiagonalize@physx@@YA?AVPxVec3@1@AEBVPxMat33@1@AEAVPxQuat@1@@Z 0000000180059280     PhysXFoundation_64:PhysXFoundation_64.dll
 0003:00001288       \177PhysXFoundation_64_NULL_THUNK_DATA_DLA 0000000180059288     PhysXFoundation_64:PhysXFoundation_64.dll
 0003:00001658       __hmod__PhysXCommon_64_dll 0000000180059658     PhysXCommon_64:PhysXCommon_64.dll
 0003:00001660       __hmod__PhysXFoundation_64_dll 0000000180059660     PhysXFoundation_64:PhysXFoundation_64.dll
 0003:00001668       ?DloadKernel32@@3PEAUHINSTANCE__@@EA 0000000180059668     Delayimp:delayhlp.obj
 0003:00001670       ?DloadAcquireSRWLockExclusive@@3P6AXPEA_K@ZEA 0000000180059670     Delayimp:delayhlp.obj
 0003:00001678       ?DloadReleaseSRWLockExclusive@@3P6AXPEA_K@ZEA 0000000180059678     Delayimp:delayhlp.obj
 0003:00001680       ?DloadSrwLock@@3_KA        0000000180059680     Delayimp:delayhlp.obj
 0003:00001688       ?DloadSectionLockCount@@3KA 0000000180059688     Delayimp:delayhlp.obj
 0003:0000168c       ?DloadSectionOldProtection@@3KA 000000018005968c     Delayimp:delayhlp.obj
 0003:00001690       ?DloadSectionCommitPermanent@@3KA 0000000180059690     Delayimp:delayhlp.obj
 0003:000016a0       ?__type_info_root_node@@3U__type_info_node@@A 00000001800596a0     LIBCMT:tncleanup.obj
 0003:000016b4       __favor                    00000001800596b4     LIBCMT:cpu_disp.obj
 0003:000016b8       ?_OptionsStorage@?1??__local_stdio_printf_options@@9@4_KA 00000001800596b8     LIBCMT:default_local_stdio_options.obj
 0003:000016c0       ?_OptionsStorage@?1??__local_stdio_scanf_options@@9@4_KA 00000001800596c0     LIBCMT:default_local_stdio_options.obj
 0003:000016c8       __scrt_current_native_startup_state 00000001800596c8     LIBCMT:utility.obj
 0003:000016d0       __scrt_native_startup_lock 00000001800596d0     LIBCMT:utility.obj
 0003:00001710       __scrt_debugger_hook_flag  0000000180059710     LIBCMT:utility_desktop.obj
 0003:00001718       ?__WinRTOutOfMemoryExceptionCallback@@3P6APEAXXZEA 0000000180059718     libvcruntime:ehhelpers.obj
 0003:00001720       __pPurecall                0000000180059720     libvcruntime:purevirt_data.obj
 0003:00001728       ?pArgList@UnDecorator@@0PEAVReplicator@@EA 0000000180059728     libvcruntime:undname.obj
 0003:00001730       ?pZNameList@UnDecorator@@0PEAVReplicator@@EA 0000000180059730     libvcruntime:undname.obj
 0003:00001738       ?pTemplateArgList@UnDecorator@@0PEAVReplicator@@EA 0000000180059738     libvcruntime:undname.obj
 0003:00001740       ?gName@UnDecorator@@0PEBDEB 0000000180059740     libvcruntime:undname.obj
 0003:00001748       ?name@UnDecorator@@0PEBDEB 0000000180059748     libvcruntime:undname.obj
 0003:00001750       ?disableFlags@UnDecorator@@0KA 0000000180059750     libvcruntime:undname.obj
 0003:00001754       ?fExplicitTemplateParams@UnDecorator@@0_NA 0000000180059754     libvcruntime:undname.obj
 0003:00001755       ?fGetTemplateArgumentList@UnDecorator@@0_NA 0000000180059755     libvcruntime:undname.obj
 0003:00001758       ?m_pGetParameter@UnDecorator@@0P6APEADJ@ZEA 0000000180059758     libvcruntime:undname.obj
 0003:00001760       ?m_CHPENameOffset@UnDecorator@@0KA 0000000180059760     libvcruntime:undname.obj
 0003:00001764       ?m_recursionLevel@UnDecorator@@0KA 0000000180059764     libvcruntime:undname.obj
 0003:00001890       ?c_exit_complete@?1???R<lambda_6e4b09c48022b2350581041d5f6b0c4c>@@QEBA@XZ@4_NA 0000000180059890     libucrt:exit.obj
 0003:000019a8       _environ_table             00000001800599a8     libucrt:environment_initialization.obj
 0003:000019b0       _wenviron_table            00000001800599b0     libucrt:environment_initialization.obj
 0003:000019b8       __dcrt_initial_wide_environment 00000001800599b8     libucrt:environment_initialization.obj
 0003:000019c0       __dcrt_initial_narrow_environment 00000001800599c0     libucrt:environment_initialization.obj
 0003:000019c8       __acrt_atexit_table        00000001800599c8     libucrt:onexit.obj
 0003:000019e0       __acrt_at_quick_exit_table 00000001800599e0     libucrt:onexit.obj
 0003:000019f8       __fma3_is_available        00000001800599f8     libucrt:fma3_available.obj
 0003:000019fc       __use_fma3_lib             00000001800599fc     libucrt:fma3_available.obj
 0003:00001c40       _mbctype                   0000000180059c40     libucrt:mbctype.obj
 0003:00001c48       _mbcasemap                 0000000180059c48     libucrt:mbctype.obj
 0003:00001c50       __acrt_current_multibyte_data 0000000180059c50     libucrt:mbctype.obj
 0003:00001c60       _pgmptr                    0000000180059c60     libucrt:argv_data.obj
 0003:00001c68       __argc                     0000000180059c68     libucrt:argv_data.obj
 0003:00001c70       __argv                     0000000180059c70     libucrt:argv_data.obj
 0003:00001c78       __wargv                    0000000180059c78     libucrt:argv_data.obj
 0003:00001c80       _acmdln                    0000000180059c80     libucrt:argv_data.obj
 0003:00001c88       _wcmdln                    0000000180059c88     libucrt:argv_data.obj
 0003:00001e40       __acrt_heap                0000000180059e40     libucrt:heap_handle.obj
 0003:00001e50       __pioinfo                  0000000180059e50     libucrt:ioinit.obj
 0003:00002250       _nhandle                   000000018005a250     libucrt:ioinit.obj
 0003:00002288       __acrt_current_locale_data 000000018005a288     libucrt:nlsdata.obj
 0003:00002290       _nstream                   000000018005a290     libucrt:_file.obj
 0003:00002298       __piob                     000000018005a298     libucrt:_file.obj
 0003:000022a0       __acrt_stdout_buffer       000000018005a2a0     libucrt:_sftbuf.obj
 0003:000022a8       __acrt_stderr_buffer       000000018005a2a8     libucrt:_sftbuf.obj
 0003:000022c0       __acrt_locale_changed_data 000000018005a2c0     libucrt:wsetlocale.obj
 0003:000022c8       __acrt_lconv_static_null   000000018005a2c8     libucrt:localeconv.obj
 0003:000022cc       __acrt_lconv_static_W_null 000000018005a2cc     libucrt:localeconv.obj
 0003:00002850       __scrt_ucrt_dll_is_in_use  000000018005a850     <common>
 0003:00002858       __dyn_tls_init_callback    000000018005a858     <common>
 0005:00000100       __common_ssin_reduction_data 000000018005f100     LIBCMT:svml_s_sin_data.obj
 0005:00000d00       __common_ssin_data         000000018005fd00     LIBCMT:svml_s_sin_data.obj

 entry point at        0001:00027060

 Static symbols

 0000:fff9c000       .debug$S                   0000000180000000     PhysXCooking_64.exp
 0000:fff9c000       .debug$S                   0000000180000000     kernel32:KERNEL32.dll
 0000:fff9c000       .debug$S                   0000000180000000     kernel32:KERNEL32.dll
 0000:fff9c000       .debug$S                   0000000180000000     kernel32:KERNEL32.dll
 0000:fff9c000       .debug$S                   0000000180000000     kernel32:KERNEL32.dll
 0000:fff9c000       .debug$S                   0000000180000000     kernel32:KERNEL32.dll
 0000:fff9c000       .debug$S                   0000000180000000     kernel32:KERNEL32.dll
 0000:fff9c000       .debug$S                   0000000180000000     kernel32:KERNEL32.dll
 0000:fff9c000       .debug$S                   0000000180000000     kernel32:KERNEL32.dll
 0000:fff9c000       .debug$S                   0000000180000000     kernel32:KERNEL32.dll
 0000:fff9c000       .debug$S                   0000000180000000     kernel32:KERNEL32.dll
 0000:fff9c000       .debug$S                   0000000180000000     kernel32:KERNEL32.dll
 0000:fff9c000       .debug$S                   0000000180000000     kernel32:KERNEL32.dll
 0000:fff9c000       .debug$S                   0000000180000000     kernel32:KERNEL32.dll
 0000:fff9c000       .debug$S                   0000000180000000     kernel32:KERNEL32.dll
 0000:fff9c000       .debug$S                   0000000180000000     kernel32:KERNEL32.dll
 0000:fff9c000       .debug$S                   0000000180000000     kernel32:KERNEL32.dll
 0000:fff9c000       .debug$S                   0000000180000000     kernel32:KERNEL32.dll
 0000:fff9c000       .debug$S                   0000000180000000     kernel32:KERNEL32.dll
 0000:fff9c000       .debug$S                   0000000180000000     kernel32:KERNEL32.dll
 0000:fff9c000       .debug$S                   0000000180000000     kernel32:KERNEL32.dll
 0000:fff9c000       .debug$S                   0000000180000000     kernel32:KERNEL32.dll
 0000:fff9c000       .debug$S                   0000000180000000     kernel32:KERNEL32.dll
 0000:fff9c000       .debug$S                   0000000180000000     kernel32:KERNEL32.dll
 0000:fff9c000       .debug$S                   0000000180000000     kernel32:KERNEL32.dll
 0000:fff9c000       .debug$S                   0000000180000000     kernel32:KERNEL32.dll
 0000:fff9c000       .debug$S                   0000000180000000     kernel32:KERNEL32.dll
 0000:fff9c000       .debug$S                   0000000180000000     kernel32:KERNEL32.dll
 0000:fff9c000       .debug$S                   0000000180000000     kernel32:KERNEL32.dll
 0000:fff9c000       .debug$S                   0000000180000000     kernel32:KERNEL32.dll
 0000:fff9c000       .debug$S                   0000000180000000     kernel32:KERNEL32.dll
 0000:fff9c000       .debug$S                   0000000180000000     kernel32:KERNEL32.dll
 0000:fff9c000       .debug$S                   0000000180000000     kernel32:KERNEL32.dll
 0000:fff9c000       .debug$S                   0000000180000000     kernel32:KERNEL32.dll
 0000:fff9c000       .debug$S                   0000000180000000     kernel32:KERNEL32.dll
 0000:fff9c000       .debug$S                   0000000180000000     kernel32:KERNEL32.dll
 0000:fff9c000       .debug$S                   0000000180000000     kernel32:KERNEL32.dll
 0000:fff9c000       .debug$S                   0000000180000000     kernel32:KERNEL32.dll
 0000:fff9c000       .debug$S                   0000000180000000     kernel32:KERNEL32.dll
 0000:fff9c000       .debug$S                   0000000180000000     kernel32:KERNEL32.dll
 0000:fff9c000       .debug$S                   0000000180000000     kernel32:KERNEL32.dll
 0000:fff9c000       .debug$S                   0000000180000000     kernel32:KERNEL32.dll
 0000:fff9c000       .debug$S                   0000000180000000     kernel32:KERNEL32.dll
 0000:fff9c000       .debug$S                   0000000180000000     kernel32:KERNEL32.dll
 0000:fff9c000       .debug$S                   0000000180000000     kernel32:KERNEL32.dll
 0000:fff9c000       .debug$S                   0000000180000000     kernel32:KERNEL32.dll
 0000:fff9c000       .debug$S                   0000000180000000     kernel32:KERNEL32.dll
 0000:fff9c000       .debug$S                   0000000180000000     kernel32:KERNEL32.dll
 0000:fff9c000       .debug$S                   0000000180000000     kernel32:KERNEL32.dll
 0000:fff9c000       .debug$S                   0000000180000000     kernel32:KERNEL32.dll
 0000:fff9c000       .debug$S                   0000000180000000     kernel32:KERNEL32.dll
 0000:fff9c000       .debug$S                   0000000180000000     kernel32:KERNEL32.dll
 0000:fff9c000       .debug$S                   0000000180000000     kernel32:KERNEL32.dll
 0000:fff9c000       .debug$S                   0000000180000000     kernel32:KERNEL32.dll
 0000:fff9c000       .debug$S                   0000000180000000     kernel32:KERNEL32.dll
 0000:fff9c000       .debug$S                   0000000180000000     kernel32:KERNEL32.dll
 0000:fff9c000       .debug$S                   0000000180000000     kernel32:KERNEL32.dll
 0000:fff9c000       .debug$S                   0000000180000000     kernel32:KERNEL32.dll
 0000:fff9c000       .debug$S                   0000000180000000     kernel32:KERNEL32.dll
 0000:fff9c000       .debug$S                   0000000180000000     kernel32:KERNEL32.dll
 0000:fff9c000       .debug$S                   0000000180000000     kernel32:KERNEL32.dll
 0000:fff9c000       .debug$S                   0000000180000000     kernel32:KERNEL32.dll
 0000:fff9c000       .debug$S                   0000000180000000     kernel32:KERNEL32.dll
 0000:fff9c000       .debug$S                   0000000180000000     kernel32:KERNEL32.dll
 0000:fff9c000       .debug$S                   0000000180000000     kernel32:KERNEL32.dll
 0000:fff9c000       .debug$S                   0000000180000000     kernel32:KERNEL32.dll
 0000:fff9c000       .debug$S                   0000000180000000     kernel32:KERNEL32.dll
 0000:fff9c000       .debug$S                   0000000180000000     kernel32:KERNEL32.dll
 0000:fff9c000       .debug$S                   0000000180000000     kernel32:KERNEL32.dll
 0000:fff9c000       .debug$S                   0000000180000000     kernel32:KERNEL32.dll
 0000:fff9c000       .debug$S                   0000000180000000     kernel32:KERNEL32.dll
 0000:fff9c000       .debug$S                   0000000180000000     kernel32:KERNEL32.dll
 0000:fff9c000       .debug$S                   0000000180000000     kernel32:KERNEL32.dll
 0000:fff9c000       .debug$S                   0000000180000000     kernel32:KERNEL32.dll
 0000:fff9c000       .debug$S                   0000000180000000     kernel32:KERNEL32.dll
 0000:fff9c000       .debug$S                   0000000180000000     kernel32:KERNEL32.dll
 0000:fff9c000       .debug$S                   0000000180000000     kernel32:KERNEL32.dll
 0000:fff9c000       .debug$S                   0000000180000000     kernel32:KERNEL32.dll
 0000:fff9c000       .debug$S                   0000000180000000     kernel32:KERNEL32.dll
 0000:fff9c000       .debug$S                   0000000180000000     kernel32:KERNEL32.dll
 0000:fff9c000       .debug$S                   0000000180000000     kernel32:KERNEL32.dll
 0000:fff9c000       .debug$S                   0000000180000000     kernel32:KERNEL32.dll
 0000:fff9c000       .debug$S                   0000000180000000     kernel32:KERNEL32.dll
 0000:fff9c000       .debug$S                   0000000180000000     kernel32:KERNEL32.dll
 0000:fff9c000       .debug$S                   0000000180000000     kernel32:KERNEL32.dll
 0000:fff9c000       .debug$S                   0000000180000000     kernel32:KERNEL32.dll
 0000:fff9c000       .debug$S                   0000000180000000     kernel32:KERNEL32.dll
 0000:fff9c000       .debug$S                   0000000180000000     kernel32:KERNEL32.dll
 0000:fff9c000       .debug$S                   0000000180000000     kernel32:KERNEL32.dll
 0000:fff9c000       .debug$S                   0000000180000000     kernel32:KERNEL32.dll
 0000:fff9c000       .debug$S                   0000000180000000     PhysXCommon_64:PhysXCommon_64.dll
 0000:fff9c000       .debug$S                   0000000180000000     PhysXCommon_64:PhysXCommon_64.dll
 0000:fff9c000       .debug$S                   0000000180000000     PhysXCommon_64:PhysXCommon_64.dll
 0000:fff9c000       .debug$S                   0000000180000000     PhysXCommon_64:PhysXCommon_64.dll
 0000:fff9c000       .debug$S                   0000000180000000     PhysXCommon_64:PhysXCommon_64.dll
 0000:fff9c000       .debug$S                   0000000180000000     PhysXCommon_64:PhysXCommon_64.dll
 0000:fff9c000       .debug$S                   0000000180000000     PhysXCommon_64:PhysXCommon_64.dll
 0000:fff9c000       .debug$S                   0000000180000000     PhysXCommon_64:PhysXCommon_64.dll
 0000:fff9c000       .debug$S                   0000000180000000     PhysXCommon_64:PhysXCommon_64.dll
 0000:fff9c000       .debug$S                   0000000180000000     PhysXCommon_64:PhysXCommon_64.dll
 0000:fff9c000       .debug$S                   0000000180000000     PhysXCommon_64:PhysXCommon_64.dll
 0000:fff9c000       .debug$S                   0000000180000000     PhysXCommon_64:PhysXCommon_64.dll
 0000:fff9c000       .debug$S                   0000000180000000     PhysXCommon_64:PhysXCommon_64.dll
 0000:fff9c000       .debug$S                   0000000180000000     PhysXCommon_64:PhysXCommon_64.dll
 0000:fff9c000       .debug$S                   0000000180000000     PhysXCommon_64:PhysXCommon_64.dll
 0000:fff9c000       .debug$S                   0000000180000000     PhysXCommon_64:PhysXCommon_64.dll
 0000:fff9c000       .debug$S                   0000000180000000     PhysXCommon_64:PhysXCommon_64.dll
 0000:fff9c000       .debug$S                   0000000180000000     PhysXCommon_64:PhysXCommon_64.dll
 0000:fff9c000       .debug$S                   0000000180000000     PhysXCommon_64:PhysXCommon_64.dll
 0000:fff9c000       .debug$S                   0000000180000000     PhysXCommon_64:PhysXCommon_64.dll
 0000:fff9c000       .debug$S                   0000000180000000     PhysXCommon_64:PhysXCommon_64.dll
 0000:fff9c000       .debug$S                   0000000180000000     PhysXCommon_64:PhysXCommon_64.dll
 0000:fff9c000       .debug$S                   0000000180000000     PhysXCommon_64:PhysXCommon_64.dll
 0000:fff9c000       .debug$S                   0000000180000000     PhysXCommon_64:PhysXCommon_64.dll
 0000:fff9c000       .debug$S                   0000000180000000     PhysXCommon_64:PhysXCommon_64.dll
 0000:fff9c000       .debug$S                   0000000180000000     PhysXCommon_64:PhysXCommon_64.dll
 0000:fff9c000       .debug$S                   0000000180000000     PhysXCommon_64:PhysXCommon_64.dll
 0000:fff9c000       .debug$S                   0000000180000000     PhysXCommon_64:PhysXCommon_64.dll
 0000:fff9c000       .debug$S                   0000000180000000     PhysXCommon_64:PhysXCommon_64.dll
 0000:fff9c000       .debug$S                   0000000180000000     PhysXCommon_64:PhysXCommon_64.dll
 0000:fff9c000       .debug$S                   0000000180000000     PhysXCommon_64:PhysXCommon_64.dll
 0000:fff9c000       .debug$S                   0000000180000000     PhysXCommon_64:PhysXCommon_64.dll
 0000:fff9c000       .debug$S                   0000000180000000     PhysXCommon_64:PhysXCommon_64.dll
 0000:fff9c000       .debug$S                   0000000180000000     PhysXCommon_64:PhysXCommon_64.dll
 0000:fff9c000       .debug$S                   0000000180000000     PhysXCommon_64:PhysXCommon_64.dll
 0000:fff9c000       .debug$S                   0000000180000000     PhysXCommon_64:PhysXCommon_64.dll
 0000:fff9c000       .debug$S                   0000000180000000     PhysXCommon_64:PhysXCommon_64.dll
 0000:fff9c000       .debug$S                   0000000180000000     PhysXCommon_64:PhysXCommon_64.dll
 0000:fff9c000       .debug$S                   0000000180000000     PhysXFoundation_64:PhysXFoundation_64.dll
 0000:fff9c000       .debug$S                   0000000180000000     PhysXFoundation_64:PhysXFoundation_64.dll
 0000:fff9c000       .debug$S                   0000000180000000     PhysXFoundation_64:PhysXFoundation_64.dll
 0000:fff9c000       .debug$S                   0000000180000000     PhysXFoundation_64:PhysXFoundation_64.dll
 0000:fff9c000       .debug$S                   0000000180000000     PhysXFoundation_64:PhysXFoundation_64.dll
 0000:fff9c000       .debug$S                   0000000180000000     PhysXFoundation_64:PhysXFoundation_64.dll
 0000:fff9c000       .debug$S                   0000000180000000     PhysXFoundation_64:PhysXFoundation_64.dll
 0000:fff9c000       .debug$S                   0000000180000000     PhysXFoundation_64:PhysXFoundation_64.dll
 0000:fff9c000       .debug$S                   0000000180000000     PhysXFoundation_64:PhysXFoundation_64.dll
 0000:fff9c000       .debug$S                   0000000180000000     PhysXFoundation_64:PhysXFoundation_64.dll
 0000:fff9c000       .debug$S                   0000000180000000     PhysXFoundation_64:PhysXFoundation_64.dll
 0001:00000000       ??__EmaxFError@_VecMathTests@aos@shdfnd@physx@@YAXXZ 0000000180001000 f   Cooking.obj
 0001:00000010       ??__EmaxV3Error@_VecMathTests@aos@shdfnd@physx@@YAXXZ 0000000180001010 f   Cooking.obj
 0001:00000020       ??__EmaxV4Error@_VecMathTests@aos@shdfnd@physx@@YAXXZ 0000000180001020 f   Cooking.obj
 0001:00000030       ??__EminFError@_VecMathTests@aos@shdfnd@physx@@YAXXZ 0000000180001030 f   Cooking.obj
 0001:00000040       ??__EminV3Error@_VecMathTests@aos@shdfnd@physx@@YAXXZ 0000000180001040 f   Cooking.obj
 0001:00000050       ??__EminV4Error@_VecMathTests@aos@shdfnd@physx@@YAXXZ 0000000180001050 f   Cooking.obj
 0001:00000060       ??__EmaxFError@_VecMathTests@aos@shdfnd@physx@@YAXXZ 0000000180001060 f   BVHStructureBuilder.obj
 0001:00000070       ??__EmaxV3Error@_VecMathTests@aos@shdfnd@physx@@YAXXZ 0000000180001070 f   BVHStructureBuilder.obj
 0001:00000080       ??__EmaxV4Error@_VecMathTests@aos@shdfnd@physx@@YAXXZ 0000000180001080 f   BVHStructureBuilder.obj
 0001:00000090       ??__EminFError@_VecMathTests@aos@shdfnd@physx@@YAXXZ 0000000180001090 f   BVHStructureBuilder.obj
 0001:000000a0       ??__EminV3Error@_VecMathTests@aos@shdfnd@physx@@YAXXZ 00000001800010a0 f   BVHStructureBuilder.obj
 0001:000000b0       ??__EminV4Error@_VecMathTests@aos@shdfnd@physx@@YAXXZ 00000001800010b0 f   BVHStructureBuilder.obj
 0001:000000c0       ??__EmaxFError@_VecMathTests@aos@shdfnd@physx@@YAXXZ 00000001800010c0 f   RTreeCooking.obj
 0001:000000d0       ??__EmaxV3Error@_VecMathTests@aos@shdfnd@physx@@YAXXZ 00000001800010d0 f   RTreeCooking.obj
 0001:000000e0       ??__EmaxV4Error@_VecMathTests@aos@shdfnd@physx@@YAXXZ 00000001800010e0 f   RTreeCooking.obj
 0001:000000f0       ??__EminFError@_VecMathTests@aos@shdfnd@physx@@YAXXZ 00000001800010f0 f   RTreeCooking.obj
 0001:00000100       ??__EminV3Error@_VecMathTests@aos@shdfnd@physx@@YAXXZ 0000000180001100 f   RTreeCooking.obj
 0001:00000110       ??__EminV4Error@_VecMathTests@aos@shdfnd@physx@@YAXXZ 0000000180001110 f   RTreeCooking.obj
 0001:00000120       ??__EmaxFError@_VecMathTests@aos@shdfnd@physx@@YAXXZ 0000000180001120 f   MeshBuilder.obj
 0001:00000130       ??__EmaxV3Error@_VecMathTests@aos@shdfnd@physx@@YAXXZ 0000000180001130 f   MeshBuilder.obj
 0001:00000140       ??__EmaxV4Error@_VecMathTests@aos@shdfnd@physx@@YAXXZ 0000000180001140 f   MeshBuilder.obj
 0001:00000150       ??__EminFError@_VecMathTests@aos@shdfnd@physx@@YAXXZ 0000000180001150 f   MeshBuilder.obj
 0001:00000160       ??__EminV3Error@_VecMathTests@aos@shdfnd@physx@@YAXXZ 0000000180001160 f   MeshBuilder.obj
 0001:00000170       ??__EminV4Error@_VecMathTests@aos@shdfnd@physx@@YAXXZ 0000000180001170 f   MeshBuilder.obj
 0001:00000180       ??__EmaxFError@_VecMathTests@aos@shdfnd@physx@@YAXXZ 0000000180001180 f   TriangleMeshBuilder.obj
 0001:00000190       ??__EmaxV3Error@_VecMathTests@aos@shdfnd@physx@@YAXXZ 0000000180001190 f   TriangleMeshBuilder.obj
 0001:000001a0       ??__EmaxV4Error@_VecMathTests@aos@shdfnd@physx@@YAXXZ 00000001800011a0 f   TriangleMeshBuilder.obj
 0001:000001b0       ??__EminFError@_VecMathTests@aos@shdfnd@physx@@YAXXZ 00000001800011b0 f   TriangleMeshBuilder.obj
 0001:000001c0       ??__EminV3Error@_VecMathTests@aos@shdfnd@physx@@YAXXZ 00000001800011c0 f   TriangleMeshBuilder.obj
 0001:000001d0       ??__EminV4Error@_VecMathTests@aos@shdfnd@physx@@YAXXZ 00000001800011d0 f   TriangleMeshBuilder.obj
 0001:000001e0       ??__EmaxFError@_VecMathTests@aos@shdfnd@physx@@YAXXZ 00000001800011e0 f   BigConvexDataBuilder.obj
 0001:000001f0       ??__EmaxV3Error@_VecMathTests@aos@shdfnd@physx@@YAXXZ 00000001800011f0 f   BigConvexDataBuilder.obj
 0001:00000200       ??__EmaxV4Error@_VecMathTests@aos@shdfnd@physx@@YAXXZ 0000000180001200 f   BigConvexDataBuilder.obj
 0001:00000210       ??__EminFError@_VecMathTests@aos@shdfnd@physx@@YAXXZ 0000000180001210 f   BigConvexDataBuilder.obj
 0001:00000220       ??__EminV3Error@_VecMathTests@aos@shdfnd@physx@@YAXXZ 0000000180001220 f   BigConvexDataBuilder.obj
 0001:00000230       ??__EminV4Error@_VecMathTests@aos@shdfnd@physx@@YAXXZ 0000000180001230 f   BigConvexDataBuilder.obj
 0001:00000240       ??__EmaxFError@_VecMathTests@aos@shdfnd@physx@@YAXXZ 0000000180001240 f   ConvexHullBuilder.obj
 0001:00000250       ??__EmaxV3Error@_VecMathTests@aos@shdfnd@physx@@YAXXZ 0000000180001250 f   ConvexHullBuilder.obj
 0001:00000260       ??__EmaxV4Error@_VecMathTests@aos@shdfnd@physx@@YAXXZ 0000000180001260 f   ConvexHullBuilder.obj
 0001:00000270       ??__EminFError@_VecMathTests@aos@shdfnd@physx@@YAXXZ 0000000180001270 f   ConvexHullBuilder.obj
 0001:00000280       ??__EminV3Error@_VecMathTests@aos@shdfnd@physx@@YAXXZ 0000000180001280 f   ConvexHullBuilder.obj
 0001:00000290       ??__EminV4Error@_VecMathTests@aos@shdfnd@physx@@YAXXZ 0000000180001290 f   ConvexHullBuilder.obj
 0001:000002a0       ??__EmaxFError@_VecMathTests@aos@shdfnd@physx@@YAXXZ 00000001800012a0 f   ConvexHullUtils.obj
 0001:000002b0       ??__EmaxV3Error@_VecMathTests@aos@shdfnd@physx@@YAXXZ 00000001800012b0 f   ConvexHullUtils.obj
 0001:000002c0       ??__EmaxV4Error@_VecMathTests@aos@shdfnd@physx@@YAXXZ 00000001800012c0 f   ConvexHullUtils.obj
 0001:000002d0       ??__EminFError@_VecMathTests@aos@shdfnd@physx@@YAXXZ 00000001800012d0 f   ConvexHullUtils.obj
 0001:000002e0       ??__EminV3Error@_VecMathTests@aos@shdfnd@physx@@YAXXZ 00000001800012e0 f   ConvexHullUtils.obj
 0001:000002f0       ??__EminV4Error@_VecMathTests@aos@shdfnd@physx@@YAXXZ 00000001800012f0 f   ConvexHullUtils.obj
 0001:00000300       ??__EmaxFError@_VecMathTests@aos@shdfnd@physx@@YAXXZ 0000000180001300 f   ConvexMeshBuilder.obj
 0001:00000310       ??__EmaxV3Error@_VecMathTests@aos@shdfnd@physx@@YAXXZ 0000000180001310 f   ConvexMeshBuilder.obj
 0001:00000320       ??__EmaxV4Error@_VecMathTests@aos@shdfnd@physx@@YAXXZ 0000000180001320 f   ConvexMeshBuilder.obj
 0001:00000330       ??__EminFError@_VecMathTests@aos@shdfnd@physx@@YAXXZ 0000000180001330 f   ConvexMeshBuilder.obj
 0001:00000340       ??__EminV3Error@_VecMathTests@aos@shdfnd@physx@@YAXXZ 0000000180001340 f   ConvexMeshBuilder.obj
 0001:00000350       ??__EminV4Error@_VecMathTests@aos@shdfnd@physx@@YAXXZ 0000000180001350 f   ConvexMeshBuilder.obj
 0001:00000360       ??__EmaxFError@_VecMathTests@aos@shdfnd@physx@@YAXXZ 0000000180001360 f   VolumeIntegration.obj
 0001:00000370       ??__EmaxV3Error@_VecMathTests@aos@shdfnd@physx@@YAXXZ 0000000180001370 f   VolumeIntegration.obj
 0001:00000380       ??__EmaxV4Error@_VecMathTests@aos@shdfnd@physx@@YAXXZ 0000000180001380 f   VolumeIntegration.obj
 0001:00000390       ??__EminFError@_VecMathTests@aos@shdfnd@physx@@YAXXZ 0000000180001390 f   VolumeIntegration.obj
 0001:000003a0       ??__EminV3Error@_VecMathTests@aos@shdfnd@physx@@YAXXZ 00000001800013a0 f   VolumeIntegration.obj
 0001:000003b0       ??__EminV4Error@_VecMathTests@aos@shdfnd@physx@@YAXXZ 00000001800013b0 f   VolumeIntegration.obj
 0001:00000640       ?CreateDatabase@@YA_NPEAVAdjTriangle@physx@@IPEBVAdjEdge@@AEBUADJACENCIESCREATE@2@@Z 0000000180001640 f   Adjacencies.obj
 0001:00000c50       ?UpdateLink@@YA_NIIIIPEAVAdjTriangle@physx@@AEBUADJACENCIESCREATE@2@@Z 0000000180001c50 f   Adjacencies.obj
 0001:00008da0       ?buildFromBounds@physx@@YAXAEAURTree@Gu@1@PEBUPxBounds3V@1@IAEAV?$Array@IV?$ReflectionAllocator@I@shdfnd@physx@@@shdfnd@1@PEAURemapCallback@RTreeCooker@1@AEAT__m128@@4MW4Enum@PxMeshCookingHint@1@@Z 0000000180009da0 f   RTreeCooking.obj
 0001:0000c8c0       ?buildAdjacencies@physx@@YAXPEAUuint4@1@PEAVPxVec3@1@PEBV31@PEBUuint3@1@I@Z 000000018000d8c0 f   TriangleMeshBuilder.obj
 0001:0000e040       ?findAdjacent@physx@@YAIPEBVPxVec3@1@0PEBUuint3@1@IIIAEBVPxPlane@1@PEAUEdgeTriLookup@1@I@Z 000000018000f040 f   TriangleMeshBuilder.obj
 0001:00012f50       ?checkPointsAABBValidity@local@@YA_NIPEBVPxVec3@physx@@IMMAEAV23@1AEAIPEAV23@_N@Z 0000000180013f50 f   ConvexHullLib.obj
 0001:00018140       ?ComputeInternalExtent@@YAXAEAUConvexHullData@Gu@physx@@PEBUHullPolygonData@23@@Z 0000000180019140 f   ConvexMeshBuilder.obj
 0001:00019540       ?CheckFloodFillFace@Local@?7??extractHullPolygons@@YA_NAEAIAEAV?$Array@IV?$ReflectionAllocator@I@shdfnd@physx@@@shdfnd@physx@@AEBVConvexPolygonsBuilder@5@PEAV345@1@Z@SA_NIPEBVAdjTriangle@5@PEBI@Z 000000018001a540 f   ConvexPolygonsBuilder.obj
 0001:00019b30       ?FloodFill@Local@?7??extractHullPolygons@@YA_NAEAIAEAV?$Array@IV?$ReflectionAllocator@I@shdfnd@physx@@@shdfnd@physx@@AEBVConvexPolygonsBuilder@5@PEAV345@1@Z@SAX1PEBVAdjTriangle@5@IPEA_N@Z 000000018001ab30 f   ConvexPolygonsBuilder.obj
 0001:00019c10       ?TestDuplicateTriangles@@YA_NAEAIPEAU?$TriangleT@I@Gu@physx@@_N@Z 000000018001ac10 f   ConvexPolygonsBuilder.obj
 0001:00019de0       ?checkRedundantVertices@@YAXAEAIAEAV?$Array@IV?$ReflectionAllocator@I@shdfnd@physx@@@shdfnd@physx@@AEBVConvexPolygonsBuilder@3@11@Z 000000018001ade0 f   ConvexPolygonsBuilder.obj
 0001:0001cb00       ?extractHullPolygons@@YA_NAEAIAEAV?$Array@IV?$ReflectionAllocator@I@shdfnd@physx@@@shdfnd@physx@@AEBVConvexPolygonsBuilder@3@PEAV123@1@Z 000000018001db00 f   ConvexPolygonsBuilder.obj
 0001:0001d570       ?findLineStrip@@YA_NAEAV?$Array@IV?$ReflectionAllocator@I@shdfnd@physx@@@shdfnd@physx@@AEBV?$Array@VPair@@V?$ReflectionAllocator@VPair@@@shdfnd@physx@@@23@@Z 000000018001e570 f   ConvexPolygonsBuilder.obj
 0001:00024f70       ?computeVolumeIntegrals@VolumeIntegratorEberly@?A0x95ee0706@physx@@QEAA_NAEAUPxIntegrals@3@AEBVPxVec3@3@@Z 0000000180025f70 f   VolumeIntegration.obj
 0001:00025a70       ?computeVolumeIntegralsSIMD@VolumeIntegratorEberly@?A0x95ee0706@physx@@QEAA_NAEAUPxIntegrals@3@AEBVPxVec3@3@@Z 0000000180026a70 f   VolumeIntegration.obj
 0001:00026130       $LN24                      0000000180027130     WindowsCookingDelayLoadHook.obj
 0001:00026c60       $$000000                   0000000180027c60     LIBCMT:chkstk.obj
 0001:00026cc4       ?<lambda_invoker_cdecl>@_Closure_wrapper_9a7b91c1_2@@CAXQEAX@Z 0000000180027cc4 f   libvcruntime:std_type_info.obj
 0001:00026cd0       $$000000                   0000000180027cd0     LIBCMT:svml_ssinf4_dispatch.obj
 0001:00026d40       ?dllmain_crt_dispatch@@YAHQEAUHINSTANCE__@@KQEAX@Z 0000000180027d40 f   LIBCMT:dll_dllmain.obj
 0001:00026d90       ?dllmain_crt_process_attach@@YAHQEAUHINSTANCE__@@QEAX@Z 0000000180027d90 f   LIBCMT:dll_dllmain.obj
 0001:00026ea8       ?dllmain_crt_process_detach@@YAH_N@Z 0000000180027ea8 f   LIBCMT:dll_dllmain.obj
 0001:00026f2c       ?dllmain_dispatch@@YAHQEAUHINSTANCE__@@KQEAX@Z 0000000180027f2c f   LIBCMT:dll_dllmain.obj
 0001:00027250       $$000000                   0000000180028250     LIBCMT:svml_ssinf4_sse2.obj
 0001:00027b90       $$000000                   0000000180028b90     LIBCMT:svml_ssinf4_sse4.obj
 0001:000288e0       $$000000                   00000001800298e0     LIBCMT:svml_s_sin_cout.obj
 0001:00028980       ?<lambda_invoker_cdecl>@_Closure_wrapper_9a7b91c1_1@@CAPEAX_K@Z 0000000180029980 f   libvcruntime:std_type_info.obj
 0001:00028b00       $$000000                   0000000180029b00     libvcruntime:memset.obj
 0001:00028cc0       $$000000                   0000000180029cc0     libvcruntime:memcpy.obj
 0001:00029ba0       ??1TrackRecursion@?1??getDecoratedName@UnDecorator@@CA?AVDName@@XZ@QEAA@XZ 000000018002aba0 f   libvcruntime:undname.obj
 0001:00030cc0       $$000000                   0000000180031cc0     libvcruntime:notify.obj
 0001:00031754       ?try_get_function@@YAPEAXW4function_id@?A0xdafaeb0c@@QEBDQEBW4module_id@2@2@Z 0000000180032754 f   libvcruntime:winapi_downlevel.obj
 0001:00031b20       ??$BuildCatchObjectHelperInternal@V__FrameHandler4@@@@YAHPEAUEHExceptionRecord@@PEAXPEAUHandlerType4@FH4@@PEBU_s_CatchableType@@@Z 0000000180032b20 f   libvcruntime:frame.obj
 0001:00031d24       ??$BuildCatchObjectInternal@V__FrameHandler4@@@@YAXPEAUEHExceptionRecord@@PEAXPEAUHandlerType4@FH4@@PEBU_s_CatchableType@@@Z 0000000180032d24 f   libvcruntime:frame.obj
 0001:00031de8       ??$CatchIt@V__FrameHandler4@@@@YAXPEAUEHExceptionRecord@@PEA_KPEAU_CONTEXT@@PEAU_xDISPATCHER_CONTEXT@@PEAUFuncInfo4@FH4@@PEAUHandlerType4@4@PEBU_s_CatchableType@@PEAUTryBlockMapEntry4@4@H1EE@Z 0000000180032de8 f   libvcruntime:frame.obj
 0001:00031ebc       ??$FindHandler@V__FrameHandler4@@@@YAXPEAUEHExceptionRecord@@PEA_KPEAU_CONTEXT@@PEAU_xDISPATCHER_CONTEXT@@PEAUFuncInfo4@FH4@@EH1@Z 0000000180032ebc f   libvcruntime:frame.obj
 0001:000323cc       ??$FindHandlerForForeignException@V__FrameHandler4@@@@YAXPEAUEHExceptionRecord@@PEA_KPEAU_CONTEXT@@PEAU_xDISPATCHER_CONTEXT@@PEAUFuncInfo4@FH4@@HH1@Z 00000001800333cc f   libvcruntime:frame.obj
 0001:000331e8       ?ExFilterRethrow@@YAHPEAU_EXCEPTION_POINTERS@@PEAUEHExceptionRecord@@PEAH@Z 00000001800341e8 f   libvcruntime:frame.obj
 0001:00033270       ?ExFilterRethrowFH4@@YAHPEAU_EXCEPTION_POINTERS@@PEAUEHExceptionRecord@@HPEAH@Z 0000000180034270 f   libvcruntime:frame.obj
 0001:00033588       ?IsInExceptionSpec@@YAEPEAUEHExceptionRecord@@PEBU_s_ESTypeList@@@Z 0000000180034588 f   libvcruntime:frame.obj
 0001:00033678       ?Is_bad_exception_allowed@@YAEPEBU_s_ESTypeList@@@Z 0000000180034678 f   libvcruntime:frame.obj
 0001:00033970       $$000000                   0000000180034970     libvcruntime:handlers.obj
 0001:00033bd0       $$000000                   0000000180034bd0     libucrt:strcmp.obj
 0001:00034060       $$000000                   0000000180035060     libucrt:cosf.obj
 0001:00034560       $$000000                   0000000180035560     libucrt:sinf.obj
 0001:00034f30       ??$?RV<lambda_d80eeec6fff315bfe5c115232f3240e3>@@AEAV<lambda_6e4b09c48022b2350581041d5f6b0c4c>@@V<lambda_2358e3775559c9db80273638284d5e45>@@@?$__crt_seh_guarded_call@X@@QEAAX$$QEAV<lambda_d80eeec6fff315bfe5c115232f3240e3>@@AEAV<lambda_6e4b09c48022b2350581041d5f6b0c4c>@@$$QEAV<lambda_2358e3775559c9db80273638284d5e45>@@@Z 0000000180035f30 f   libucrt:exit.obj
 0001:00034f68       ??R<lambda_6e4b09c48022b2350581041d5f6b0c4c>@@QEBA@XZ 0000000180035f68 f   libucrt:exit.obj
 0001:0003502c       ?atexit_exception_filter@@YAHK@Z 000000018003602c f   libucrt:exit.obj
 0001:00035038       ?common_exit@@YAXHW4_crt_exit_cleanup_mode@@W4_crt_exit_return_mode@@@Z 0000000180036038 f   libucrt:exit.obj
 0001:000350f4       ?exit_or_terminate_process@@YAXI@Z 00000001800360f4 f   libucrt:exit.obj
 0001:00035140       ?try_cor_exit_process@@YAXI@Z 0000000180036140 f   libucrt:exit.obj
 0001:000351c8       ??$parse_command_line@D@@YAXPEADPEAPEAD0PEA_K2@Z 00000001800361c8 f   libucrt:argv_parsing.obj
 0001:00035574       ??$common_initialize_environment_nolock@D@@YAHXZ 0000000180036574 f   libucrt:environment_initialization.obj
 0001:000355e0       ??$create_environment@D@@YAQEAPEADQEAD@Z 00000001800365e0 f   libucrt:environment_initialization.obj
 0001:000356e8       ??$free_environment@D@@YAXQEAPEAD@Z 00000001800366e8 f   libucrt:environment_initialization.obj
 0001:000356e8       ??$free_environment@_W@@YAXQEAPEA_W@Z 00000001800366e8 f   libucrt:environment_initialization.obj
 0001:0003572c       ??$uninitialize_environment_internal@D@@YAXAEAPEAPEAD@Z 000000018003672c f   libucrt:environment_initialization.obj
 0001:00035748       ??$uninitialize_environment_internal@_W@@YAXAEAPEAPEA_W@Z 0000000180036748 f   libucrt:environment_initialization.obj
 0001:000357a4       ??$?RV<lambda_7777bce6b2f8c936911f934f8298dc43>@@AEAV<lambda_f03950bc5685219e0bcd2087efbe011e>@@V<lambda_3883c3dff614d5e0c5f61bb1ac94921c>@@@?$__crt_seh_guarded_call@H@@QEAAH$$QEAV<lambda_7777bce6b2f8c936911f934f8298dc43>@@AEAV<lambda_f03950bc5685219e0bcd2087efbe011e>@@$$QEAV<lambda_3883c3dff614d5e0c5f61bb1ac94921c>@@@Z 00000001800367a4 f   libucrt:onexit.obj
 0001:000357e0       ??R<lambda_f03950bc5685219e0bcd2087efbe011e>@@QEBAHXZ 00000001800367e0 f   libucrt:onexit.obj
 0001:0003595c       initialize_global_variables 000000018003695c f   libucrt:initialization.obj
 0001:00035970       initialize_c               0000000180036970 f   libucrt:initialization.obj
 0001:00035994       initialize_environment     0000000180036994 f   libucrt:initialization.obj
 0001:00035994       initialize_global_state_isolation 0000000180036994 f   libucrt:initialization.obj
 0001:00035994       report_memory_leaks        0000000180036994 f   libucrt:initialization.obj
 0001:00035994       uninitialize_c             0000000180036994 f   libucrt:initialization.obj
 0001:00035994       uninitialize_global_state_isolation 0000000180036994 f   libucrt:initialization.obj
 0001:00035998       uninitialize_environment   0000000180036998 f   libucrt:initialization.obj
 0001:000359a8       initialize_pointers        00000001800369a8 f   libucrt:initialization.obj
 0001:000359e8       uninitialize_vcruntime     00000001800369e8 f   libucrt:initialization.obj
 0001:000359f0       uninitialize_allocated_memory 00000001800369f0 f   libucrt:initialization.obj
 0001:00035a30       uninitialize_allocated_io_buffers 0000000180036a30 f   libucrt:initialization.obj
 0001:00035bec       ??$common_vsprintf@Vformat_validation_base@__crt_stdio_output@@D@@YAH_KQEAD0QEBDQEAU__crt_locale_pointers@@1@Z 0000000180036bec f   libucrt:output.obj
 0001:000374c0       $$000000                   00000001800384c0     libucrt:strncmp.obj
 0001:00037654       _call_matherr              0000000180038654 f   libucrt:libm_error.obj
 0001:000376bc       _exception_enabled         00000001800386bc f   libucrt:libm_error.obj
 0001:00037a00       $$000000                   0000000180038a00     libucrt:remainder_piby2f_forasm.obj
 0001:00037b50       $$000000                   0000000180038b50     libucrt:remainder_piby2_forfma3.obj
 0001:00037dcc       _sincosf_special           0000000180038dcc f   libucrt:sincos_special.obj
 0001:00037ee0       $$000000                   0000000180038ee0     libucrt:remainder_piby2f_forc.obj
 0001:000380ac       ??$?RV<lambda_0ae27a3a962d80f24befdcbee591983d>@@AEAV<lambda_8d0ee55de4b1038c4002e0adecdf1839>@@V<lambda_dc504788e8f1664fe9b84e20bfb512f2>@@@?$__crt_seh_guarded_call@X@@QEAAX$$QEAV<lambda_0ae27a3a962d80f24befdcbee591983d>@@AEAV<lambda_8d0ee55de4b1038c4002e0adecdf1839>@@$$QEAV<lambda_dc504788e8f1664fe9b84e20bfb512f2>@@@Z 00000001800390ac f   libucrt:per_thread_data.obj
 0001:000380ec       ??$?RV<lambda_2d41944a1d46af3157314b8a01080d33>@@AEAV<lambda_8f455de75cd7d7f24b4096f044d8b9e6>@@V<lambda_aa500f224e6afead328df44964fe2772>@@@?$__crt_seh_guarded_call@X@@QEAAX$$QEAV<lambda_2d41944a1d46af3157314b8a01080d33>@@AEAV<lambda_8f455de75cd7d7f24b4096f044d8b9e6>@@$$QEAV<lambda_aa500f224e6afead328df44964fe2772>@@@Z 00000001800390ec f   libucrt:per_thread_data.obj
 0001:0003812c       ??$?RV<lambda_aa87e3671a710a21b5dc78c0bdf72e11>@@AEAV<lambda_92619d2358a28f41a33ba319515a20b9>@@V<lambda_6992ecaafeb10aed2b74cb1fae11a551>@@@?$__crt_seh_guarded_call@X@@QEAAX$$QEAV<lambda_aa87e3671a710a21b5dc78c0bdf72e11>@@AEAV<lambda_92619d2358a28f41a33ba319515a20b9>@@$$QEAV<lambda_6992ecaafeb10aed2b74cb1fae11a551>@@@Z 000000018003912c f   libucrt:per_thread_data.obj
 0001:00038174       ??$?RV<lambda_f2e299630e499de9f9a165e60fcd3db5>@@AEAV<lambda_2ae9d31cdba2644fcbeaf08da7c24588>@@V<lambda_40d01ff24d0e7b3814fdbdcee8eab3c7>@@@?$__crt_seh_guarded_call@X@@QEAAX$$QEAV<lambda_f2e299630e499de9f9a165e60fcd3db5>@@AEAV<lambda_2ae9d31cdba2644fcbeaf08da7c24588>@@$$QEAV<lambda_40d01ff24d0e7b3814fdbdcee8eab3c7>@@@Z 0000000180039174 f   libucrt:per_thread_data.obj
 0001:000381d4       ?construct_ptd_array@@YAXQEAU__acrt_ptd@@@Z 00000001800391d4 f   libucrt:per_thread_data.obj
 0001:000382a4       ?destroy_fls@@YAXPEAX@Z    00000001800392a4 f   libucrt:per_thread_data.obj
 0001:000382c4       ?destroy_ptd_array@@YAXQEAU__acrt_ptd@@@Z 00000001800392c4 f   libucrt:per_thread_data.obj
 0001:000383bc       ?replace_current_thread_locale_nolock@@YAXQEAU__acrt_ptd@@QEAU__crt_locale_data@@@Z 00000001800393bc f   libucrt:per_thread_data.obj
 0001:00038bd0       ?<lambda_invoker_cdecl>@<lambda_a1ce4c8ae42411fd470c77163914f50e>@@CAHPEBX0@Z 0000000180039bd0 f   libucrt:argv_wildcards.obj
 0001:00038ee8       ??$common_expand_argv_wildcards@D@@YAHQEAPEADQEAPEAPEAD@Z 0000000180039ee8 f   libucrt:argv_wildcards.obj
 0001:000390f4       ??$copy_and_add_argument_to_buffer@D@@YAHQEBD0_KAEAV?$argument_list@D@?A0x5f5c8891@@@Z 000000018003a0f4 f   libucrt:argv_wildcards.obj
 0001:0003927c       ??$expand_argument_wildcards@D@@YAHQEAD0AEAV?$argument_list@D@?A0x5f5c8891@@@Z 000000018003a27c f   libucrt:argv_wildcards.obj
 0001:000397c8       ??$?RV<lambda_efdfa57d1f175319df784efa44bb7b81>@@AEAV<lambda_5f0a4c1567f8adc6734073e5d1e1b35c>@@V<lambda_2e8a7d3640ea6ccb4c2413664c2db6fd>@@@?$__crt_seh_guarded_call@X@@QEAAX$$QEAV<lambda_efdfa57d1f175319df784efa44bb7b81>@@AEAV<lambda_5f0a4c1567f8adc6734073e5d1e1b35c>@@$$QEAV<lambda_2e8a7d3640ea6ccb4c2413664c2db6fd>@@@Z 000000018003a7c8 f   libucrt:mbctype.obj
 0001:00039984       ?getSystemCP@@YAHH@Z       000000018003a984 f   libucrt:mbctype.obj
 0001:00039a04       ?setSBCS@@YAXPEAU__crt_multibyte_data@@@Z 000000018003aa04 f   libucrt:mbctype.obj
 0001:00039a94       ?setSBUpLow@@YAXPEAU__crt_multibyte_data@@@Z 000000018003aa94 f   libucrt:mbctype.obj
 0001:00039c78       ?setmbcp_internal@@YAHH_NQEAU__acrt_ptd@@QEAPEAU__crt_multibyte_data@@@Z 000000018003ac78 f   libucrt:mbctype.obj
 0001:00039e3c       ?update_thread_multibyte_data_internal@@YAPEAU__crt_multibyte_data@@QEAU__acrt_ptd@@QEAPEAU1@@Z 000000018003ae3c f   libucrt:mbctype.obj
 0001:0003a22c       ?x_ismbbtype_l@@YAHPEAU__crt_locale_pointers@@IHH@Z 000000018003b22c f   libucrt:ismbbyte.obj
 0001:0003a570       ?try_get_function@@YAPEAXW4function_id@?A0x391cf84c@@QEBDQEBW4module_id@2@2@Z 000000018003b570 f   libucrt:winapi_thunks.obj
 0001:0003ab30       ?initialize_inherited_file_handles_nolock@@YAXXZ 000000018003bb30 f   libucrt:ioinit.obj
 0001:0003ac20       ?initialize_stdio_handles_nolock@@YAXXZ 000000018003bc20 f   libucrt:ioinit.obj
 0001:0003aed0       ??$?RV<lambda_450d765d439847d4c735a33c368b5fc0>@@AEAV<lambda_44731a7d0e6d81c3e6aa82d741081786>@@V<lambda_601a2a7da3b7a96e9554ac7215c4b07c>@@@?$__crt_seh_guarded_call@P6AXH@Z@@QEAAP6AXH@Z$$QEAV<lambda_450d765d439847d4c735a33c368b5fc0>@@AEAV<lambda_44731a7d0e6d81c3e6aa82d741081786>@@$$QEAV<lambda_601a2a7da3b7a96e9554ac7215c4b07c>@@@Z 000000018003bed0 f   libucrt:signal.obj
 0001:0003b22c       ??$?RV<lambda_842d9ff0dc9ef11c61343bbaebe7f885>@@AEAV<lambda_c5860995281e5c4ce005b3de8f5874ee>@@V<lambda_d90129c13df834fdcbf8d2b88dafcf2d>@@@?$__crt_seh_guarded_call@X@@QEAAX$$QEAV<lambda_842d9ff0dc9ef11c61343bbaebe7f885>@@AEAV<lambda_c5860995281e5c4ce005b3de8f5874ee>@@$$QEAV<lambda_d90129c13df834fdcbf8d2b88dafcf2d>@@@Z 000000018003c22c f   libucrt:fflush.obj
 0001:0003b2c8       ??$?RV<lambda_886d6c58226a84441f68b9f2b8217b83>@@AEAV<lambda_ab61a845afdef5b7c387490eaf3616ee>@@V<lambda_f7f22ab5edc0698d5f6905b0d3f44752>@@@?$__crt_seh_guarded_call@X@@QEAAX$$QEAV<lambda_886d6c58226a84441f68b9f2b8217b83>@@AEAV<lambda_ab61a845afdef5b7c387490eaf3616ee>@@$$QEAV<lambda_f7f22ab5edc0698d5f6905b0d3f44752>@@@Z 000000018003c2c8 f   libucrt:fflush.obj
 0001:0003b3a8       ?common_flush_all@@YAH_N@Z 000000018003c3a8 f   libucrt:fflush.obj
 0001:0003bdc0       ?fp_format_a@@YAHQEBNPEAD_KQEAD2H_NIQEAU__crt_locale_pointers@@@Z 000000018003cdc0 f   libucrt:cvt.obj
 0001:0003c130       ?fp_format_e@@YAHQEBNQEAD_K12H_NIQEAU__crt_locale_pointers@@@Z 000000018003d130 f   libucrt:cvt.obj
 0001:0003c20c       ?fp_format_e_internal@@YAHQEAD_KH_NIQEAU_strflt@@2QEAU__crt_locale_pointers@@@Z 000000018003d20c f   libucrt:cvt.obj
 0001:0003c3e0       ?fp_format_f_internal@@YAHQEAD_KHQEAU_strflt@@_NQEAU__crt_locale_pointers@@@Z 000000018003d3e0 f   libucrt:cvt.obj
 0001:0003c524       ?fp_format_g@@YAHQEBNQEAD_K12H_NIQEAU__crt_locale_pointers@@@Z 000000018003d524 f   libucrt:cvt.obj
 0001:0003c99c       ??$?RV<lambda_410d79af7f07d98d83a3f525b3859a53>@@AEAV<lambda_3e16ef9562a7dcce91392c22ab16ea36>@@V<lambda_38119f0e861e05405d8a144b9b982f0a>@@@?$__crt_seh_guarded_call@X@@QEAAX$$QEAV<lambda_410d79af7f07d98d83a3f525b3859a53>@@AEAV<lambda_3e16ef9562a7dcce91392c22ab16ea36>@@$$QEAV<lambda_38119f0e861e05405d8a144b9b982f0a>@@@Z 000000018003d99c f   libucrt:wsetlocale.obj
 0001:0003cb80       $$000000                   000000018003db80     libucrt:fpsr.obj
 0001:0003d814       fallbackMethod             000000018003e814 f   libucrt:strpbrk.obj
 0001:0003dbe4       $LN78                      000000018003ebe4     libucrt:strpbrk.obj
 0001:0003dc20       $LN77                      000000018003ec20     libucrt:strpbrk.obj
 0001:0003dc60       $LN76                      000000018003ec60     libucrt:strpbrk.obj
 0001:0003decc       ?__acrt_LCMapStringA_stat@@YAHPEAU__crt_locale_pointers@@PEB_WKPEBDHPEADHHH@Z 000000018003eecc f   libucrt:lcmapstringa.obj
 0001:0003e27c       ?initialize_multibyte@@YAHXZ 000000018003f27c f   libucrt:multibyte_initializer.obj
 0001:0003e720       ??$?RV<lambda_a37b2b86f63e897a80ea819b0eb08c01>@@AEAV<lambda_38ce7e780aa69e748d6df282ebc68efe>@@V<lambda_99fb1378e971ab6e7edea83e3a7a83a2>@@@?$__crt_seh_guarded_call@H@@QEAAH$$QEAV<lambda_a37b2b86f63e897a80ea819b0eb08c01>@@AEAV<lambda_38ce7e780aa69e748d6df282ebc68efe>@@$$QEAV<lambda_99fb1378e971ab6e7edea83e3a7a83a2>@@@Z 000000018003f720 f   libucrt:commit.obj
 0001:0003e840       ?write_double_translated_ansi_nolock@@YA?AUwrite_result@?A0x17268360@@HQEBDI@Z 000000018003f840 f   libucrt:write.obj
 0001:0003ed10       ?write_text_ansi_nolock@@YA?AUwrite_result@?A0x17268360@@HQEBDI@Z 000000018003fd10 f   libucrt:write.obj
 0001:0003ee14       ?write_text_utf16le_nolock@@YA?AUwrite_result@?A0x17268360@@HQEBDI@Z 000000018003fe14 f   libucrt:write.obj
 0001:0003ef30       ?write_text_utf8_nolock@@YA?AUwrite_result@?A0x17268360@@HQEBDI@Z 000000018003ff30 f   libucrt:write.obj
 0001:00040fc0       memcpy_s                   0000000180041fc0 f   libucrt:cfout.obj
 0001:000411c0       ?free_crt_array_internal@@YAXQEAPEBX_K@Z 00000001800421c0 f   libucrt:inittime.obj
 0001:0004138c       ??$common_lseek_nolock@_J@@YA_JH_JH@Z 000000018004238c f   libucrt:lseek.obj
 0001:000418b0       $$000000                   00000001800428b0     libucrt:log10.obj
 0001:000422a0       ??$?RV<lambda_751a882b2c74d4b022dec766aa51a29a>@@AEAV<lambda_628dfdc04ba53c8bfc02c9951375f3f5>@@V<lambda_f6c7be5f7998530c34de24c7437d6b54>@@@?$__crt_seh_guarded_call@H@@QEAAH$$QEAV<lambda_751a882b2c74d4b022dec766aa51a29a>@@AEAV<lambda_628dfdc04ba53c8bfc02c9951375f3f5>@@$$QEAV<lambda_f6c7be5f7998530c34de24c7437d6b54>@@@Z 00000001800432a0 f   libucrt:close.obj
 0001:00042530       _log_special_common        0000000180043530 f   libucrt:log_special.obj
 0001:00042720       $$000000                   0000000180043720     LIBCMT:amdsecgs.obj
 0001:00042994       capture_current_context    0000000180043994 f   LIBCMT:gs_report.obj
 0001:00042a04       capture_previous_context   0000000180043a04 f   LIBCMT:gs_report.obj
 0001:00042bb0       $$000000                   0000000180043bb0     libvcruntime:memcmp.obj
 0001:00042c90       $$000000                   0000000180043c90     LIBCMT:guard_dispatch.obj
 0001:00042cb0       $$000000                   0000000180043cb0     LIBCMT:guard_xfg_dispatch.obj
 0001:00042cd0       ?fin$0@?0??dllmain_crt_process_attach@@YAHQEAUHINSTANCE__@@QEAX@Z@4HA 0000000180043cd0 f   LIBCMT:dll_dllmain.obj
 0001:00042ce7       ?fin$0@?0??dllmain_crt_process_detach@@YAH_N@Z@4HA 0000000180043ce7 f   LIBCMT:dll_dllmain.obj
 0001:00042d00       ?fin$1@?0??dllmain_crt_process_detach@@YAH_N@Z@4HA 0000000180043d00 f   LIBCMT:dll_dllmain.obj
 0001:00042d14       ?filt$0@?0??dllmain_dispatch@@YAHQEAUHINSTANCE__@@KQEAX@Z@4HA 0000000180043d14 f   LIBCMT:dll_dllmain.obj
 0001:00042d4a       __scrt_is_nonwritable_in_current_image$filt$0 0000000180043d4a f   LIBCMT:utility.obj
 0001:00042d62       __DestructExceptionObject$filt$0 0000000180043d62 f   libvcruntime:ehhelpers.obj
 0001:00042df8       ?dtor$0@?0??getDecoratedName@UnDecorator@@CA?AVDName@@XZ@4HA 0000000180043df8 f   libvcruntime:undname.obj
 0001:00042e04       __unDNameEx$fin$0          0000000180043e04 f   libvcruntime:undname.obj
 0001:00042e1a       ?filt$0@?0???$_CallSETranslator@V__FrameHandler4@@@@YAHPEAUEHExceptionRecord@@PEA_KPEAU_CONTEXT@@PEAU_xDISPATCHER_CONTEXT@@PEAUFuncInfo4@FH4@@K1H@Z@4HA 0000000180043e1a f   libvcruntime:risctrnsctrl.obj
 0001:00042eb9       ?filt$0@?0??CxxCallCatchBlock@__FrameHandler4@@SAPEAXPEAU_EXCEPTION_RECORD@@@Z@4HA 0000000180043eb9 f   libvcruntime:frame.obj
 0001:00042ee8       ?fin$1@?0??CxxCallCatchBlock@__FrameHandler4@@SAPEAXPEAU_EXCEPTION_RECORD@@@Z@4HA 0000000180043ee8 f   libvcruntime:frame.obj
 0001:00042f6b       ?filt$0@?0??FrameUnwindToState@__FrameHandler4@@SAXPEA_KPEAU_xDISPATCHER_CONTEXT@@PEAUFuncInfo4@FH4@@H@Z@4HA 0000000180043f6b f   libvcruntime:frame.obj
 0001:00042f81       ?fin$1@?0??FrameUnwindToState@__FrameHandler4@@SAXPEA_KPEAU_xDISPATCHER_CONTEXT@@PEAUFuncInfo4@FH4@@H@Z@4HA 0000000180043f81 f   libvcruntime:frame.obj
 0001:00042fa4       ?fin$0@?0???$?RV<lambda_0ae27a3a962d80f24befdcbee591983d>@@AEAV<lambda_8d0ee55de4b1038c4002e0adecdf1839>@@V<lambda_dc504788e8f1664fe9b84e20bfb512f2>@@@?$__crt_seh_guarded_call@X@@QEAAX$$QEAV<lambda_0ae27a3a962d80f24befdcbee591983d>@@AEAV<lambda_8d0ee55de4b1038c4002e0adecdf1839>@@$$QEAV<lambda_dc504788e8f1664fe9b84e20bfb512f2>@@@Z@4HA 0000000180043fa4 f   libucrt:per_thread_data.obj
 0001:00042fa4       ?fin$0@?0???$?RV<lambda_2d41944a1d46af3157314b8a01080d33>@@AEAV<lambda_8f455de75cd7d7f24b4096f044d8b9e6>@@V<lambda_aa500f224e6afead328df44964fe2772>@@@?$__crt_seh_guarded_call@X@@QEAAX$$QEAV<lambda_2d41944a1d46af3157314b8a01080d33>@@AEAV<lambda_8f455de75cd7d7f24b4096f044d8b9e6>@@$$QEAV<lambda_aa500f224e6afead328df44964fe2772>@@@Z@4HA 0000000180043fa4 f   libucrt:per_thread_data.obj
 0001:00042fa4       ?fin$0@?0???$?RV<lambda_aa87e3671a710a21b5dc78c0bdf72e11>@@AEAV<lambda_92619d2358a28f41a33ba319515a20b9>@@V<lambda_6992ecaafeb10aed2b74cb1fae11a551>@@@?$__crt_seh_guarded_call@X@@QEAAX$$QEAV<lambda_aa87e3671a710a21b5dc78c0bdf72e11>@@AEAV<lambda_92619d2358a28f41a33ba319515a20b9>@@$$QEAV<lambda_6992ecaafeb10aed2b74cb1fae11a551>@@@Z@4HA 0000000180043fa4 f   libucrt:per_thread_data.obj
 0001:00042fa4       ?fin$0@?0???$?RV<lambda_f2e299630e499de9f9a165e60fcd3db5>@@AEAV<lambda_2ae9d31cdba2644fcbeaf08da7c24588>@@V<lambda_40d01ff24d0e7b3814fdbdcee8eab3c7>@@@?$__crt_seh_guarded_call@X@@QEAAX$$QEAV<lambda_f2e299630e499de9f9a165e60fcd3db5>@@AEAV<lambda_2ae9d31cdba2644fcbeaf08da7c24588>@@$$QEAV<lambda_40d01ff24d0e7b3814fdbdcee8eab3c7>@@@Z@4HA 0000000180043fa4 f   libucrt:per_thread_data.obj
 0001:00042fa4       ?fin$0@?0???$?RV<lambda_efdfa57d1f175319df784efa44bb7b81>@@AEAV<lambda_5f0a4c1567f8adc6734073e5d1e1b35c>@@V<lambda_2e8a7d3640ea6ccb4c2413664c2db6fd>@@@?$__crt_seh_guarded_call@X@@QEAAX$$QEAV<lambda_efdfa57d1f175319df784efa44bb7b81>@@AEAV<lambda_5f0a4c1567f8adc6734073e5d1e1b35c>@@$$QEAV<lambda_2e8a7d3640ea6ccb4c2413664c2db6fd>@@@Z@4HA 0000000180043fa4 f   libucrt:mbctype.obj
 0001:00042fa4       ?fin$0@?0???$?RV<lambda_450d765d439847d4c735a33c368b5fc0>@@AEAV<lambda_44731a7d0e6d81c3e6aa82d741081786>@@V<lambda_601a2a7da3b7a96e9554ac7215c4b07c>@@@?$__crt_seh_guarded_call@P6AXH@Z@@QEAAP6AXH@Z$$QEAV<lambda_450d765d439847d4c735a33c368b5fc0>@@AEAV<lambda_44731a7d0e6d81c3e6aa82d741081786>@@$$QEAV<lambda_601a2a7da3b7a96e9554ac7215c4b07c>@@@Z@4HA 0000000180043fa4 f   libucrt:signal.obj
 0001:00042fa4       ?fin$0@?0???$?RV<lambda_d80eeec6fff315bfe5c115232f3240e3>@@AEAV<lambda_6e4b09c48022b2350581041d5f6b0c4c>@@V<lambda_2358e3775559c9db80273638284d5e45>@@@?$__crt_seh_guarded_call@X@@QEAAX$$QEAV<lambda_d80eeec6fff315bfe5c115232f3240e3>@@AEAV<lambda_6e4b09c48022b2350581041d5f6b0c4c>@@$$QEAV<lambda_2358e3775559c9db80273638284d5e45>@@@Z@4HA 0000000180043fa4 f   libucrt:exit.obj
 0001:00042fa4       ?fin$0@?0???$?RV<lambda_7777bce6b2f8c936911f934f8298dc43>@@AEAV<lambda_f03950bc5685219e0bcd2087efbe011e>@@V<lambda_3883c3dff614d5e0c5f61bb1ac94921c>@@@?$__crt_seh_guarded_call@H@@QEAAH$$QEAV<lambda_7777bce6b2f8c936911f934f8298dc43>@@AEAV<lambda_f03950bc5685219e0bcd2087efbe011e>@@$$QEAV<lambda_3883c3dff614d5e0c5f61bb1ac94921c>@@@Z@4HA 0000000180043fa4 f   libucrt:onexit.obj
 0001:00042fbe       ?filt$0@?0???R<lambda_6e4b09c48022b2350581041d5f6b0c4c>@@QEBA@XZ@4HA 0000000180043fbe f   libucrt:exit.obj
 0001:00042fd9       _ctrlfp$filt$0             0000000180043fd9 f   libucrt:fpctrl.obj
 0001:00043005       ?fin$0@?0??update_thread_multibyte_data_internal@@YAPEAU__crt_multibyte_data@@QEAU__acrt_ptd@@QEAPEAU1@@Z@4HA 0000000180044005 f   libucrt:mbctype.obj
 0001:0004301e       __acrt_initialize_lowio$fin$0 000000018004401e f   libucrt:ioinit.obj
 0001:0004301e       __acrt_lowio_ensure_fh_exists$fin$0 000000018004401e f   libucrt:osfinfo.obj
 0001:00043037       _query_new_handler$fin$0   0000000180044037 f   libucrt:new_handler.obj
 0001:0004304d       raise$fin$0                000000018004404d f   libucrt:signal.obj
 0001:0004306e       ?fin$0@?0???$?RV<lambda_842d9ff0dc9ef11c61343bbaebe7f885>@@AEAV<lambda_c5860995281e5c4ce005b3de8f5874ee>@@V<lambda_d90129c13df834fdcbf8d2b88dafcf2d>@@@?$__crt_seh_guarded_call@X@@QEAAX$$QEAV<lambda_842d9ff0dc9ef11c61343bbaebe7f885>@@AEAV<lambda_c5860995281e5c4ce005b3de8f5874ee>@@$$QEAV<lambda_d90129c13df834fdcbf8d2b88dafcf2d>@@@Z@4HA 000000018004406e f   libucrt:fflush.obj
 0001:00043089       ?fin$0@?0???$?RV<lambda_886d6c58226a84441f68b9f2b8217b83>@@AEAV<lambda_ab61a845afdef5b7c387490eaf3616ee>@@V<lambda_f7f22ab5edc0698d5f6905b0d3f44752>@@@?$__crt_seh_guarded_call@X@@QEAAX$$QEAV<lambda_886d6c58226a84441f68b9f2b8217b83>@@AEAV<lambda_ab61a845afdef5b7c387490eaf3616ee>@@$$QEAV<lambda_f7f22ab5edc0698d5f6905b0d3f44752>@@@Z@4HA 0000000180044089 f   libucrt:fflush.obj
 0001:000430a6       ?fin$0@?0???$?RV<lambda_410d79af7f07d98d83a3f525b3859a53>@@AEAV<lambda_3e16ef9562a7dcce91392c22ab16ea36>@@V<lambda_38119f0e861e05405d8a144b9b982f0a>@@@?$__crt_seh_guarded_call@X@@QEAAX$$QEAV<lambda_410d79af7f07d98d83a3f525b3859a53>@@AEAV<lambda_3e16ef9562a7dcce91392c22ab16ea36>@@$$QEAV<lambda_38119f0e861e05405d8a144b9b982f0a>@@@Z@4HA 00000001800440a6 f   libucrt:wsetlocale.obj
 0001:000430c0       __acrt_update_thread_locale_data$fin$0 00000001800440c0 f   libucrt:locale_refcounting.obj
 0001:000430d9       ?fin$0@?0???$?RV<lambda_751a882b2c74d4b022dec766aa51a29a>@@AEAV<lambda_628dfdc04ba53c8bfc02c9951375f3f5>@@V<lambda_f6c7be5f7998530c34de24c7437d6b54>@@@?$__crt_seh_guarded_call@H@@QEAAH$$QEAV<lambda_751a882b2c74d4b022dec766aa51a29a>@@AEAV<lambda_628dfdc04ba53c8bfc02c9951375f3f5>@@$$QEAV<lambda_f6c7be5f7998530c34de24c7437d6b54>@@@Z@4HA 00000001800440d9 f   libucrt:close.obj
 0001:000430d9       ?fin$0@?0???$?RV<lambda_a37b2b86f63e897a80ea819b0eb08c01>@@AEAV<lambda_38ce7e780aa69e748d6df282ebc68efe>@@V<lambda_99fb1378e971ab6e7edea83e3a7a83a2>@@@?$__crt_seh_guarded_call@H@@QEAAH$$QEAV<lambda_a37b2b86f63e897a80ea819b0eb08c01>@@AEAV<lambda_38ce7e780aa69e748d6df282ebc68efe>@@$$QEAV<lambda_99fb1378e971ab6e7edea83e3a7a83a2>@@@Z@4HA 00000001800440d9 f   libucrt:commit.obj
 0001:000430f3       _write$fin$0               00000001800440f3 f   libucrt:write.obj
 0001:0004310a       _fcloseall$fin$0           000000018004410a f   libucrt:closeall.obj
 0001:00043123       fclose$fin$0               0000000180044123 f   libucrt:fclose.obj
 0001:00043140       _IsNonwritableInCurrentImage$filt$0 0000000180044140 f   LIBCMT:pesect.obj
 0002:00000288       ?minFError$initializer$@_VecMathTests@aos@shdfnd@physx@@3P6AXXZEA 0000000180045288     Cooking.obj
 0002:00000290       ?maxFError$initializer$@_VecMathTests@aos@shdfnd@physx@@3P6AXXZEA 0000000180045290     Cooking.obj
 0002:00000298       ?minV3Error$initializer$@_VecMathTests@aos@shdfnd@physx@@3P6AXXZEA 0000000180045298     Cooking.obj
 0002:000002a0       ?maxV3Error$initializer$@_VecMathTests@aos@shdfnd@physx@@3P6AXXZEA 00000001800452a0     Cooking.obj
 0002:000002a8       ?minV4Error$initializer$@_VecMathTests@aos@shdfnd@physx@@3P6AXXZEA 00000001800452a8     Cooking.obj
 0002:000002b0       ?maxV4Error$initializer$@_VecMathTests@aos@shdfnd@physx@@3P6AXXZEA 00000001800452b0     Cooking.obj
 0002:000002b8       ?minFError$initializer$@_VecMathTests@aos@shdfnd@physx@@3P6AXXZEA 00000001800452b8     BVHStructureBuilder.obj
 0002:000002c0       ?maxFError$initializer$@_VecMathTests@aos@shdfnd@physx@@3P6AXXZEA 00000001800452c0     BVHStructureBuilder.obj
 0002:000002c8       ?minV3Error$initializer$@_VecMathTests@aos@shdfnd@physx@@3P6AXXZEA 00000001800452c8     BVHStructureBuilder.obj
 0002:000002d0       ?maxV3Error$initializer$@_VecMathTests@aos@shdfnd@physx@@3P6AXXZEA 00000001800452d0     BVHStructureBuilder.obj
 0002:000002d8       ?minV4Error$initializer$@_VecMathTests@aos@shdfnd@physx@@3P6AXXZEA 00000001800452d8     BVHStructureBuilder.obj
 0002:000002e0       ?maxV4Error$initializer$@_VecMathTests@aos@shdfnd@physx@@3P6AXXZEA 00000001800452e0     BVHStructureBuilder.obj
 0002:000002e8       ?minFError$initializer$@_VecMathTests@aos@shdfnd@physx@@3P6AXXZEA 00000001800452e8     RTreeCooking.obj
 0002:000002f0       ?maxFError$initializer$@_VecMathTests@aos@shdfnd@physx@@3P6AXXZEA 00000001800452f0     RTreeCooking.obj
 0002:000002f8       ?minV3Error$initializer$@_VecMathTests@aos@shdfnd@physx@@3P6AXXZEA 00000001800452f8     RTreeCooking.obj
 0002:00000300       ?maxV3Error$initializer$@_VecMathTests@aos@shdfnd@physx@@3P6AXXZEA 0000000180045300     RTreeCooking.obj
 0002:00000308       ?minV4Error$initializer$@_VecMathTests@aos@shdfnd@physx@@3P6AXXZEA 0000000180045308     RTreeCooking.obj
 0002:00000310       ?maxV4Error$initializer$@_VecMathTests@aos@shdfnd@physx@@3P6AXXZEA 0000000180045310     RTreeCooking.obj
 0002:00000318       ?minFError$initializer$@_VecMathTests@aos@shdfnd@physx@@3P6AXXZEA 0000000180045318     MeshBuilder.obj
 0002:00000320       ?maxFError$initializer$@_VecMathTests@aos@shdfnd@physx@@3P6AXXZEA 0000000180045320     MeshBuilder.obj
 0002:00000328       ?minV3Error$initializer$@_VecMathTests@aos@shdfnd@physx@@3P6AXXZEA 0000000180045328     MeshBuilder.obj
 0002:00000330       ?maxV3Error$initializer$@_VecMathTests@aos@shdfnd@physx@@3P6AXXZEA 0000000180045330     MeshBuilder.obj
 0002:00000338       ?minV4Error$initializer$@_VecMathTests@aos@shdfnd@physx@@3P6AXXZEA 0000000180045338     MeshBuilder.obj
 0002:00000340       ?maxV4Error$initializer$@_VecMathTests@aos@shdfnd@physx@@3P6AXXZEA 0000000180045340     MeshBuilder.obj
 0002:00000348       ?minFError$initializer$@_VecMathTests@aos@shdfnd@physx@@3P6AXXZEA 0000000180045348     TriangleMeshBuilder.obj
 0002:00000350       ?maxFError$initializer$@_VecMathTests@aos@shdfnd@physx@@3P6AXXZEA 0000000180045350     TriangleMeshBuilder.obj
 0002:00000358       ?minV3Error$initializer$@_VecMathTests@aos@shdfnd@physx@@3P6AXXZEA 0000000180045358     TriangleMeshBuilder.obj
 0002:00000360       ?maxV3Error$initializer$@_VecMathTests@aos@shdfnd@physx@@3P6AXXZEA 0000000180045360     TriangleMeshBuilder.obj
 0002:00000368       ?minV4Error$initializer$@_VecMathTests@aos@shdfnd@physx@@3P6AXXZEA 0000000180045368     TriangleMeshBuilder.obj
 0002:00000370       ?maxV4Error$initializer$@_VecMathTests@aos@shdfnd@physx@@3P6AXXZEA 0000000180045370     TriangleMeshBuilder.obj
 0002:00000378       ?minFError$initializer$@_VecMathTests@aos@shdfnd@physx@@3P6AXXZEA 0000000180045378     BigConvexDataBuilder.obj
 0002:00000380       ?maxFError$initializer$@_VecMathTests@aos@shdfnd@physx@@3P6AXXZEA 0000000180045380     BigConvexDataBuilder.obj
 0002:00000388       ?minV3Error$initializer$@_VecMathTests@aos@shdfnd@physx@@3P6AXXZEA 0000000180045388     BigConvexDataBuilder.obj
 0002:00000390       ?maxV3Error$initializer$@_VecMathTests@aos@shdfnd@physx@@3P6AXXZEA 0000000180045390     BigConvexDataBuilder.obj
 0002:00000398       ?minV4Error$initializer$@_VecMathTests@aos@shdfnd@physx@@3P6AXXZEA 0000000180045398     BigConvexDataBuilder.obj
 0002:000003a0       ?maxV4Error$initializer$@_VecMathTests@aos@shdfnd@physx@@3P6AXXZEA 00000001800453a0     BigConvexDataBuilder.obj
 0002:000003a8       ?minFError$initializer$@_VecMathTests@aos@shdfnd@physx@@3P6AXXZEA 00000001800453a8     ConvexHullBuilder.obj
 0002:000003b0       ?maxFError$initializer$@_VecMathTests@aos@shdfnd@physx@@3P6AXXZEA 00000001800453b0     ConvexHullBuilder.obj
 0002:000003b8       ?minV3Error$initializer$@_VecMathTests@aos@shdfnd@physx@@3P6AXXZEA 00000001800453b8     ConvexHullBuilder.obj
 0002:000003c0       ?maxV3Error$initializer$@_VecMathTests@aos@shdfnd@physx@@3P6AXXZEA 00000001800453c0     ConvexHullBuilder.obj
 0002:000003c8       ?minV4Error$initializer$@_VecMathTests@aos@shdfnd@physx@@3P6AXXZEA 00000001800453c8     ConvexHullBuilder.obj
 0002:000003d0       ?maxV4Error$initializer$@_VecMathTests@aos@shdfnd@physx@@3P6AXXZEA 00000001800453d0     ConvexHullBuilder.obj
 0002:000003d8       ?minFError$initializer$@_VecMathTests@aos@shdfnd@physx@@3P6AXXZEA 00000001800453d8     ConvexHullUtils.obj
 0002:000003e0       ?maxFError$initializer$@_VecMathTests@aos@shdfnd@physx@@3P6AXXZEA 00000001800453e0     ConvexHullUtils.obj
 0002:000003e8       ?minV3Error$initializer$@_VecMathTests@aos@shdfnd@physx@@3P6AXXZEA 00000001800453e8     ConvexHullUtils.obj
 0002:000003f0       ?maxV3Error$initializer$@_VecMathTests@aos@shdfnd@physx@@3P6AXXZEA 00000001800453f0     ConvexHullUtils.obj
 0002:000003f8       ?minV4Error$initializer$@_VecMathTests@aos@shdfnd@physx@@3P6AXXZEA 00000001800453f8     ConvexHullUtils.obj
 0002:00000400       ?maxV4Error$initializer$@_VecMathTests@aos@shdfnd@physx@@3P6AXXZEA 0000000180045400     ConvexHullUtils.obj
 0002:00000408       ?minFError$initializer$@_VecMathTests@aos@shdfnd@physx@@3P6AXXZEA 0000000180045408     ConvexMeshBuilder.obj
 0002:00000410       ?maxFError$initializer$@_VecMathTests@aos@shdfnd@physx@@3P6AXXZEA 0000000180045410     ConvexMeshBuilder.obj
 0002:00000418       ?minV3Error$initializer$@_VecMathTests@aos@shdfnd@physx@@3P6AXXZEA 0000000180045418     ConvexMeshBuilder.obj
 0002:00000420       ?maxV3Error$initializer$@_VecMathTests@aos@shdfnd@physx@@3P6AXXZEA 0000000180045420     ConvexMeshBuilder.obj
 0002:00000428       ?minV4Error$initializer$@_VecMathTests@aos@shdfnd@physx@@3P6AXXZEA 0000000180045428     ConvexMeshBuilder.obj
 0002:00000430       ?maxV4Error$initializer$@_VecMathTests@aos@shdfnd@physx@@3P6AXXZEA 0000000180045430     ConvexMeshBuilder.obj
 0002:00000438       ?minFError$initializer$@_VecMathTests@aos@shdfnd@physx@@3P6AXXZEA 0000000180045438     VolumeIntegration.obj
 0002:00000440       ?maxFError$initializer$@_VecMathTests@aos@shdfnd@physx@@3P6AXXZEA 0000000180045440     VolumeIntegration.obj
 0002:00000448       ?minV3Error$initializer$@_VecMathTests@aos@shdfnd@physx@@3P6AXXZEA 0000000180045448     VolumeIntegration.obj
 0002:00000450       ?maxV3Error$initializer$@_VecMathTests@aos@shdfnd@physx@@3P6AXXZEA 0000000180045450     VolumeIntegration.obj
 0002:00000458       ?minV4Error$initializer$@_VecMathTests@aos@shdfnd@physx@@3P6AXXZEA 0000000180045458     VolumeIntegration.obj
 0002:00000460       ?maxV4Error$initializer$@_VecMathTests@aos@shdfnd@physx@@3P6AXXZEA 0000000180045460     VolumeIntegration.obj
 0002:00000600       ?minus1w@?A0x9a1ce376@aos@shdfnd@physx@@3QBMB 0000000180045600     Cooking.obj
 0002:00000610       ?gMaskXYZ@internalWindowsSimd@aos@shdfnd@physx@@3QBIB 0000000180045610     Cooking.obj
 0002:00000da0       ?minus1w@?A0x27736de4@aos@shdfnd@physx@@3QBMB 0000000180045da0     BVHStructureBuilder.obj
 0002:00000db0       ?gMaskXYZ@internalWindowsSimd@aos@shdfnd@physx@@3QBIB 0000000180045db0     BVHStructureBuilder.obj
 0002:00000e30       ?minus1w@?A0x295dbabf@aos@shdfnd@physx@@3QBMB 0000000180045e30     RTreeCooking.obj
 0002:00000e40       ?gMaskXYZ@internalWindowsSimd@aos@shdfnd@physx@@3QBIB 0000000180045e40     RTreeCooking.obj
 0002:00000e88       ?stopAtTrisPerPage@physx@@3QBIB 0000000180045e88     RTreeCooking.obj
 0002:00000ec8       ?stopAtTrisPerLeaf@physx@@3QBIB 0000000180045ec8     RTreeCooking.obj
 0002:00001070       ?minus1w@?A0xd5207c02@aos@shdfnd@physx@@3QBMB 0000000180046070     MeshBuilder.obj
 0002:00001080       ?gMaskXYZ@internalWindowsSimd@aos@shdfnd@physx@@3QBIB 0000000180046080     MeshBuilder.obj
 0002:000010a0       ?minus1w@?A0xf0f79afe@aos@shdfnd@physx@@3QBMB 00000001800460a0     TriangleMeshBuilder.obj
 0002:000010b0       ?gMaskXYZ@internalWindowsSimd@aos@shdfnd@physx@@3QBIB 00000001800460b0     TriangleMeshBuilder.obj
 0002:00001480       ?minus1w@?A0x0f5d668f@aos@shdfnd@physx@@3QBMB 0000000180046480     BigConvexDataBuilder.obj
 0002:00001490       ?gMaskXYZ@internalWindowsSimd@aos@shdfnd@physx@@3QBIB 0000000180046490     BigConvexDataBuilder.obj
 0002:00001510       ?minus1w@?A0x14001422@aos@shdfnd@physx@@3QBMB 0000000180046510     ConvexHullBuilder.obj
 0002:00001520       ?gMaskXYZ@internalWindowsSimd@aos@shdfnd@physx@@3QBIB 0000000180046520     ConvexHullBuilder.obj
 0002:000019a0       ?minus1w@?A0xcf88cc76@aos@shdfnd@physx@@3QBMB 00000001800469a0     ConvexHullUtils.obj
 0002:000019b0       ?gMaskXYZ@internalWindowsSimd@aos@shdfnd@physx@@3QBIB 00000001800469b0     ConvexHullUtils.obj
 0002:00001a60       ?minus1w@?A0xdaa4b477@aos@shdfnd@physx@@3QBMB 0000000180046a60     ConvexMeshBuilder.obj
 0002:00001a70       ?gMaskXYZ@internalWindowsSimd@aos@shdfnd@physx@@3QBIB 0000000180046a70     ConvexMeshBuilder.obj
 0002:00001ff0       ?minus1w@?A0x95ee0706@aos@shdfnd@physx@@3QBMB 0000000180046ff0     VolumeIntegration.obj
 0002:00002000       ?gMaskXYZ@internalWindowsSimd@aos@shdfnd@physx@@3QBIB 0000000180047000     VolumeIntegration.obj
 0002:00002180       L_abs_mask                 0000000180047180     LIBCMT:svml_ssinf4_dispatch.obj
 0002:00002190       L_real_one                 0000000180047190     LIBCMT:svml_ssinf4_dispatch.obj
 0002:000021a0       L_one_half                 00000001800471a0     LIBCMT:svml_ssinf4_dispatch.obj
 0002:000021b0       L_two_to_neg_13            00000001800471b0     LIBCMT:svml_ssinf4_dispatch.obj
 0002:000021c0       L_pi_over_two              00000001800471c0     LIBCMT:svml_ssinf4_dispatch.obj
 0002:000021d0       L_pi_over_two2             00000001800471d0     LIBCMT:svml_ssinf4_dispatch.obj
 0002:00002340       ?tokenTable@@3QBUStringLiteral@@B 0000000180047340     libvcruntime:undname.obj
 0002:00002440       ?nameTable@@3QBUStringLiteral@@B 0000000180047440     libvcruntime:undname.obj
 0002:00002970       ?rttiTable@@3QBUStringLiteral@@B 0000000180047970     libvcruntime:undname.obj
 0002:000029c0       ?IndirectionName@@3QBUStringLiteral@@B 00000001800479c0     libvcruntime:undname.obj
 0002:00002a20       ?PrefixName@@3QBUStringLiteral@@B 0000000180047a20     libvcruntime:undname.obj
 0002:00003640       ?result@?1??IsValidIdentChar@@YA_ND@Z@4U<unnamed-type-result>@?1??InitValidIdentChar@@YA?AU2@XZ@B 0000000180048640     libvcruntime:undname.obj
 0002:000037b0       ?ExceptionTemplate@?1??UnwindNestedFrames@__FrameHandler4@@SAXPEA_KPEAUEHExceptionRecord@@PEAU_CONTEXT@@0PEAXPEAUFuncInfo4@FH4@@HHPEAUHandlerType4@6@PEAU_xDISPATCHER_CONTEXT@@E@Z@4U_EXCEPTION_RECORD@@B 00000001800487b0     libvcruntime:risctrnsctrl.obj
 0002:00003848       ?module_names@?A0xdafaeb0c@@3QBQEB_WB 0000000180048848     libvcruntime:winapi_downlevel.obj
 0002:00003908       ?candidate_modules@?1??try_get_FlsAlloc@@YAP6AKP6AXPEAX@Z@ZXZ@4QBW4module_id@?A0xdafaeb0c@@B 0000000180048908     libvcruntime:winapi_downlevel.obj
 0002:00003920       ?candidate_modules@?1??try_get_FlsFree@@YAP6AHK@ZXZ@4QBW4module_id@?A0xdafaeb0c@@B 0000000180048920     libvcruntime:winapi_downlevel.obj
 0002:00003930       ?candidate_modules@?1??try_get_FlsGetValue@@YAP6APEAXK@ZXZ@4QBW4module_id@?A0xdafaeb0c@@B 0000000180048930     libvcruntime:winapi_downlevel.obj
 0002:00003948       ?candidate_modules@?1??try_get_FlsSetValue@@YAP6AHKPEAX@ZXZ@4QBW4module_id@?A0xdafaeb0c@@B 0000000180048948     libvcruntime:winapi_downlevel.obj
 0002:00003960       ?candidate_modules@?1??try_get_InitializeCriticalSectionEx@@YAP6AHPEAU_RTL_CRITICAL_SECTION@@KK@ZXZ@4QBW4module_id@?A0xdafaeb0c@@B 0000000180048960     libvcruntime:winapi_downlevel.obj
 0002:000039e0       ?atan_jby256@?1??atan2f@@9@9 00000001800489e0     libucrt:atan2f.obj
 0002:000041e0       L_real_one                 00000001800491e0     libucrt:cosf.obj
 0002:000041f0       L_one_half                 00000001800491f0     libucrt:cosf.obj
 0002:00004200       L_2bypi                    0000000180049200     libucrt:cosf.obj
 0002:00004210       L_one_sixth                0000000180049210     libucrt:cosf.obj
 0002:00004220       L_piby2                    0000000180049220     libucrt:cosf.obj
 0002:00004230       L_piby2_1                  0000000180049230     libucrt:cosf.obj
 0002:00004240       L_piby2_1tail              0000000180049240     libucrt:cosf.obj
 0002:00004250       L_piby2_2                  0000000180049250     libucrt:cosf.obj
 0002:00004260       L_piby2_2tail              0000000180049260     libucrt:cosf.obj
 0002:00004270       L_large_x_sse2             0000000180049270     libucrt:cosf.obj
 0002:00004280       L_large_x_fma3             0000000180049280     libucrt:cosf.obj
 0002:00004290       L_sign_mask                0000000180049290     libucrt:cosf.obj
 0002:000042a0       L__int_three               00000001800492a0     libucrt:cosf.obj
 0002:000042b0       L__min_norm_double         00000001800492b0     libucrt:cosf.obj
 0002:000042c0       L_two_to_neg_7             00000001800492c0     libucrt:cosf.obj
 0002:000042d0       L_two_to_neg_13            00000001800492d0     libucrt:cosf.obj
 0002:000042e0       L_two_to_32_float          00000001800492e0     libucrt:cosf.obj
 0002:000042e8       L_one_float                00000001800492e8     libucrt:cosf.obj
 0002:000042f0       L_inf_mask_32              00000001800492f0     libucrt:cosf.obj
 0002:00004300       L_signbit                  0000000180049300     libucrt:sinf.obj
 0002:00004310       L_sign_mask                0000000180049310     libucrt:sinf.obj
 0002:00004320       L_one                      0000000180049320     libucrt:sinf.obj
 0002:00004330       L_int_three                0000000180049330     libucrt:sinf.obj
 0002:00004340       L_one_half                 0000000180049340     libucrt:sinf.obj
 0002:00004350       L_twobypi                  0000000180049350     libucrt:sinf.obj
 0002:00004360       L_piby2_1                  0000000180049360     libucrt:sinf.obj
 0002:00004370       L_one_sixth                0000000180049370     libucrt:sinf.obj
 0002:00004380       L_piby2_1tail              0000000180049380     libucrt:sinf.obj
 0002:00004390       L_piby2_2                  0000000180049390     libucrt:sinf.obj
 0002:000043a0       L_piby2_2tail              00000001800493a0     libucrt:sinf.obj
 0002:000043b0       L_inf_mask_32              00000001800493b0     libucrt:sinf.obj
 0002:000043c0       L_int_two                  00000001800493c0     libucrt:sinf.obj
 0002:000043d0       L_piby2_lead               00000001800493d0     libucrt:sinf.obj
 0002:000043e0       L_piby4                    00000001800493e0     libucrt:sinf.obj
 0002:000043f0       L_mask_3f2                 00000001800493f0     libucrt:sinf.obj
 0002:00004400       L_mask_3f8                 0000000180049400     libucrt:sinf.obj
 0002:00004410       L_large_x_fma3             0000000180049410     libucrt:sinf.obj
 0002:00004418       L_large_x_sse2             0000000180049418     libucrt:sinf.obj
 0002:00004420       L_near_one                 0000000180049420     libucrt:sinf.obj
 0002:00004428       L_two_to_32                0000000180049428     libucrt:sinf.obj
 0002:00004530       __acrt_initializers        0000000180049530     libucrt:initialization.obj
 0002:000046b0       L__piby2                   00000001800496b0     libucrt:remainder_piby2f_forasm.obj
 0002:000046c0       L_piby2_lead               00000001800496c0     libucrt:remainder_piby2_forfma3.obj
 0002:000046d0       L_fff800                   00000001800496d0     libucrt:remainder_piby2_forfma3.obj
 0002:000046e0       L_piby2_part1              00000001800496e0     libucrt:remainder_piby2_forfma3.obj
 0002:000046f0       L_piby2_part2              00000001800496f0     libucrt:remainder_piby2_forfma3.obj
 0002:00004700       L_piby2_part3              0000000180049700     libucrt:remainder_piby2_forfma3.obj
 0002:00004710       L_piby2_1                  0000000180049710     libucrt:remainder_piby2_forfma3.obj
 0002:00004720       L_piby2_2                  0000000180049720     libucrt:remainder_piby2_forfma3.obj
 0002:00004730       L_piby2_3                  0000000180049730     libucrt:remainder_piby2_forfma3.obj
 0002:00004740       L_piby2_1tail              0000000180049740     libucrt:remainder_piby2_forfma3.obj
 0002:00004750       L_piby2_2tail              0000000180049750     libucrt:remainder_piby2_forfma3.obj
 0002:00004760       L_piby2_3tail              0000000180049760     libucrt:remainder_piby2_forfma3.obj
 0002:00004770       L_sign_mask                0000000180049770     libucrt:remainder_piby2_forfma3.obj
 0002:00004780       L_twobypi                  0000000180049780     libucrt:remainder_piby2_forfma3.obj
 0002:00004790       L_point_five               0000000180049790     libucrt:remainder_piby2_forfma3.obj
 0002:000047a0       L_int_three                00000001800497a0     libucrt:remainder_piby2_forfma3.obj
 0002:000047b0       L_inf_mask_64              00000001800497b0     libucrt:remainder_piby2_forfma3.obj
 0002:000047c0       L_signbit                  00000001800497c0     libucrt:remainder_piby2_forfma3.obj
 0002:000047d0       L_r                        00000001800497d0     libucrt:remainder_piby2_forfma3.obj
 0002:000047e0       L_xc1                      00000001800497e0     libucrt:remainder_piby2_forfma3.obj
 0002:000047f0       L_xc2                      00000001800497f0     libucrt:remainder_piby2_forfma3.obj
 0002:00004800       L_xc3                      0000000180049800     libucrt:remainder_piby2_forfma3.obj
 0002:00004810       L_sigma                    0000000180049810     libucrt:remainder_piby2_forfma3.obj
 0002:00004920       L__piby2                   0000000180049920     libucrt:remainder_piby2f_forc.obj
 0002:00004930       L__2_by_pi_bits            0000000180049930     libucrt:remainder_piby2f_forc.obj
 0002:000049d0       ?errtable@@3QBUerrentry@?A0x31fdb9ec@@B 00000001800499d0     libucrt:errno.obj
 0002:00004b38       ?_mb_locale_names@@3QBQEB_WB 0000000180049b38     libucrt:mbctype.obj
 0002:00004ba0       ?module_names@?A0x391cf84c@@3QBQEB_WB 0000000180049ba0     libucrt:winapi_thunks.obj
 0002:000050a8       ?candidate_modules@?1??try_get_AreFileApisANSI@@YAP6AHXZXZ@4QBW4module_id@?A0x391cf84c@@B 000000018004a0a8     libucrt:winapi_thunks.obj
 0002:000050c0       ?candidate_modules@?1??try_get_FlsAlloc@@YAP6AKP6AXPEAX@Z@ZXZ@4QBW4module_id@?A0x391cf84c@@B 000000018004a0c0     libucrt:winapi_thunks.obj
 0002:000050c8       ?candidate_modules@?1??try_get_FlsFree@@YAP6AHK@ZXZ@4QBW4module_id@?A0x391cf84c@@B 000000018004a0c8     libucrt:winapi_thunks.obj
 0002:000050d0       ?candidate_modules@?1??try_get_FlsGetValue@@YAP6APEAXK@ZXZ@4QBW4module_id@?A0x391cf84c@@B 000000018004a0d0     libucrt:winapi_thunks.obj
 0002:000050d8       ?candidate_modules@?1??try_get_FlsSetValue@@YAP6AHKPEAX@ZXZ@4QBW4module_id@?A0x391cf84c@@B 000000018004a0d8     libucrt:winapi_thunks.obj
 0002:000050e0       ?candidate_modules@?1??try_get_InitializeCriticalSectionEx@@YAP6AHPEAU_RTL_CRITICAL_SECTION@@KK@ZXZ@4QBW4module_id@?A0x391cf84c@@B 000000018004a0e0     libucrt:winapi_thunks.obj
 0002:000050e8       ?candidate_modules@?1??try_get_LCMapStringEx@@YAP6AHPEB_WK0HPEA_WHPEAU_nlsversioninfo@@PEAX_J@ZXZ@4QBW4module_id@?A0x391cf84c@@B 000000018004a0e8     libucrt:winapi_thunks.obj
 0002:00005100       ?candidate_modules@?1??try_get_LocaleNameToLCID@@YAP6AKPEB_WK@ZXZ@4QBW4module_id@?A0x391cf84c@@B 000000018004a100     libucrt:winapi_thunks.obj
 0002:0000511c       ?candidate_modules@?1??try_get_AppPolicyGetProcessTerminationMethod@@YAP6AJPEAXPEAW4AppPolicyProcessTerminationMethod@@@ZXZ@4QBW4module_id@?A0x391cf84c@@B 000000018004a11c     libucrt:winapi_thunks.obj
 0002:000057d0       ?strings@?1??fp_format_nan_or_infinity@@YAHW4__acrt_fp_class@@_NPEAD_K1@Z@4QAY03QEBDA 000000018004a7d0     libucrt:cvt.obj
 0002:00005eb0       __real@433fffffffffffff    000000018004aeb0     libucrt:fpsr.obj
 0002:00005eb8       __real@c33fffffffffffff    000000018004aeb8     libucrt:fpsr.obj
 0002:00005ed0       ?LcidToLocaleNameTable@?A0x881e4c05@@3QBULcidToLocaleName@1@B 000000018004aed0     libucrt:lcidtoname_downlevel.obj
 0002:00007930       ?LocaleNameToIndexTable@?A0x881e4c05@@3QBULocaleNameIndex@1@B 000000018004c930     libucrt:lcidtoname_downlevel.obj
 0002:00009ae0       ?large_power_indices@?1??multiply_by_power_of_ten@__crt_strtox@@YA_NAEAUbig_integer@2@I@Z@4QBUunpack_index@?1??12@YA_N0I@Z@B 000000018004eae0     libucrt:cfout.obj
 0002:00009bc0       __real_ninf                000000018004ebc0     libucrt:log10.obj
 0002:00009bd0       __real_inf                 000000018004ebd0     libucrt:log10.obj
 0002:00009be0       __real_neg_qnan            000000018004ebe0     libucrt:log10.obj
 0002:00009bf0       __real_qnanbit             000000018004ebf0     libucrt:log10.obj
 0002:00009c00       __int_1023                 000000018004ec00     libucrt:log10.obj
 0002:00009c10       __mask_001                 000000018004ec10     libucrt:log10.obj
 0002:00009c20       __mask_mant                000000018004ec20     libucrt:log10.obj
 0002:00009c30       __mask_mant_top8           000000018004ec30     libucrt:log10.obj
 0002:00009c40       __mask_mant9               000000018004ec40     libucrt:log10.obj
 0002:00009c50       __real_log10_e             000000018004ec50     libucrt:log10.obj
 0002:00009c60       __real_log10_e_lead        000000018004ec60     libucrt:log10.obj
 0002:00009c70       __real_log10_e_tail        000000018004ec70     libucrt:log10.obj
 0002:00009c80       __real_log10_2_lead        000000018004ec80     libucrt:log10.obj
 0002:00009c90       __real_log10_2_tail        000000018004ec90     libucrt:log10.obj
 0002:00009ca0       __real_two                 000000018004eca0     libucrt:log10.obj
 0002:00009cb0       __real_one                 000000018004ecb0     libucrt:log10.obj
 0002:00009cc0       __real_half                000000018004ecc0     libucrt:log10.obj
 0002:00009cd0       __mask_100                 000000018004ecd0     libucrt:log10.obj
 0002:00009ce0       __real_1_over_512          000000018004ece0     libucrt:log10.obj
 0002:00009cf0       __real_1_over_2            000000018004ecf0     libucrt:log10.obj
 0002:00009d00       __real_1_over_3            000000018004ed00     libucrt:log10.obj
 0002:00009d10       __real_1_over_4            000000018004ed10     libucrt:log10.obj
 0002:00009d20       __real_1_over_5            000000018004ed20     libucrt:log10.obj
 0002:00009d30       __real_1_over_6            000000018004ed30     libucrt:log10.obj
 0002:00009d40       __real_neg_1023            000000018004ed40     libucrt:log10.obj
 0002:00009d50       __mask_2045                000000018004ed50     libucrt:log10.obj
 0002:00009d60       __real_threshold           000000018004ed60     libucrt:log10.obj
 0002:00009d70       __real_near_one_lt         000000018004ed70     libucrt:log10.obj
 0002:00009d80       __real_near_one_gt         000000018004ed80     libucrt:log10.obj
 0002:00009d90       __real_min_norm            000000018004ed90     libucrt:log10.obj
 0002:00009da0       __real_notsign             000000018004eda0     libucrt:log10.obj
 0002:00009db0       __real_ca1                 000000018004edb0     libucrt:log10.obj
 0002:00009dc0       __real_ca2                 000000018004edc0     libucrt:log10.obj
 0002:00009dd0       __real_ca3                 000000018004edd0     libucrt:log10.obj
 0002:00009de0       __real_ca4                 000000018004ede0     libucrt:log10.obj
 0002:00009df0       __mask_lower               000000018004edf0     libucrt:log10.obj
 0002:00009e00       __flag_x_zero              000000018004ee00     libucrt:log10.obj
 0002:00009e04       __flag_x_neg               000000018004ee04     libucrt:log10.obj
 0002:00009e08       __flag_x_nan               000000018004ee08     libucrt:log10.obj
 0002:0000b650       GS_ExceptionPointers       0000000180050650     LIBCMT:gs_report.obj
 0002:0000bf08       $unwind$??1Adjacencies@physx@@QEAA@XZ 0000000180050f08     Adjacencies.obj
 0002:0000bf08       $unwind$??_EPxFoundation@physx@@MEAAPEAXI@Z 0000000180050f08     Adjacencies.obj
 0002:0000bf08       $unwind$??0ConvexMeshBuilder@physx@@QEAA@_N@Z 0000000180050f08     ConvexMeshBuilder.obj
 0002:0000bf08       $unwind$?isFinite@PxVec3@physx@@QEBA_NXZ 0000000180050f08     ConvexMeshBuilder.obj
 0002:0000bf08       $unwind$??0ConvexPolygonsBuilder@physx@@QEAA@PEAUConvexHullData@Gu@1@_N@Z 0000000180050f08     ConvexPolygonsBuilder.obj
 0002:0000bf08       $unwind$??_GCooking@physx@@UEAAPEAXI@Z 0000000180050f08     Cooking.obj
 0002:0000bf08       $unwind$??_GPxBase@physx@@MEAAPEAXI@Z 0000000180050f08     Cooking.obj
 0002:0000bf08       $unwind$??_GPxCooking@physx@@MEAAPEAXI@Z 0000000180050f08     Cooking.obj
 0002:0000bf08       $unwind$?isKindOf@PxConvexMesh@physx@@MEBA_NPEBD@Z 0000000180050f08     Cooking.obj
 0002:0000bf08       $unwind$?isKindOf@PxHeightField@physx@@MEBA_NPEBD@Z 0000000180050f08     Cooking.obj
 0002:0000bf08       $unwind$??_GQuantizer@physx@@MEAAPEAXI@Z 0000000180050f08     Quantizer.obj
 0002:0000bf08       $unwind$??1RTreeTriangleData@Gu@physx@@UEAA@XZ 0000000180050f08     TriangleMeshBuilder.obj
 0002:0000bf08       $unwind$??1RTreeTriangleMeshBuilder@physx@@UEAA@XZ 0000000180050f08     TriangleMeshBuilder.obj
 0002:0000bf08       $unwind$??_GRTreeCookerRemap@physx@@UEAAPEAXI@Z 0000000180050f08     TriangleMeshBuilder.obj
 0002:0000bf08       $unwind$??_GRemapCallback@RTreeCooker@physx@@UEAAPEAXI@Z 0000000180050f08     TriangleMeshBuilder.obj
 0002:0000bf08       $unwind$?DloadAcquireSectionWriteAccess@@YAXXZ 0000000180050f08     Delayimp:delayhlp.obj
 0002:0000bf08       $unwind$__raise_securityfailure 0000000180050f08     LIBCMT:gs_report.obj
 0002:0000bf08       $unwind$??_Gtype_info@@UEAAPEAXI@Z 0000000180050f08     LIBCMT:std_type_info_static.obj
 0002:0000bf08       $unwind$__scrt_initialize_crt 0000000180050f08     LIBCMT:utility.obj
 0002:0000bf08       $unwind$__scrt_initialize_onexit_tables 0000000180050f08     LIBCMT:utility.obj
 0002:0000bf08       $unwind$__scrt_release_startup_lock 0000000180050f08     LIBCMT:utility.obj
 0002:0000bf08       $unwind$__scrt_uninitialize_crt 0000000180050f08     LIBCMT:utility.obj
 0002:0000bf08       $unwind$_IsExceptionObjectToBeDestroyed 0000000180050f08     libvcruntime:ehhelpers.obj
 0002:0000bf08       $unwind$??0HandlerMap4@FH4@@QEAA@PEBUTryBlockMapEntry4@1@_KH@Z 0000000180050f08     libvcruntime:frame.obj
 0002:0000bf08       $unwind$??0bad_exception@std@@QEAA@AEBV01@@Z 0000000180050f08     libvcruntime:frame.obj
 0002:0000bf08       $unwind$??0exception@std@@QEAA@AEBV01@@Z 0000000180050f08     libvcruntime:frame.obj
 0002:0000bf08       $unwind$?ExFilterRethrow@@YAHPEAU_EXCEPTION_POINTERS@@PEAUEHExceptionRecord@@PEAH@Z 0000000180050f08     libvcruntime:frame.obj
 0002:0000bf08       $unwind$__vcrt_uninitialize_locks 0000000180050f08     libvcruntime:locks.obj
 0002:0000bf08       $unwind$__vcrt_freeptd     0000000180050f08     libvcruntime:per_thread_data.obj
 0002:0000bf08       $unwind$_CreateFrameInfo   0000000180050f08     libvcruntime:risctrnsctrl.obj
 0002:0000bf08       $unwind$_SetImageBase      0000000180050f08     libvcruntime:risctrnsctrl.obj
 0002:0000bf08       $unwind$_SetThrowImageBase 0000000180050f08     libvcruntime:risctrnsctrl.obj
 0002:0000bf08       $unwind$__std_exception_destroy 0000000180050f08     libvcruntime:std_exception.obj
 0002:0000bf08       $unwind$__std_type_info_destroy_list 0000000180050f08     libvcruntime:std_type_info.obj
 0002:0000bf08       $unwind$??$?0$00@DName@@QEAA@PEBDU?$StringLifeSelector@$00@@@Z 0000000180050f08     libvcruntime:undname.obj
 0002:0000bf08       $unwind$??$?0$01@DName@@QEAA@PEBDU?$StringLifeSelector@$01@@@Z 0000000180050f08     libvcruntime:undname.obj
 0002:0000bf08       $unwind$??$?0$0A@@DName@@QEAA@PEBDU?$StringLifeSelector@$0A@@@@Z 0000000180050f08     libvcruntime:undname.obj
 0002:0000bf08       $unwind$??0DName@@QEAA@AEBUStringLiteral@@@Z 0000000180050f08     libvcruntime:undname.obj
 0002:0000bf08       $unwind$??HDName@@QEBA?AV0@AEBUStringLiteral@@@Z 0000000180050f08     libvcruntime:undname.obj
 0002:0000bf08       $unwind$??HDName@@QEBA?AV0@AEBV0@@Z 0000000180050f08     libvcruntime:undname.obj
 0002:0000bf08       $unwind$??HDName@@QEBA?AV0@D@Z 0000000180050f08     libvcruntime:undname.obj
 0002:0000bf08       $unwind$??HDName@@QEBA?AV0@W4DNameStatus@@@Z 0000000180050f08     libvcruntime:undname.obj
 0002:0000bf08       $unwind$??YDName@@QEAAAEAV0@AEBV0@@Z 0000000180050f08     libvcruntime:undname.obj
 0002:0000bf08       $unwind$??YDName@@QEAAAEAV0@W4DNameStatus@@@Z 0000000180050f08     libvcruntime:undname.obj
 0002:0000bf08       $unwind$?getLastChar@pairNode@@UEBADXZ 0000000180050f08     libvcruntime:undname.obj
 0002:0000bf08       $unwind$?getReturnType@UnDecorator@@CA?AVDName@@PEAV2@@Z 0000000180050f08     libvcruntime:undname.obj
 0002:0000bf08       $unwind$?getStringObject@UnDecorator@@CA?AVDName@@XZ 0000000180050f08     libvcruntime:undname.obj
 0002:0000bf08       $unwind$?getSymbolName@UnDecorator@@CA?AVDName@@XZ 0000000180050f08     libvcruntime:undname.obj
 0002:0000bf08       $unwind$?getValue@UnDecorator@@CA?AV?$optional@_K@std@@XZ 0000000180050f08     libvcruntime:undname.obj
 0002:0000bf08       $unwind$__vcrt_FlsAlloc    0000000180050f08     libvcruntime:winapi_downlevel.obj
 0002:0000bf08       $unwind$__vcrt_FlsFree     0000000180050f08     libvcruntime:winapi_downlevel.obj
 0002:0000bf08       $unwind$__vcrt_FlsGetValue 0000000180050f08     libvcruntime:winapi_downlevel.obj
 0002:0000bf08       $unwind$_calloc_base       0000000180050f08     libucrt:calloc_base.obj
 0002:0000bf08       $unwind$_malloc_base       0000000180050f08     libucrt:malloc_base.obj
 0002:0000bf08       $unwind$_callnewh          0000000180050f08     libucrt:new_handler.obj
 0002:0000bf08       $unwind$initialize_pointers 0000000180050f08     libucrt:initialization.obj
 0002:0000bf08       $unwind$uninitialize_allocated_memory 0000000180050f08     libucrt:initialization.obj
 0002:0000bf08       $unwind$__acrt_initialize_locks 0000000180050f08     libucrt:locks.obj
 0002:0000bf08       $unwind$__acrt_uninitialize_locks 0000000180050f08     libucrt:locks.obj
 0002:0000bf08       $unwind$__acrt_freeptd     0000000180050f08     libucrt:per_thread_data.obj
 0002:0000bf08       $unwind$__acrt_getptd_head 0000000180050f08     libucrt:per_thread_data.obj
 0002:0000bf08       $unwind$__acrt_get_process_end_policy 0000000180050f08     libucrt:win_policies.obj
 0002:0000bf08       $unwind$__acrt_AppPolicyGetProcessTerminationMethodInternal 0000000180050f08     libucrt:winapi_thunks.obj
 0002:0000bf08       $unwind$__acrt_FlsAlloc    0000000180050f08     libucrt:winapi_thunks.obj
 0002:0000bf08       $unwind$__acrt_FlsFree     0000000180050f08     libucrt:winapi_thunks.obj
 0002:0000bf08       $unwind$__acrt_FlsGetValue 0000000180050f08     libucrt:winapi_thunks.obj
 0002:0000bf08       $unwind$__acrt_uninitialize_winapi_thunks 0000000180050f08     libucrt:winapi_thunks.obj
 0002:0000bf08       $unwind$__acrt_update_locale_info 0000000180050f08     libucrt:locale_update.obj
 0002:0000bf08       $unwind$__acrt_update_multibyte_info 0000000180050f08     libucrt:locale_update.obj
 0002:0000bf08       $unwind$__acrt_allocate_buffer_for_argv 0000000180050f08     libucrt:argv_parsing.obj
 0002:0000bf08       $unwind$?exit_or_terminate_process@@YAXI@Z 0000000180050f08     libucrt:exit.obj
 0002:0000bf08       $unwind$?try_cor_exit_process@@YAXI@Z 0000000180050f08     libucrt:exit.obj
 0002:0000bf08       $unwind$__acrt_uninitialize_stdio 0000000180050f08     libucrt:_file.obj
 0002:0000bf08       $unwind$__acrt_stdio_free_buffer_nolock 0000000180050f08     libucrt:_freebuf.obj
 0002:0000bf08       $unwind$_fflush_nolock     0000000180050f08     libucrt:fflush.obj
 0002:0000bf08       $unwind$?state_case_normal@?$output_processor@DV?$string_output_adapter@D@__crt_stdio_output@@V?$format_validation_base@DV?$string_output_adapter@D@__crt_stdio_output@@@2@@__crt_stdio_output@@AEAA_NXZ 0000000180050f08     libucrt:output.obj
 0002:0000bf08       $unwind$?type_case_c_tchar@?$output_processor@DV?$string_output_adapter@D@__crt_stdio_output@@V?$format_validation_base@DV?$string_output_adapter@D@__crt_stdio_output@@@2@@__crt_stdio_output@@AEAA_ND@Z 0000000180050f08     libucrt:output.obj
 0002:0000bf08       $unwind$?type_case_s@?$output_processor@DV?$string_output_adapter@D@__crt_stdio_output@@V?$format_validation_base@DV?$string_output_adapter@D@__crt_stdio_output@@@2@@__crt_stdio_output@@AEAA_NXZ 0000000180050f08     libucrt:output.obj
 0002:0000bf08       $unwind$strcpy_s           0000000180050f08     libucrt:strcpy_s.obj
 0002:0000bf08       $unwind$_clrfp             0000000180050f08     libucrt:fpctrl.obj
 0002:0000bf08       $unwind$_set_statfp        0000000180050f08     libucrt:fpctrl.obj
 0002:0000bf08       $unwind$_clearfp           0000000180050f08     libucrt:ieee.obj
 0002:0000bf08       $unwind$fegetenv           0000000180050f08     libucrt:fegetenv.obj
 0002:0000bf08       $unwind$feholdexcept       0000000180050f08     libucrt:feholdexcept.obj
 0002:0000bf08       $unwind$fesetenv           0000000180050f08     libucrt:fesetenv.obj
 0002:0000bf10       $chain$0$??_EPxFoundation@physx@@MEAAPEAXI@Z 0000000180050f10     Adjacencies.obj
 0002:0000bf24       $chain$1$??_EPxFoundation@physx@@MEAAPEAXI@Z 0000000180050f24     Adjacencies.obj
 0002:0000bf34       $chain$0$??1Adjacencies@physx@@QEAA@XZ 0000000180050f34     Adjacencies.obj
 0002:0000bf48       $chain$2$??1Adjacencies@physx@@QEAA@XZ 0000000180050f48     Adjacencies.obj
 0002:0000bf5c       $chain$3$??1Adjacencies@physx@@QEAA@XZ 0000000180050f5c     Adjacencies.obj
 0002:0000bf6c       $unwind$?Init@AdjacenciesBuilder@physx@@QEAA_NAEBUADJACENCIESCREATE@2@@Z 0000000180050f6c     Adjacencies.obj
 0002:0000bf80       $chain$2$?Init@AdjacenciesBuilder@physx@@QEAA_NAEBUADJACENCIESCREATE@2@@Z 0000000180050f80     Adjacencies.obj
 0002:0000bf94       $chain$3$?Init@AdjacenciesBuilder@physx@@QEAA_NAEBUADJACENCIESCREATE@2@@Z 0000000180050f94     Adjacencies.obj
 0002:0000bfa8       $chain$4$?Init@AdjacenciesBuilder@physx@@QEAA_NAEBUADJACENCIESCREATE@2@@Z 0000000180050fa8     Adjacencies.obj
 0002:0000bfb8       $chain$5$?Init@AdjacenciesBuilder@physx@@QEAA_NAEBUADJACENCIESCREATE@2@@Z 0000000180050fb8     Adjacencies.obj
 0002:0000bfc8       $unwind$??$?_UV?$ReflectionAllocator@VAdjTriangle@physx@@@shdfnd@physx@@@UserAllocated@shdfnd@physx@@SAPEAX_KV?$ReflectionAllocator@VAdjTriangle@physx@@@12@PEBDH@Z 0000000180050fc8     Adjacencies.obj
 0002:0000bfc8       $unwind$??$?_UE@@YAPEAX_KV?$ReflectionAllocator@E@shdfnd@physx@@PEBDH@Z 0000000180050fc8     ConvexHullBuilder.obj
 0002:0000bfc8       $unwind$??$?_UI@@YAPEAX_KV?$ReflectionAllocator@I@shdfnd@physx@@PEBDH@Z 0000000180050fc8     EdgeList.obj
 0002:0000bfc8       $unwind$?allocate@?$ReflectionAllocator@I@shdfnd@physx@@QEAAPEAX_KPEBDH@Z 0000000180050fc8     RTreeCooking.obj
 0002:0000bfc8       $unwind$??$?_UG@@YAPEAX_KV?$ReflectionAllocator@G@shdfnd@physx@@PEBDH@Z 0000000180050fc8     TriangleMeshBuilder.obj
 0002:0000bfd8       $chain$0$??$?_UV?$ReflectionAllocator@VAdjTriangle@physx@@@shdfnd@physx@@@UserAllocated@shdfnd@physx@@SAPEAX_KV?$ReflectionAllocator@VAdjTriangle@physx@@@12@PEBDH@Z 0000000180050fd8     Adjacencies.obj
 0002:0000bfec       $chain$1$??$?_UV?$ReflectionAllocator@VAdjTriangle@physx@@@shdfnd@physx@@@UserAllocated@shdfnd@physx@@SAPEAX_KV?$ReflectionAllocator@VAdjTriangle@physx@@@12@PEBDH@Z 0000000180050fec     Adjacencies.obj
 0002:0000bffc       $unwind$?UpdateLink@@YA_NIIIIPEAVAdjTriangle@physx@@AEBUADJACENCIESCREATE@2@@Z 0000000180050ffc     Adjacencies.obj
 0002:0000c008       $chain$3$?UpdateLink@@YA_NIIIIPEAVAdjTriangle@physx@@AEBUADJACENCIESCREATE@2@@Z 0000000180051008     Adjacencies.obj
 0002:0000c028       $chain$5$?UpdateLink@@YA_NIIIIPEAVAdjTriangle@physx@@AEBUADJACENCIESCREATE@2@@Z 0000000180051028     Adjacencies.obj
 0002:0000c040       $chain$6$?UpdateLink@@YA_NIIIIPEAVAdjTriangle@physx@@AEBUADJACENCIESCREATE@2@@Z 0000000180051040     Adjacencies.obj
 0002:0000c050       $chain$7$?UpdateLink@@YA_NIIIIPEAVAdjTriangle@physx@@AEBUADJACENCIESCREATE@2@@Z 0000000180051050     Adjacencies.obj
 0002:0000c068       $chain$8$?UpdateLink@@YA_NIIIIPEAVAdjTriangle@physx@@AEBUADJACENCIESCREATE@2@@Z 0000000180051068     Adjacencies.obj
 0002:0000c078       $unwind$?CreateDatabase@@YA_NPEAVAdjTriangle@physx@@IPEBVAdjEdge@@AEBUADJACENCIESCREATE@2@@Z 0000000180051078     Adjacencies.obj
 0002:0000c094       $unwind$?getTransform@Box@Gu@physx@@QEBA?AVPxTransform@3@XZ 0000000180051094     ConvexHullUtils.obj
 0002:0000c094       $unwind$PxCreateCooking    0000000180051094     Cooking.obj
 0002:0000c0a0       $unwind$?release@Cooking@physx@@UEAAXXZ 00000001800510a0     Cooking.obj
 0002:0000c0a0       $unwind$?cookingDelayHook@@YAP6A_JXZIPEAUDelayLoadInfo@@@Z 00000001800510a0     WindowsCookingDelayLoadHook.obj
 0002:0000c0a0       $unwind$?DloadReleaseSectionWriteAccess@@YAXXZ 00000001800510a0     Delayimp:delayhlp.obj
 0002:0000c0a0       $unwind$__scrt_initialize_default_local_stdio_options 00000001800510a0     LIBCMT:default_local_stdio_options.obj
 0002:0000c0a0       $unwind$?dllmain_crt_dispatch@@YAHQEAUHINSTANCE__@@KQEAX@Z 00000001800510a0     LIBCMT:dll_dllmain.obj
 0002:0000c0a0       $unwind$__report_rangecheckfailure 00000001800510a0     LIBCMT:gs_report.obj
 0002:0000c0a0       $unwind$__GSHandlerCheck   00000001800510a0     LIBCMT:gshandler.obj
 0002:0000c0a0       $unwind$__scrt_acquire_startup_lock 00000001800510a0     LIBCMT:utility.obj
 0002:0000c0a0       $unwind$__scrt_dllmain_after_initialize_c 00000001800510a0     LIBCMT:utility.obj
 0002:0000c0a0       $unwind$__scrt_dllmain_before_initialize_c 00000001800510a0     LIBCMT:utility.obj
 0002:0000c0a0       $unwind$__scrt_dllmain_crt_thread_attach 00000001800510a0     LIBCMT:utility.obj
 0002:0000c0a0       $unwind$__scrt_dllmain_crt_thread_detach 00000001800510a0     LIBCMT:utility.obj
 0002:0000c0a0       $unwind$__scrt_dllmain_uninitialize_c 00000001800510a0     LIBCMT:utility.obj
 0002:0000c0a0       $unwind$__scrt_dllmain_uninitialize_critical 00000001800510a0     LIBCMT:utility.obj
 0002:0000c0a0       $unwind$__vcrt_initialize  00000001800510a0     libvcruntime:initialization.obj
 0002:0000c0a0       $unwind$__vcrt_thread_attach 00000001800510a0     libvcruntime:initialization.obj
 0002:0000c0a0       $unwind$__vcrt_thread_detach 00000001800510a0     libvcruntime:initialization.obj
 0002:0000c0a0       $unwind$__vcrt_uninitialize 00000001800510a0     libvcruntime:initialization.obj
 0002:0000c0a0       $unwind$__vcrt_uninitialize_critical 00000001800510a0     libvcruntime:initialization.obj
 0002:0000c0a0       $unwind$__vcrt_initialize_locks 00000001800510a0     libvcruntime:locks.obj
 0002:0000c0a0       $unwind$__vcrt_freefls     00000001800510a0     libvcruntime:per_thread_data.obj
 0002:0000c0a0       $unwind$__vcrt_getptd      00000001800510a0     libvcruntime:per_thread_data.obj
 0002:0000c0a0       $unwind$__vcrt_initialize_ptd 00000001800510a0     libvcruntime:per_thread_data.obj
 0002:0000c0a0       $unwind$__vcrt_uninitialize_ptd 00000001800510a0     libvcruntime:per_thread_data.obj
 0002:0000c0a0       $unwind$_purecall          00000001800510a0     libvcruntime:purevirt.obj
 0002:0000c0a0       $unwind$?FrameUnwindToEmptyState@__FrameHandler4@@SAXPEA_KPEAU_xDISPATCHER_CONTEXT@@PEAUFuncInfo4@FH4@@@Z 00000001800510a0     libvcruntime:risctrnsctrl.obj
 0002:0000c0a0       $unwind$_GetImageBase      00000001800510a0     libvcruntime:risctrnsctrl.obj
 0002:0000c0a0       $unwind$_GetThrowImageBase 00000001800510a0     libvcruntime:risctrnsctrl.obj
 0002:0000c0a0       $unwind$?getLastChar@pDNameNode@@UEBADXZ 00000001800510a0     libvcruntime:undname.obj
 0002:0000c0a0       $unwind$?getString@pDNameNode@@UEBAPEADPEAD0@Z 00000001800510a0     libvcruntime:undname.obj
 0002:0000c0a0       $unwind$?getTypeEncoding@UnDecorator@@CAHXZ 00000001800510a0     libvcruntime:undname.obj
 0002:0000c0a0       $unwind$?length@pDNameNode@@UEBAHXZ 00000001800510a0     libvcruntime:undname.obj
 0002:0000c0a0       $unwind$__dcrt_terminate_console_output 00000001800510a0     libucrt:initcon.obj
 0002:0000c0a0       $unwind$??$uninitialize_environment_internal@D@@YAXAEAPEAPEAD@Z 00000001800510a0     libucrt:environment_initialization.obj
 0002:0000c0a0       $unwind$??$uninitialize_environment_internal@_W@@YAXAEAPEAPEA_W@Z 00000001800510a0     libucrt:environment_initialization.obj
 0002:0000c0a0       $unwind$__dcrt_uninitialize_environments_nolock 00000001800510a0     libucrt:environment_initialization.obj
 0002:0000c0a0       $unwind$?__c32rtomb_utf8@__crt_mbstring@@YA_KPEAD_UPEAU_Mbstatet@@@Z 00000001800510a0     libucrt:c32rtomb.obj
 0002:0000c0a0       $unwind$__acrt_initialize_heap 00000001800510a0     libucrt:heap_handle.obj
 0002:0000c0a0       $unwind$_msize_base        00000001800510a0     libucrt:msize.obj
 0002:0000c0a0       $unwind$?initialize_multibyte@@YAHXZ 00000001800510a0     libucrt:multibyte_initializer.obj
 0002:0000c0a0       $unwind$__acrt_thread_attach 00000001800510a0     libucrt:initialization.obj
 0002:0000c0a0       $unwind$__acrt_thread_detach 00000001800510a0     libucrt:initialization.obj
 0002:0000c0a0       $unwind$__acrt_uninitialize 00000001800510a0     libucrt:initialization.obj
 0002:0000c0a0       $unwind$__acrt_uninitialize_critical 00000001800510a0     libucrt:initialization.obj
 0002:0000c0a0       $unwind$initialize_c       00000001800510a0     libucrt:initialization.obj
 0002:0000c0a0       $unwind$uninitialize_allocated_io_buffers 00000001800510a0     libucrt:initialization.obj
 0002:0000c0a0       $unwind$uninitialize_environment 00000001800510a0     libucrt:initialization.obj
 0002:0000c0a0       $unwind$__acrt_initialize_ptd 00000001800510a0     libucrt:per_thread_data.obj
 0002:0000c0a0       $unwind$__acrt_uninitialize_ptd 00000001800510a0     libucrt:per_thread_data.obj
 0002:0000c0a0       $unwind$__acrt_AreFileApisANSI 00000001800510a0     libucrt:winapi_thunks.obj
 0002:0000c0a0       $unwind$__pctype_func      00000001800510a0     libucrt:ctype.obj
 0002:0000c0a0       $unwind$__acrt_release_locale_ref 00000001800510a0     libucrt:locale_refcounting.obj
 0002:0000c0a0       $unwind$_isatty            00000001800510a0     libucrt:isatty.obj
 0002:0000c0a0       $unwind$_get_osfhandle     00000001800510a0     libucrt:osfinfo.obj
 0002:0000c0a0       $unwind$__acrt_initialize_multibyte 00000001800510a0     libucrt:mbctype.obj
 0002:0000c0a0       $unwind$__acrt_update_thread_multibyte_data 00000001800510a0     libucrt:mbctype.obj
 0002:0000c0a0       $unwind$__doserrno         00000001800510a0     libucrt:errno.obj
 0002:0000c0a0       $unwind$_errno             00000001800510a0     libucrt:errno.obj
 0002:0000c0a0       $unwind$_invoke_watson     00000001800510a0     libucrt:invalid_parameter.obj
 0002:0000c0a0       $unwind$abort              00000001800510a0     libucrt:abort.obj
 0002:0000c0a0       $unwind$__acrt_initialize_command_line 00000001800510a0     libucrt:argv_data.obj
 0002:0000c0a0       $unwind$_fileno            00000001800510a0     libucrt:fileno.obj
 0002:0000c0a0       $unwind$?state_case_normal_tchar@?$output_processor@DV?$string_output_adapter@D@__crt_stdio_output@@V?$format_validation_base@DV?$string_output_adapter@D@__crt_stdio_output@@@2@@__crt_stdio_output@@AEAA_ND@Z 00000001800510a0     libucrt:output.obj
 0002:0000c0a0       $unwind$?state_case_size@?$output_processor@DV?$string_output_adapter@D@__crt_stdio_output@@V?$format_validation_base@DV?$string_output_adapter@D@__crt_stdio_output@@@2@@__crt_stdio_output@@AEAA_NXZ 00000001800510a0     libucrt:output.obj
 0002:0000c0a0       $unwind$_statfp            00000001800510a0     libucrt:fpctrl.obj
 0002:0000c0a0       $unwind$_set_errno_from_matherr 00000001800510a0     libucrt:fpexcept.obj
 0002:0000c0a8       $unwind$?cookConvexMesh@Cooking@physx@@UEBA_NAEBVPxConvexMeshDesc@2@AEAVPxOutputStream@2@PEAW4Enum@PxConvexMeshCookingResult@2@@Z 00000001800510a8     Cooking.obj
 0002:0000c0a8       $unwind$?cookTriangleMesh@Cooking@physx@@UEBA_NAEBVPxTriangleMeshDesc@2@AEAVPxOutputStream@2@PEAW4Enum@PxTriangleMeshCookingResult@2@@Z 00000001800510a8     Cooking.obj
 0002:0000c0a8       $unwind$?createTriangleMesh@Cooking@physx@@UEBAPEAVPxTriangleMesh@2@AEBVPxTriangleMeshDesc@2@AEAVPxPhysicsInsertionCallback@2@PEAW4Enum@PxTriangleMeshCookingResult@2@@Z 00000001800510a8     Cooking.obj
 0002:0000c0c4       $unwind$?validateTriangleMesh@Cooking@physx@@UEBA_NAEBVPxTriangleMeshDesc@2@@Z 00000001800510c4     Cooking.obj
 0002:0000c0d4       $unwind$?createConvexMesh@Cooking@physx@@UEBAPEAVPxConvexMesh@2@AEBVPxConvexMeshDesc@2@AEAVPxPhysicsInsertionCallback@2@PEAW4Enum@PxConvexMeshCookingResult@2@@Z 00000001800510d4     Cooking.obj
 0002:0000c0f0       $unwind$?validateConvexMesh@Cooking@physx@@UEBA_NAEBVPxConvexMeshDesc@2@@Z 00000001800510f0     Cooking.obj
 0002:0000c100       $unwind$?computeHullPolygons@Cooking@physx@@UEBA_NAEBVPxSimpleTriangleMesh@2@AEAVPxAllocatorCallback@2@AEAIAEAPEAVPxVec3@2@2AEAPEAI2AEAPEAUPxHullPolygon@2@@Z 0000000180051100     Cooking.obj
 0002:0000c120       $unwind$?cookHeightField@Cooking@physx@@UEBA_NAEBVPxHeightFieldDesc@2@AEAVPxOutputStream@2@@Z 0000000180051120     Cooking.obj
 0002:0000c134       $unwind$?createHeightField@Cooking@physx@@UEBAPEAVPxHeightField@2@AEBVPxHeightFieldDesc@2@AEAVPxPhysicsInsertionCallback@2@@Z 0000000180051134     Cooking.obj
 0002:0000c144       $unwind$?cookBVHStructure@Cooking@physx@@UEBA_NAEBVPxBVHStructureDesc@2@AEAVPxOutputStream@2@@Z 0000000180051144     Cooking.obj
 0002:0000c154       $unwind$?createBVHStructure@Cooking@physx@@UEBAPEAVPxBVHStructure@2@AEBVPxBVHStructureDesc@2@AEAVPxPhysicsInsertionCallback@2@@Z 0000000180051154     Cooking.obj
 0002:0000c154       $unwind$?DloadMakePermanentImageCommit@@YAXPEAX_K@Z 0000000180051154     Delayimp:delayhlp.obj
 0002:0000c160       $unwind$?cookConvexMeshInternal@Cooking@physx@@AEBA_NAEBVPxConvexMeshDesc@2@AEAVConvexMeshBuilder@2@PEAVConvexHullLib@2@PEAW4Enum@PxConvexMeshCookingResult@2@@Z 0000000180051160     Cooking.obj
 0002:0000c174       $chain$1$?cookConvexMeshInternal@Cooking@physx@@AEBA_NAEBVPxConvexMeshDesc@2@AEAVConvexMeshBuilder@2@PEAVConvexHullLib@2@PEAW4Enum@PxConvexMeshCookingResult@2@@Z 0000000180051174     Cooking.obj
 0002:0000c188       $chain$2$?cookConvexMeshInternal@Cooking@physx@@AEBA_NAEBVPxConvexMeshDesc@2@AEAVConvexMeshBuilder@2@PEAVConvexHullLib@2@PEAW4Enum@PxConvexMeshCookingResult@2@@Z 0000000180051188     Cooking.obj
 0002:0000c198       $chain$3$?cookConvexMeshInternal@Cooking@physx@@AEBA_NAEBVPxConvexMeshDesc@2@AEAVConvexMeshBuilder@2@PEAVConvexHullLib@2@PEAW4Enum@PxConvexMeshCookingResult@2@@Z 0000000180051198     Cooking.obj
 0002:0000c1ac       $unwind$?allocate@?$Array@USlab@NodeAllocator@Gu@physx@@V?$ReflectionAllocator@USlab@NodeAllocator@Gu@physx@@@shdfnd@4@@shdfnd@physx@@IEAAPEAUSlab@NodeAllocator@Gu@3@I@Z 00000001800511ac     BVHStructureBuilder.obj
 0002:0000c1ac       $unwind$?allocate@?$Array@VHalfEdge@ConvexHull@physx@@V?$ReflectionAllocator@VHalfEdge@ConvexHull@physx@@@shdfnd@3@@shdfnd@physx@@IEAAPEAVHalfEdge@ConvexHull@3@I@Z 00000001800511ac     ConvexHullUtils.obj
 0002:0000c1ac       $unwind$?allocate@?$Array@VPxPlane@physx@@V?$ReflectionAllocator@VPxPlane@physx@@@shdfnd@2@@shdfnd@physx@@IEAAPEAVPxPlane@3@I@Z 00000001800511ac     ConvexHullUtils.obj
 0002:0000c1ac       $unwind$?computeBoxPoints@Box@Gu@physx@@QEBAXPEIAVPxVec3@3@@Z 00000001800511ac     ConvexHullUtils.obj
 0002:0000c1ac       $unwind$?allocate@?$Array@VPair@@V?$ReflectionAllocator@VPair@@@shdfnd@physx@@@shdfnd@physx@@IEAAPEAVPair@@I@Z 00000001800511ac     ConvexPolygonsBuilder.obj
 0002:0000c1ac       $unwind$?allocate@?$Array@UPxDebugLine@physx@@V?$ReflectionAllocator@UPxDebugLine@physx@@@shdfnd@2@@shdfnd@physx@@IEAAPEAUPxDebugLine@3@I@Z 00000001800511ac     Cooking.obj
 0002:0000c1ac       $unwind$?allocate@?$Array@PEAUQuickHullFace@local@@V?$ReflectionAllocator@PEAUQuickHullFace@local@@@shdfnd@physx@@@shdfnd@physx@@IEAAPEAPEAUQuickHullFace@local@@I@Z 00000001800511ac     QuickHullConvexHullLib.obj
 0002:0000c1ac       $unwind$?allocate@?$Array@PEAUQuickHullHalfEdge@local@@V?$ReflectionAllocator@PEAUQuickHullHalfEdge@local@@@shdfnd@physx@@@shdfnd@physx@@IEAAPEAPEAUQuickHullHalfEdge@local@@I@Z 00000001800511ac     QuickHullConvexHullLib.obj
 0002:0000c1ac       $unwind$?allocate@?$Array@PEAUQuickHullVertex@local@@V?$ReflectionAllocator@PEAUQuickHullVertex@local@@@shdfnd@physx@@@shdfnd@physx@@IEAAPEAPEAUQuickHullVertex@local@@I@Z 00000001800511ac     QuickHullConvexHullLib.obj
 0002:0000c1ac       $unwind$?allocate@?$Array@UExpandPoint@local@@V?$ReflectionAllocator@UExpandPoint@local@@@shdfnd@physx@@@shdfnd@physx@@IEAAPEAUExpandPoint@local@@I@Z 00000001800511ac     QuickHullConvexHullLib.obj
 0002:0000c1ac       $unwind$?allocate@?$Array@UInterval@physx@@V?$InlineAllocator@$0CAAA@V?$ReflectionAllocator@UInterval@physx@@@shdfnd@physx@@@shdfnd@2@@shdfnd@physx@@IEAAPEAUInterval@3@I@Z 00000001800511ac     RTreeCooking.obj
 0002:0000c1ac       $unwind$?allocate@?$Array@UPxBounds3V@physx@@V?$ReflectionAllocator@UPxBounds3V@physx@@@shdfnd@2@@shdfnd@physx@@IEAAPEAUPxBounds3V@3@I@Z 00000001800511ac     RTreeCooking.obj
 0002:0000c1ac       $unwind$?allocate@?$Array@URTreeNodeNQ@physx@@V?$ReflectionAllocator@URTreeNodeNQ@physx@@@shdfnd@2@@shdfnd@physx@@IEAAPEAURTreeNodeNQ@3@I@Z 00000001800511ac     RTreeCooking.obj
 0002:0000c1ac       $unwind$?allocate@?$Array@URTreeNodeQ@Gu@physx@@V?$ReflectionAllocator@URTreeNodeQ@Gu@physx@@@shdfnd@3@@shdfnd@physx@@IEAAPEAURTreeNodeQ@Gu@3@I@Z 00000001800511ac     RTreeCooking.obj
 0002:0000c1ac       $unwind$?allocate@?$Array@VPxVec3@physx@@V?$ReflectionAllocator@VPxVec3@physx@@@shdfnd@2@@shdfnd@physx@@IEAAPEAVPxVec3@3@I@Z 00000001800511ac     RTreeCooking.obj
 0002:0000c1ac       $unwind$atol               00000001800511ac     libucrt:atox.obj
 0002:0000c1ac       $unwind$strtol             00000001800511ac     libucrt:strtox.obj
 0002:0000c1ac       $unwind$wctomb_s           00000001800511ac     libucrt:wctomb.obj
 0002:0000c1ac       $unwind$_invalid_parameter_noinfo 00000001800511ac     libucrt:invalid_parameter.obj
 0002:0000c1ac       $unwind$_log10_special     00000001800511ac     libucrt:log_special.obj
 0002:0000c1b4       $chain$1$?allocate@?$Array@UPxDebugLine@physx@@V?$ReflectionAllocator@UPxDebugLine@physx@@@shdfnd@2@@shdfnd@physx@@IEAAPEAUPxDebugLine@3@I@Z 00000001800511b4     Cooking.obj
 0002:0000c1cc       $chain$3$?allocate@?$Array@UPxDebugLine@physx@@V?$ReflectionAllocator@UPxDebugLine@physx@@@shdfnd@2@@shdfnd@physx@@IEAAPEAUPxDebugLine@3@I@Z 00000001800511cc     Cooking.obj
 0002:0000c1e0       $chain$4$?allocate@?$Array@UPxDebugLine@physx@@V?$ReflectionAllocator@UPxDebugLine@physx@@@shdfnd@2@@shdfnd@physx@@IEAAPEAUPxDebugLine@3@I@Z 00000001800511e0     Cooking.obj
 0002:0000c1f0       $unwind$?recreate@?$Array@USlab@NodeAllocator@Gu@physx@@V?$ReflectionAllocator@USlab@NodeAllocator@Gu@physx@@@shdfnd@4@@shdfnd@physx@@IEAAXI@Z 00000001800511f0     BVHStructureBuilder.obj
 0002:0000c1f0       $unwind$?recreate@?$Array@VHalfEdge@ConvexHull@physx@@V?$ReflectionAllocator@VHalfEdge@ConvexHull@physx@@@shdfnd@3@@shdfnd@physx@@IEAAXI@Z 00000001800511f0     ConvexHullUtils.obj
 0002:0000c1f0       $unwind$?recreate@?$Array@VPxPlane@physx@@V?$ReflectionAllocator@VPxPlane@physx@@@shdfnd@2@@shdfnd@physx@@IEAAXI@Z 00000001800511f0     ConvexHullUtils.obj
 0002:0000c1f0       $unwind$?copy@ConvexMeshBuilder@physx@@QEAA_NAEAUConvexHullInitData@Gu@2@@Z 00000001800511f0     ConvexMeshBuilder.obj
 0002:0000c1f0       $unwind$?recreate@?$Array@UPxDebugLine@physx@@V?$ReflectionAllocator@UPxDebugLine@physx@@@shdfnd@2@@shdfnd@physx@@IEAAXI@Z 00000001800511f0     Cooking.obj
 0002:0000c1f0       $unwind$?recreate@?$Array@PEAUQuickHullFace@local@@V?$ReflectionAllocator@PEAUQuickHullFace@local@@@shdfnd@physx@@@shdfnd@physx@@IEAAXI@Z 00000001800511f0     QuickHullConvexHullLib.obj
 0002:0000c1f0       $unwind$?recreate@?$Array@PEAUQuickHullHalfEdge@local@@V?$ReflectionAllocator@PEAUQuickHullHalfEdge@local@@@shdfnd@physx@@@shdfnd@physx@@IEAAXI@Z 00000001800511f0     QuickHullConvexHullLib.obj
 0002:0000c1f0       $unwind$?recreate@?$Array@PEAUQuickHullVertex@local@@V?$ReflectionAllocator@PEAUQuickHullVertex@local@@@shdfnd@physx@@@shdfnd@physx@@IEAAXI@Z 00000001800511f0     QuickHullConvexHullLib.obj
 0002:0000c1f0       $unwind$?recreate@?$Array@UExpandPoint@local@@V?$ReflectionAllocator@UExpandPoint@local@@@shdfnd@physx@@@shdfnd@physx@@IEAAXI@Z 00000001800511f0     QuickHullConvexHullLib.obj
 0002:0000c1f0       $unwind$?recreate@?$Array@IV?$ReflectionAllocator@I@shdfnd@physx@@@shdfnd@physx@@IEAAXI@Z 00000001800511f0     RTreeCooking.obj
 0002:0000c1f0       $unwind$?recreate@?$Array@UPxBounds3V@physx@@V?$ReflectionAllocator@UPxBounds3V@physx@@@shdfnd@2@@shdfnd@physx@@IEAAXI@Z 00000001800511f0     RTreeCooking.obj
 0002:0000c1f0       $unwind$?recreate@?$Array@URTreeNodeNQ@physx@@V?$ReflectionAllocator@URTreeNodeNQ@physx@@@shdfnd@2@@shdfnd@physx@@IEAAXI@Z 00000001800511f0     RTreeCooking.obj
 0002:0000c1f0       $unwind$?recreate@?$Array@URTreeNodeQ@Gu@physx@@V?$ReflectionAllocator@URTreeNodeQ@Gu@physx@@@shdfnd@3@@shdfnd@physx@@IEAAXI@Z 00000001800511f0     RTreeCooking.obj
 0002:0000c1f0       $unwind$?recreate@?$Array@VPxVec3@physx@@V?$ReflectionAllocator@VPxVec3@physx@@@shdfnd@2@@shdfnd@physx@@IEAAXI@Z 00000001800511f0     RTreeCooking.obj
 0002:0000c200       $chain$0$?recreate@?$Array@UPxDebugLine@physx@@V?$ReflectionAllocator@UPxDebugLine@physx@@@shdfnd@2@@shdfnd@physx@@IEAAXI@Z 0000000180051200     Cooking.obj
 0002:0000c214       $chain$1$?recreate@?$Array@UPxDebugLine@physx@@V?$ReflectionAllocator@UPxDebugLine@physx@@@shdfnd@2@@shdfnd@physx@@IEAAXI@Z 0000000180051214     Cooking.obj
 0002:0000c224       $unwind$??$copy@V?$ReflectionAllocator@USlab@NodeAllocator@Gu@physx@@@shdfnd@physx@@@?$Array@USlab@NodeAllocator@Gu@physx@@V?$ReflectionAllocator@USlab@NodeAllocator@Gu@physx@@@shdfnd@4@@shdfnd@physx@@IEAAXAEBV012@@Z 0000000180051224     BVHStructureBuilder.obj
 0002:0000c224       $unwind$??0NodeAllocator@Gu@physx@@QEAA@AEBV012@@Z 0000000180051224     BVHStructureBuilder.obj
 0002:0000c224       $unwind$??1ConvexHullLib@physx@@UEAA@XZ 0000000180051224     ConvexHullLib.obj
 0002:0000c224       $unwind$??1ConvexMeshBuilder@physx@@QEAA@XZ 0000000180051224     ConvexMeshBuilder.obj
 0002:0000c224       $unwind$??$copy@V?$ReflectionAllocator@VPair@@@shdfnd@physx@@@?$Array@VPair@@V?$ReflectionAllocator@VPair@@@shdfnd@physx@@@shdfnd@physx@@IEAAXAEBV012@@Z 0000000180051224     ConvexPolygonsBuilder.obj
 0002:0000c224       $unwind$??1ConvexPolygonsBuilder@physx@@QEAA@XZ 0000000180051224     ConvexPolygonsBuilder.obj
 0002:0000c224       $unwind$?reserveSegments@RenderOutput@Cm@physx@@QEAAPEAUPxDebugLine@3@I@Z 0000000180051224     Cooking.obj
 0002:0000c224       $unwind$?Clean@ReducedVertexCloud@physx@@QEAAAEAV12@XZ 0000000180051224     CookingUtils.obj
 0002:0000c224       $unwind$?computeLocalBounds@MeshBulider@physx@@IEAAXAEAVMeshDataBase@Gu@2@@Z 0000000180051224     MeshBuilder.obj
 0002:0000c224       $unwind$??1QuickHull@local@@QEAA@XZ 0000000180051224     QuickHullConvexHullLib.obj
 0002:0000c224       $unwind$?fillConvexMeshDesc@QuickHullConvexHullLib@physx@@UEAAXAEAVPxConvexMeshDesc@2@@Z 0000000180051224     QuickHullConvexHullLib.obj
 0002:0000c224       $unwind$?resizeUninitialized@?$Array@URTreeNodeNQ@physx@@V?$ReflectionAllocator@URTreeNodeNQ@physx@@@shdfnd@2@@shdfnd@physx@@QEAAXI@Z 0000000180051224     RTreeCooking.obj
 0002:0000c224       $unwind$??0BV4TriangleMeshBuilder@physx@@QEAA@AEBUPxCookingParams@1@@Z 0000000180051224     TriangleMeshBuilder.obj
 0002:0000c224       $unwind$??1BV4TriangleMeshBuilder@physx@@UEAA@XZ 0000000180051224     TriangleMeshBuilder.obj
 0002:0000c224       $unwind$??1TriangleMeshBuilder@physx@@UEAA@XZ 0000000180051224     TriangleMeshBuilder.obj
 0002:0000c224       $unwind$??1TriangleMeshData@Gu@physx@@UEAA@XZ 0000000180051224     TriangleMeshBuilder.obj
 0002:0000c224       $unwind$??_GBV4TriangleData@Gu@physx@@UEAAPEAXI@Z 0000000180051224     TriangleMeshBuilder.obj
 0002:0000c224       $unwind$??_GMeshDataBase@Gu@physx@@UEAAPEAXI@Z 0000000180051224     TriangleMeshBuilder.obj
 0002:0000c224       $unwind$??_GRTreeTriangleData@Gu@physx@@UEAAPEAXI@Z 0000000180051224     TriangleMeshBuilder.obj
 0002:0000c224       $unwind$??_GRTreeTriangleMeshBuilder@physx@@UEAAPEAXI@Z 0000000180051224     TriangleMeshBuilder.obj
 0002:0000c224       $unwind$??_GTriangleMeshBuilder@physx@@UEAAPEAXI@Z 0000000180051224     TriangleMeshBuilder.obj
 0002:0000c224       $unwind$??_GTriangleMeshData@Gu@physx@@UEAAPEAXI@Z 0000000180051224     TriangleMeshBuilder.obj
 0002:0000c224       $unwind$?DloadGetSRWLockFunctionPointers@@YAEXZ 0000000180051224     Delayimp:delayhlp.obj
 0002:0000c224       $unwind$_RTC_Initialize    0000000180051224     LIBCMT:initsect.obj
 0002:0000c224       $unwind$_RTC_Terminate     0000000180051224     LIBCMT:initsect.obj
 0002:0000c224       $unwind$__FrameUnwindFilter 0000000180051224     libvcruntime:ehhelpers.obj
 0002:0000c224       $unwind$??_Gbad_exception@std@@UEAAPEAXI@Z 0000000180051224     libvcruntime:frame.obj
 0002:0000c224       $unwind$??_Gexception@std@@UEAAPEAXI@Z 0000000180051224     libvcruntime:frame.obj
 0002:0000c224       $unwind$?ExFilterRethrowFH4@@YAHPEAU_EXCEPTION_POINTERS@@PEAUEHExceptionRecord@@HPEAH@Z 0000000180051224     libvcruntime:frame.obj
 0002:0000c224       $unwind$_FindAndUnlinkFrame 0000000180051224     libvcruntime:risctrnsctrl.obj
 0002:0000c224       $unwind$??$append@VDNameNode@@@DName@@AEAAXPEBVDNameNode@@@Z 0000000180051224     libvcruntime:undname.obj
 0002:0000c224       $unwind$??$append@VDNameStatusNode@@@DName@@AEAAXPEBVDNameStatusNode@@@Z 0000000180051224     libvcruntime:undname.obj
 0002:0000c224       $unwind$??$append@VcharNode@@@DName@@AEAAXPEBVcharNode@@@Z 0000000180051224     libvcruntime:undname.obj
 0002:0000c224       $unwind$??$append@VpcharNode@@@DName@@AEAAXPEBVpcharNode@@@Z 0000000180051224     libvcruntime:undname.obj
 0002:0000c224       $unwind$??YDName@@QEAAAEAV0@AEBUStringLiteral@@@Z 0000000180051224     libvcruntime:undname.obj
 0002:0000c224       $unwind$??YDName@@QEAAAEAV0@D@Z 0000000180051224     libvcruntime:undname.obj
 0002:0000c224       $unwind$??YReplicator@@QEAAAEAV0@AEBVDName@@@Z 0000000180051224     libvcruntime:undname.obj
 0002:0000c224       $unwind$?getString@pairNode@@UEBAPEADPEAD0@Z 0000000180051224     libvcruntime:undname.obj
 0002:0000c224       $unwind$?length@pairNode@@UEBAHXZ 0000000180051224     libvcruntime:undname.obj
 0002:0000c224       $unwind$__vcrt_FlsSetValue 0000000180051224     libvcruntime:winapi_downlevel.obj
 0002:0000c224       $unwind$??$common_initialize_environment_nolock@D@@YAHXZ 0000000180051224     libucrt:environment_initialization.obj
 0002:0000c224       $unwind$__acrt_fp_strflt_to_string 0000000180051224     libucrt:_fptostr.obj
 0002:0000c224       $unwind$_realloc_base      0000000180051224     libucrt:realloc_base.obj
 0002:0000c224       $unwind$?replace_current_thread_locale_nolock@@YAXQEAU__acrt_ptd@@QEAU__crt_locale_data@@@Z 0000000180051224     libucrt:per_thread_data.obj
 0002:0000c224       $unwind$__acrt_execute_uninitializers 0000000180051224     libucrt:shared_initialization.obj
 0002:0000c224       $unwind$__acrt_FlsSetValue 0000000180051224     libucrt:winapi_thunks.obj
 0002:0000c224       $unwind$__acrt_LocaleNameToLCID 0000000180051224     libucrt:winapi_thunks.obj
 0002:0000c224       $unwind$_updatetlocinfoEx_nolock 0000000180051224     libucrt:locale_refcounting.obj
 0002:0000c224       $unwind$_close_nolock      0000000180051224     libucrt:close.obj
 0002:0000c224       $unwind$__acrt_uninitialize_lowio 0000000180051224     libucrt:ioinit.obj
 0002:0000c224       $unwind$__acrt_errno_map_os_error 0000000180051224     libucrt:errno.obj
 0002:0000c224       $unwind$_initterm_e        0000000180051224     libucrt:initterm.obj
 0002:0000c224       $unwind$_fclose_nolock     0000000180051224     libucrt:fclose.obj
 0002:0000c224       $unwind$strncpy_s          0000000180051224     libucrt:strncpy_s.obj
 0002:0000c230       $unwind$?outputSegment@RenderOutput@Cm@physx@@QEAAXAEBVPxVec3@3@0@Z 0000000180051230     Cooking.obj
 0002:0000c248       $unwind$?getHeight@HeightField@Gu@physx@@UEBAMMM@Z 0000000180051248     Cooking.obj
 0002:0000c248       $unwind$?getArrayObject@UnDecorator@@CA?AVDName@@XZ 0000000180051248     libvcruntime:undname.obj
 0002:0000c248       $unwind$?getStringEncoding@UnDecorator@@CA?AVDName@@W4PrefixKind@@H@Z 0000000180051248     libvcruntime:undname.obj
 0002:0000c248       $unwind$__dcrt_lowio_ensure_console_output_initialized 0000000180051248     libucrt:initcon.obj
 0002:0000c248       $unwind$_isleadbyte_l      0000000180051248     libucrt:_wctype.obj
 0002:0000c248       $unwind$?getSystemCP@@YAHH@Z 0000000180051248     libucrt:mbctype.obj
 0002:0000c250       $unwind$?getTriangleNormal@HeightField@Gu@physx@@UEBA?AVPxVec3@3@I@Z 0000000180051250     Cooking.obj
 0002:0000c25c       $unwind$?getHeightInternal2@HeightField@Gu@physx@@QEBAMIMM@Z 000000018005125c     Cooking.obj
 0002:0000c268       $chain$0$?getHeightInternal2@HeightField@Gu@physx@@QEBAMIMM@Z 0000000180051268     Cooking.obj
 0002:0000c27c       $chain$2$?getHeightInternal2@HeightField@Gu@physx@@QEBAMIMM@Z 000000018005127c     Cooking.obj
 0002:0000c290       $unwind$?Reduce@ReducedVertexCloud@physx@@QEAA_NPEAUREDUCEDCLOUD@2@@Z 0000000180051290     CookingUtils.obj
 0002:0000c2ac       $unwind$??1AABBTreeBuildParams@Gu@physx@@QEAA@XZ 00000001800512ac     BVHStructureBuilder.obj
 0002:0000c2ac       $unwind$??1BVHStructureBuilder@physx@@QEAA@XZ 00000001800512ac     BVHStructureBuilder.obj
 0002:0000c2ac       $unwind$?reset@AABBTreeBuildParams@Gu@physx@@QEAAXXZ 00000001800512ac     BVHStructureBuilder.obj
 0002:0000c2ac       $unwind$??1ConvexHullBuilder@physx@@QEAA@XZ 00000001800512ac     ConvexHullBuilder.obj
 0002:0000c2ac       $unwind$??_GConvexHullLib@physx@@UEAAPEAXI@Z 00000001800512ac     ConvexHullLib.obj
 0002:0000c2ac       $unwind$?resize@?$Array@VPxPlane@physx@@V?$ReflectionAllocator@VPxPlane@physx@@@shdfnd@2@@shdfnd@physx@@QEAAXIAEBVPxPlane@3@@Z 00000001800512ac     ConvexHullUtils.obj
 0002:0000c2ac       $unwind$?resize@?$Array@VPxVec3@physx@@V?$ReflectionAllocator@VPxVec3@physx@@@shdfnd@2@@shdfnd@physx@@QEAAXIAEBVPxVec3@3@@Z 00000001800512ac     ConvexHullUtils.obj
 0002:0000c2ac       $unwind$??1EdgeList@Gu@physx@@QEAA@XZ 00000001800512ac     EdgeList.obj
 0002:0000c2ac       $unwind$??1MeshCleaner@physx@@QEAA@XZ 00000001800512ac     MeshCleaner.obj
 0002:0000c2ac       $unwind$??1MeshDataBase@Gu@physx@@UEAA@XZ 00000001800512ac     TriangleMeshBuilder.obj
 0002:0000c2ac       $unwind$??_GBV4TriangleMeshBuilder@physx@@UEAAPEAXI@Z 00000001800512ac     TriangleMeshBuilder.obj
 0002:0000c2ac       $unwind$_DllMainCRTStartup 00000001800512ac     LIBCMT:dll_dllmain.obj
 0002:0000c2ac       $unwind$__vcrt_getptd_noexit 00000001800512ac     libvcruntime:per_thread_data.obj
 0002:0000c2ac       $unwind$??$?0$01@pcharNode@@QEAA@PEBDHU?$StringLifeSelector@$01@@@Z 00000001800512ac     libvcruntime:undname.obj
 0002:0000c2ac       $unwind$??$?0$0A@@pcharNode@@QEAA@PEBDHU?$StringLifeSelector@$0A@@@@Z 00000001800512ac     libvcruntime:undname.obj
 0002:0000c2ac       $unwind$??$doPchar@$01@DName@@AEAAXPEBDH@Z 00000001800512ac     libvcruntime:undname.obj
 0002:0000c2ac       $unwind$??$doPchar@$0A@@DName@@AEAAXPEBDH@Z 00000001800512ac     libvcruntime:undname.obj
 0002:0000c2ac       $unwind$??0DName@@QEAA@AEAPEBDD@Z 00000001800512ac     libvcruntime:undname.obj
 0002:0000c2ac       $unwind$??0DName@@QEAA@PEAV0@@Z 00000001800512ac     libvcruntime:undname.obj
 0002:0000c2ac       $unwind$?getMemoryWithBuffer@_HeapManager@@QEAAPEAX_K@Z 00000001800512ac     libvcruntime:undname.obj
 0002:0000c2ac       $unwind$__vcrt_InitializeCriticalSectionEx 00000001800512ac     libvcruntime:winapi_downlevel.obj
 0002:0000c2ac       $unwind$memcpy_s           00000001800512ac     libucrt:cfout.obj
 0002:0000c2ac       $unwind$__acrt_getptd      00000001800512ac     libucrt:per_thread_data.obj
 0002:0000c2ac       $unwind$__acrt_getptd_noexit 00000001800512ac     libucrt:per_thread_data.obj
 0002:0000c2ac       $unwind$__acrt_execute_initializers 00000001800512ac     libucrt:shared_initialization.obj
 0002:0000c2ac       $unwind$__acrt_InitializeCriticalSectionEx 00000001800512ac     libucrt:winapi_thunks.obj
 0002:0000c2ac       $unwind$?free_crt_array_internal@@YAXQEAPEBX_K@Z 00000001800512ac     libucrt:inittime.obj
 0002:0000c2ac       $unwind$??$common_lseek_nolock@_J@@YA_JH_JH@Z 00000001800512ac     libucrt:lseek.obj
 0002:0000c2ac       $unwind$__acrt_stdio_flush_nolock 00000001800512ac     libucrt:fflush.obj
 0002:0000c2ac       $unwind$??0_LocaleUpdate@@QEAA@QEAU__crt_locale_pointers@@@Z 00000001800512ac     libucrt:output.obj
 0002:0000c2ac       $unwind$?type_case_n@?$output_processor@DV?$string_output_adapter@D@__crt_stdio_output@@V?$format_validation_base@DV?$string_output_adapter@D@__crt_stdio_output@@@2@@__crt_stdio_output@@AEAA_NXZ 00000001800512ac     libucrt:output.obj
 0002:0000c2ac       $unwind$_exception_enabled 00000001800512ac     libucrt:libm_error.obj
 0002:0000c2bc       $unwind$?init@EdgeListBuilder@Gu@physx@@QEAA_NAEBUEDGELISTCREATE@23@@Z 00000001800512bc     EdgeList.obj
 0002:0000c2bc       $unwind$?preallocate@QuickHull@local@@QEAAXI@Z 00000001800512bc     QuickHullConvexHullLib.obj
 0002:0000c2bc       $unwind$?allocateVertices@MeshDataBase@Gu@physx@@QEAAPEAVPxVec3@3@I@Z 00000001800512bc     TriangleMeshBuilder.obj
 0002:0000c2bc       $unwind$?getStateFromIterators@UWMap4@FH4@@SAHAEBViterator@12@H0H0@Z 00000001800512bc     libvcruntime:frame.obj
 0002:0000c2bc       $unwind$?getUndecoratedName@UnDecorator@@QEAAPEADPEADH@Z 00000001800512bc     libvcruntime:undname.obj
 0002:0000c2bc       $unwind$strpbrk            00000001800512bc     libucrt:strpbrk.obj
 0002:0000c2cc       $unwind$?createFacesToEdges@EdgeListBuilder@Gu@physx@@AEAA_NIPEBIPEBG@Z 00000001800512cc     EdgeList.obj
 0002:0000c2dc       $chain$3$?createFacesToEdges@EdgeListBuilder@Gu@physx@@AEAA_NIPEBIPEBG@Z 00000001800512dc     EdgeList.obj
 0002:0000c2fc       $chain$4$?createFacesToEdges@EdgeListBuilder@Gu@physx@@AEAA_NIPEBIPEBG@Z 00000001800512fc     EdgeList.obj
 0002:0000c314       $chain$5$?createFacesToEdges@EdgeListBuilder@Gu@physx@@AEAA_NIPEBIPEBG@Z 0000000180051314     EdgeList.obj
 0002:0000c328       $chain$6$?createFacesToEdges@EdgeListBuilder@Gu@physx@@AEAA_NIPEBIPEBG@Z 0000000180051328     EdgeList.obj
 0002:0000c338       $unwind$?createEdgesToFaces@EdgeListBuilder@Gu@physx@@AEAA_NIPEBIPEBG@Z 0000000180051338     EdgeList.obj
 0002:0000c344       $chain$1$?createEdgesToFaces@EdgeListBuilder@Gu@physx@@AEAA_NIPEBIPEBG@Z 0000000180051344     EdgeList.obj
 0002:0000c35c       $chain$2$?createEdgesToFaces@EdgeListBuilder@Gu@physx@@AEAA_NIPEBIPEBG@Z 000000018005135c     EdgeList.obj
 0002:0000c370       $unwind$?computeActiveEdges@EdgeListBuilder@Gu@physx@@AEAA_NIPEBIPEBGPEBVPxVec3@3@M@Z 0000000180051370     EdgeList.obj
 0002:0000c380       $chain$0$?computeActiveEdges@EdgeListBuilder@Gu@physx@@AEAA_NIPEBIPEBGPEBVPxVec3@3@M@Z 0000000180051380     EdgeList.obj
 0002:0000c394       $chain$3$?computeActiveEdges@EdgeListBuilder@Gu@physx@@AEAA_NIPEBIPEBGPEBVPxVec3@3@M@Z 0000000180051394     EdgeList.obj
 0002:0000c3ac       $chain$16$?computeActiveEdges@EdgeListBuilder@Gu@physx@@AEAA_NIPEBIPEBGPEBVPxVec3@3@M@Z 00000001800513ac     EdgeList.obj
 0002:0000c3f0       $chain$17$?computeActiveEdges@EdgeListBuilder@Gu@physx@@AEAA_NIPEBIPEBGPEBVPxVec3@3@M@Z 00000001800513f0     EdgeList.obj
 0002:0000c404       $chain$18$?computeActiveEdges@EdgeListBuilder@Gu@physx@@AEAA_NIPEBIPEBGPEBVPxVec3@3@M@Z 0000000180051404     EdgeList.obj
 0002:0000c414       $chain$19$?computeActiveEdges@EdgeListBuilder@Gu@physx@@AEAA_NIPEBIPEBGPEBVPxVec3@3@M@Z 0000000180051414     EdgeList.obj
 0002:0000c424       $chain$0$??$?_UI@@YAPEAX_KV?$ReflectionAllocator@I@shdfnd@physx@@PEBDH@Z 0000000180051424     EdgeList.obj
 0002:0000c438       $chain$1$??$?_UI@@YAPEAX_KV?$ReflectionAllocator@I@shdfnd@physx@@PEBDH@Z 0000000180051438     EdgeList.obj
 0002:0000c448       $unwind$??0MeshCleaner@physx@@QEAA@IPEBVPxVec3@1@IPEBIM@Z 0000000180051448     MeshCleaner.obj
 0002:0000c454       $chain$1$??0MeshCleaner@physx@@QEAA@IPEBVPxVec3@1@IPEBIM@Z 0000000180051454     MeshCleaner.obj
 0002:0000c46c       $chain$5$??0MeshCleaner@physx@@QEAA@IPEBVPxVec3@1@IPEBIM@Z 000000018005146c     MeshCleaner.obj
 0002:0000c48c       $chain$7$??0MeshCleaner@physx@@QEAA@IPEBVPxVec3@1@IPEBIM@Z 000000018005148c     MeshCleaner.obj
 0002:0000c4a4       $chain$8$??0MeshCleaner@physx@@QEAA@IPEBVPxVec3@1@IPEBIM@Z 00000001800514a4     MeshCleaner.obj
 0002:0000c4b8       $chain$9$??0MeshCleaner@physx@@QEAA@IPEBVPxVec3@1@IPEBIM@Z 00000001800514b8     MeshCleaner.obj
 0002:0000c4c8       $chain$10$??0MeshCleaner@physx@@QEAA@IPEBVPxVec3@1@IPEBIM@Z 00000001800514c8     MeshCleaner.obj
 0002:0000c4c8       $chain$12$??0MeshCleaner@physx@@QEAA@IPEBVPxVec3@1@IPEBIM@Z 00000001800514c8     MeshCleaner.obj
 0002:0000c4d8       $chain$11$??0MeshCleaner@physx@@QEAA@IPEBVPxVec3@1@IPEBIM@Z 00000001800514d8     MeshCleaner.obj
 0002:0000c4f0       $chain$13$??0MeshCleaner@physx@@QEAA@IPEBVPxVec3@1@IPEBIM@Z 00000001800514f0     MeshCleaner.obj
 0002:0000c50c       $chain$14$??0MeshCleaner@physx@@QEAA@IPEBVPxVec3@1@IPEBIM@Z 000000018005150c     MeshCleaner.obj
 0002:0000c51c       $unwind$?createQuantizer@physx@@YAPEAVQuantizer@1@XZ 000000018005151c     Quantizer.obj
 0002:0000c51c       $unwind$?getNoexcept@UnDecorator@@CA?AVDName@@XZ 000000018005151c     libvcruntime:undname.obj
 0002:0000c51c       $unwind$?getVCallThunkType@UnDecorator@@CA?AVDName@@XZ 000000018005151c     libvcruntime:undname.obj
 0002:0000c51c       $unwind$?getVdispMapType@UnDecorator@@CA?AVDName@@AEBV2@@Z 000000018005151c     libvcruntime:undname.obj
 0002:0000c51c       $unwind$?__mbrtowc_utf8@__crt_mbstring@@YA_KPEA_WPEBD_KPEAU_Mbstatet@@@Z 000000018005151c     libucrt:mbrtowc.obj
 0002:0000c51c       $unwind$__stdio_common_vsprintf_s 000000018005151c     libucrt:output.obj
 0002:0000c524       $unwind$??$kmeans_cluster@VPxVec3@physx@@M@@YAIPEBVPxVec3@physx@@IIPEAV01@PEAIMM@Z 0000000180051524     Quantizer.obj
 0002:0000c530       $chain$3$??$kmeans_cluster@VPxVec3@physx@@M@@YAIPEBVPxVec3@physx@@IIPEAV01@PEAIMM@Z 0000000180051530     Quantizer.obj
 0002:0000c550       $chain$6$??$kmeans_cluster@VPxVec3@physx@@M@@YAIPEBVPxVec3@physx@@IIPEAV01@PEAIMM@Z 0000000180051550     Quantizer.obj
 0002:0000c56c       $chain$12$??$kmeans_cluster@VPxVec3@physx@@M@@YAIPEBVPxVec3@physx@@IIPEAV01@PEAIMM@Z 000000018005156c     Quantizer.obj
 0002:0000c594       $chain$13$??$kmeans_cluster@VPxVec3@physx@@M@@YAIPEBVPxVec3@physx@@IIPEAV01@PEAIMM@Z 0000000180051594     Quantizer.obj
 0002:0000c5a4       $chain$14$??$kmeans_cluster@VPxVec3@physx@@M@@YAIPEBVPxVec3@physx@@IIPEAV01@PEAIMM@Z 00000001800515a4     Quantizer.obj
 0002:0000c5bc       $chain$15$??$kmeans_cluster@VPxVec3@physx@@M@@YAIPEBVPxVec3@physx@@IIPEAV01@PEAIMM@Z 00000001800515bc     Quantizer.obj
 0002:0000c5cc       $unwind$?kmeansQuantize3D@QuantizerImpl@@UEAAPEBVPxVec3@physx@@IPEBV23@I_NIAEAI@Z 00000001800515cc     Quantizer.obj
 0002:0000c5dc       $chain$1$?kmeansQuantize3D@QuantizerImpl@@UEAAPEBVPxVec3@physx@@IPEBV23@I_NIAEAI@Z 00000001800515dc     Quantizer.obj
 0002:0000c5f4       $chain$2$?kmeansQuantize3D@QuantizerImpl@@UEAAPEBVPxVec3@physx@@IPEBV23@I_NIAEAI@Z 00000001800515f4     Quantizer.obj
 0002:0000c608       $chain$3$?kmeansQuantize3D@QuantizerImpl@@UEAAPEBVPxVec3@physx@@IPEBV23@I_NIAEAI@Z 0000000180051608     Quantizer.obj
 0002:0000c618       $unwind$?normalizeInput@QuantizerImpl@@AEAAXIPEBVPxVec3@physx@@I@Z 0000000180051618     Quantizer.obj
 0002:0000c634       $chain$2$?normalizeInput@QuantizerImpl@@AEAAXIPEBVPxVec3@physx@@I@Z 0000000180051634     Quantizer.obj
 0002:0000c650       $chain$6$?normalizeInput@QuantizerImpl@@AEAAXIPEBVPxVec3@physx@@I@Z 0000000180051650     Quantizer.obj
 0002:0000c670       $chain$7$?normalizeInput@QuantizerImpl@@AEAAXIPEBVPxVec3@physx@@I@Z 0000000180051670     Quantizer.obj
 0002:0000c680       $chain$8$?normalizeInput@QuantizerImpl@@AEAAXIPEBVPxVec3@physx@@I@Z 0000000180051680     Quantizer.obj
 0002:0000c690       $chain$10$?normalizeInput@QuantizerImpl@@AEAAXIPEBVPxVec3@physx@@I@Z 0000000180051690     Quantizer.obj
 0002:0000c6a8       $chain$11$?normalizeInput@QuantizerImpl@@AEAAXIPEBVPxVec3@physx@@I@Z 00000001800516a8     Quantizer.obj
 0002:0000c6b8       $unwind$?growAndPushBack@?$Array@VPxVec3@physx@@V?$ReflectionAllocator@VPxVec3@physx@@@shdfnd@2@@shdfnd@physx@@IEAAAEAVPxVec3@3@AEBV43@@Z 00000001800516b8     Quantizer.obj
 0002:0000c6b8       $unwind$?saveMidPhaseStructure@BV4TriangleMeshBuilder@physx@@UEBAXAEAVPxOutputStream@2@_N@Z 00000001800516b8     TriangleMeshBuilder.obj
 0002:0000c6c4       $chain$0$?growAndPushBack@?$Array@VPxVec3@physx@@V?$ReflectionAllocator@VPxVec3@physx@@@shdfnd@2@@shdfnd@physx@@IEAAAEAVPxVec3@3@AEBV43@@Z 00000001800516c4     Quantizer.obj
 0002:0000c6d8       $chain$1$?growAndPushBack@?$Array@VPxVec3@physx@@V?$ReflectionAllocator@VPxVec3@physx@@@shdfnd@2@@shdfnd@physx@@IEAAAEAVPxVec3@3@AEBV43@@Z 00000001800516d8     Quantizer.obj
 0002:0000c6ec       $chain$2$?growAndPushBack@?$Array@VPxVec3@physx@@V?$ReflectionAllocator@VPxVec3@physx@@@shdfnd@2@@shdfnd@physx@@IEAAAEAVPxVec3@3@AEBV43@@Z 00000001800516ec     Quantizer.obj
 0002:0000c6fc       $chain$4$?growAndPushBack@?$Array@VPxVec3@physx@@V?$ReflectionAllocator@VPxVec3@physx@@@shdfnd@2@@shdfnd@physx@@IEAAAEAVPxVec3@3@AEBV43@@Z 00000001800516fc     Quantizer.obj
 0002:0000c710       $chain$3$?growAndPushBack@?$Array@VPxVec3@physx@@V?$ReflectionAllocator@VPxVec3@physx@@@shdfnd@2@@shdfnd@physx@@IEAAAEAVPxVec3@3@AEBV43@@Z 0000000180051710     Quantizer.obj
 0002:0000c720       $unwind$??_GQuantizerImpl@@EEAAPEAXI@Z 0000000180051720     Quantizer.obj
 0002:0000c720       $unwind$??_GConvexHull@physx@@QEAAPEAXI@Z 0000000180051720     QuickHullConvexHullLib.obj
 0002:0000c72c       $chain$0$??_GQuantizerImpl@@EEAAPEAXI@Z 000000018005172c     Quantizer.obj
 0002:0000c740       $chain$1$??_GQuantizerImpl@@EEAAPEAXI@Z 0000000180051740     Quantizer.obj
 0002:0000c750       $unwind$?loadFromDesc@BVHStructureBuilder@physx@@QEAA_NAEBVPxBVHStructureDesc@2@@Z 0000000180051750     BVHStructureBuilder.obj
 0002:0000c75c       $chain$4$?loadFromDesc@BVHStructureBuilder@physx@@QEAA_NAEBVPxBVHStructureDesc@2@@Z 000000018005175c     BVHStructureBuilder.obj
 0002:0000c780       $chain$6$?loadFromDesc@BVHStructureBuilder@physx@@QEAA_NAEBVPxBVHStructureDesc@2@@Z 0000000180051780     BVHStructureBuilder.obj
 0002:0000c798       $chain$7$?loadFromDesc@BVHStructureBuilder@physx@@QEAA_NAEBVPxBVHStructureDesc@2@@Z 0000000180051798     BVHStructureBuilder.obj
 0002:0000c7a8       $chain$8$?loadFromDesc@BVHStructureBuilder@physx@@QEAA_NAEBVPxBVHStructureDesc@2@@Z 00000001800517a8     BVHStructureBuilder.obj
 0002:0000c7b8       $unwind$?save@BVHStructureBuilder@physx@@QEBA_NAEAVPxOutputStream@2@_N@Z 00000001800517b8     BVHStructureBuilder.obj
 0002:0000c7c8       $chain$2$?save@BVHStructureBuilder@physx@@QEBA_NAEAVPxOutputStream@2@_N@Z 00000001800517c8     BVHStructureBuilder.obj
 0002:0000c7e0       $chain$3$?save@BVHStructureBuilder@physx@@QEBA_NAEAVPxOutputStream@2@_N@Z 00000001800517e0     BVHStructureBuilder.obj
 0002:0000c7f4       $chain$1$?allocate@?$Array@USlab@NodeAllocator@Gu@physx@@V?$ReflectionAllocator@USlab@NodeAllocator@Gu@physx@@@shdfnd@4@@shdfnd@physx@@IEAAPEAUSlab@NodeAllocator@Gu@3@I@Z 00000001800517f4     BVHStructureBuilder.obj
 0002:0000c80c       $chain$3$?allocate@?$Array@USlab@NodeAllocator@Gu@physx@@V?$ReflectionAllocator@USlab@NodeAllocator@Gu@physx@@@shdfnd@4@@shdfnd@physx@@IEAAPEAUSlab@NodeAllocator@Gu@3@I@Z 000000018005180c     BVHStructureBuilder.obj
 0002:0000c820       $chain$4$?allocate@?$Array@USlab@NodeAllocator@Gu@physx@@V?$ReflectionAllocator@USlab@NodeAllocator@Gu@physx@@@shdfnd@4@@shdfnd@physx@@IEAAPEAUSlab@NodeAllocator@Gu@3@I@Z 0000000180051820     BVHStructureBuilder.obj
 0002:0000c830       $chain$0$?recreate@?$Array@USlab@NodeAllocator@Gu@physx@@V?$ReflectionAllocator@USlab@NodeAllocator@Gu@physx@@@shdfnd@4@@shdfnd@physx@@IEAAXI@Z 0000000180051830     BVHStructureBuilder.obj
 0002:0000c844       $chain$1$?recreate@?$Array@USlab@NodeAllocator@Gu@physx@@V?$ReflectionAllocator@USlab@NodeAllocator@Gu@physx@@@shdfnd@4@@shdfnd@physx@@IEAAXI@Z 0000000180051844     BVHStructureBuilder.obj
 0002:0000c854       $unwind$??4NodeAllocator@Gu@physx@@QEAAAEAV012@AEBV012@@Z 0000000180051854     BVHStructureBuilder.obj
 0002:0000c854       $unwind$__std_exception_copy 0000000180051854     libvcruntime:std_exception.obj
 0002:0000c854       $unwind$??$doPchar@$00@DName@@AEAAXPEBDH@Z 0000000180051854     libvcruntime:undname.obj
 0002:0000c854       $unwind$_free_osfhnd       0000000180051854     libucrt:osfinfo.obj
 0002:0000c868       $unwind$?saveHeightField@physx@@YA_NAEBVHeightField@Gu@1@AEAVPxOutputStream@1@_N@Z 0000000180051868     HeightFieldCooking.obj
 0002:0000c878       $chain$2$?saveHeightField@physx@@YA_NAEBVHeightField@Gu@1@AEAVPxOutputStream@1@_N@Z 0000000180051878     HeightFieldCooking.obj
 0002:0000c890       $chain$3$?saveHeightField@physx@@YA_NAEBVHeightField@Gu@1@AEAVPxOutputStream@1@_N@Z 0000000180051890     HeightFieldCooking.obj
 0002:0000c8a0       $chain$0$?allocate@?$ReflectionAllocator@I@shdfnd@physx@@QEAAPEAX_KPEBDH@Z 00000001800518a0     RTreeCooking.obj
 0002:0000c8b4       $chain$1$?allocate@?$ReflectionAllocator@I@shdfnd@physx@@QEAAPEAX_KPEBDH@Z 00000001800518b4     RTreeCooking.obj
 0002:0000c8c4       $unwind$?buildFromTriangles@RTreeCooker@physx@@SAXAEAURTree@Gu@2@PEBVPxVec3@2@IPEBGPEBIIAEAV?$Array@IV?$ReflectionAllocator@I@shdfnd@physx@@@shdfnd@2@PEAURemapCallback@12@MW4Enum@PxMeshCookingHint@2@@Z 00000001800518c4     RTreeCooking.obj
 0002:0000c8d0       $chain$7$?buildFromTriangles@RTreeCooker@physx@@SAXAEAURTree@Gu@2@PEBVPxVec3@2@IPEBGPEBIIAEAV?$Array@IV?$ReflectionAllocator@I@shdfnd@physx@@@shdfnd@2@PEAURemapCallback@12@MW4Enum@PxMeshCookingHint@2@@Z 00000001800518d0     RTreeCooking.obj
 0002:0000c900       $chain$9$?buildFromTriangles@RTreeCooker@physx@@SAXAEAURTree@Gu@2@PEBVPxVec3@2@IPEBGPEBIIAEAV?$Array@IV?$ReflectionAllocator@I@shdfnd@physx@@@shdfnd@2@PEAURemapCallback@12@MW4Enum@PxMeshCookingHint@2@@Z 0000000180051900     RTreeCooking.obj
 0002:0000c918       $chain$10$?buildFromTriangles@RTreeCooker@physx@@SAXAEAURTree@Gu@2@PEBVPxVec3@2@IPEBGPEBIIAEAV?$Array@IV?$ReflectionAllocator@I@shdfnd@physx@@@shdfnd@2@PEAURemapCallback@12@MW4Enum@PxMeshCookingHint@2@@Z 0000000180051918     RTreeCooking.obj
 0002:0000c928       $chain$11$?buildFromTriangles@RTreeCooker@physx@@SAXAEAURTree@Gu@2@PEBVPxVec3@2@IPEBGPEBIIAEAV?$Array@IV?$ReflectionAllocator@I@shdfnd@physx@@@shdfnd@2@PEAURemapCallback@12@MW4Enum@PxMeshCookingHint@2@@Z 0000000180051928     RTreeCooking.obj
 0002:0000c938       $unwind$?buildFromBounds@physx@@YAXAEAURTree@Gu@1@PEBUPxBounds3V@1@IAEAV?$Array@IV?$ReflectionAllocator@I@shdfnd@physx@@@shdfnd@1@PEAURemapCallback@RTreeCooker@1@AEAT__m128@@4MW4Enum@PxMeshCookingHint@1@@Z 0000000180051938     RTreeCooking.obj
 0002:0000c954       $chain$1$?allocate@?$Array@UPxBounds3V@physx@@V?$ReflectionAllocator@UPxBounds3V@physx@@@shdfnd@2@@shdfnd@physx@@IEAAPEAUPxBounds3V@3@I@Z 0000000180051954     RTreeCooking.obj
 0002:0000c96c       $chain$3$?allocate@?$Array@UPxBounds3V@physx@@V?$ReflectionAllocator@UPxBounds3V@physx@@@shdfnd@2@@shdfnd@physx@@IEAAPEAUPxBounds3V@3@I@Z 000000018005196c     RTreeCooking.obj
 0002:0000c980       $chain$4$?allocate@?$Array@UPxBounds3V@physx@@V?$ReflectionAllocator@UPxBounds3V@physx@@@shdfnd@2@@shdfnd@physx@@IEAAPEAUPxBounds3V@3@I@Z 0000000180051980     RTreeCooking.obj
 0002:0000c990       $unwind$?growAndPushBack@?$Array@VHalfEdge@ConvexHull@physx@@V?$ReflectionAllocator@VHalfEdge@ConvexHull@physx@@@shdfnd@3@@shdfnd@physx@@IEAAAEAVHalfEdge@ConvexHull@3@AEBV453@@Z 0000000180051990     ConvexHullUtils.obj
 0002:0000c990       $unwind$?growAndPushBack@?$Array@VPxPlane@physx@@V?$ReflectionAllocator@VPxPlane@physx@@@shdfnd@2@@shdfnd@physx@@IEAAAEAVPxPlane@3@AEBV43@@Z 0000000180051990     ConvexHullUtils.obj
 0002:0000c990       $unwind$?resize@?$Array@VHalfEdge@ConvexHull@physx@@V?$ReflectionAllocator@VHalfEdge@ConvexHull@physx@@@shdfnd@3@@shdfnd@physx@@QEAAXIAEBVHalfEdge@ConvexHull@3@@Z 0000000180051990     ConvexHullUtils.obj
 0002:0000c990       $unwind$?growAndPushBack@?$Array@VPair@@V?$ReflectionAllocator@VPair@@@shdfnd@physx@@@shdfnd@physx@@IEAAAEAVPair@@AEBV4@@Z 0000000180051990     ConvexPolygonsBuilder.obj
 0002:0000c990       $unwind$??_GQuickHullConvexHullLib@physx@@UEAAPEAXI@Z 0000000180051990     QuickHullConvexHullLib.obj
 0002:0000c990       $unwind$?growAndPushBack@?$Array@PEAUQuickHullFace@local@@V?$ReflectionAllocator@PEAUQuickHullFace@local@@@shdfnd@physx@@@shdfnd@physx@@IEAAAEAPEAUQuickHullFace@local@@AEBQEAU45@@Z 0000000180051990     QuickHullConvexHullLib.obj
 0002:0000c990       $unwind$?growAndPushBack@?$Array@PEAUQuickHullHalfEdge@local@@V?$ReflectionAllocator@PEAUQuickHullHalfEdge@local@@@shdfnd@physx@@@shdfnd@physx@@IEAAAEAPEAUQuickHullHalfEdge@local@@AEBQEAU45@@Z 0000000180051990     QuickHullConvexHullLib.obj
 0002:0000c990       $unwind$?growAndPushBack@?$Array@PEAUQuickHullVertex@local@@V?$ReflectionAllocator@PEAUQuickHullVertex@local@@@shdfnd@physx@@@shdfnd@physx@@IEAAAEAPEAUQuickHullVertex@local@@AEBQEAU45@@Z 0000000180051990     QuickHullConvexHullLib.obj
 0002:0000c990       $unwind$?growAndPushBack@?$Array@UExpandPoint@local@@V?$ReflectionAllocator@UExpandPoint@local@@@shdfnd@physx@@@shdfnd@physx@@IEAAAEAUExpandPoint@local@@AEBU45@@Z 0000000180051990     QuickHullConvexHullLib.obj
 0002:0000c990       $unwind$?growAndPushBack@?$Array@UInterval@physx@@V?$InlineAllocator@$0CAAA@V?$ReflectionAllocator@UInterval@physx@@@shdfnd@physx@@@shdfnd@2@@shdfnd@physx@@IEAAAEAUInterval@3@AEBU43@@Z 0000000180051990     RTreeCooking.obj
 0002:0000c990       $unwind$?growAndPushBack@?$Array@UPxBounds3V@physx@@V?$ReflectionAllocator@UPxBounds3V@physx@@@shdfnd@2@@shdfnd@physx@@IEAAAEAUPxBounds3V@3@AEBU43@@Z 0000000180051990     RTreeCooking.obj
 0002:0000c990       $unwind$?growAndPushBack@?$Array@URTreeNodeNQ@physx@@V?$ReflectionAllocator@URTreeNodeNQ@physx@@@shdfnd@2@@shdfnd@physx@@IEAAAEAURTreeNodeNQ@3@AEBU43@@Z 0000000180051990     RTreeCooking.obj
 0002:0000c990       $unwind$?growAndPushBack@?$Array@URTreeNodeQ@Gu@physx@@V?$ReflectionAllocator@URTreeNodeQ@Gu@physx@@@shdfnd@3@@shdfnd@physx@@IEAAAEAURTreeNodeQ@Gu@3@AEBU453@@Z 0000000180051990     RTreeCooking.obj
 0002:0000c990       $unwind$?resize@?$Array@IV?$ReflectionAllocator@I@shdfnd@physx@@@shdfnd@physx@@QEAAXIAEBI@Z 0000000180051990     RTreeCooking.obj
 0002:0000c990       $unwind$__scrt_dllmain_exception_filter 0000000180051990     LIBCMT:utility.obj
 0002:0000c990       $unwind$?Is_bad_exception_allowed@@YAEPEBU_s_ESTypeList@@@Z 0000000180051990     libvcruntime:frame.obj
 0002:0000c990       $unwind$_ischartype_l      0000000180051990     libucrt:atox.obj
 0002:0000c990       $unwind$_recalloc_base     0000000180051990     libucrt:recalloc.obj
 0002:0000c990       $unwind$__acrt_free_locale 0000000180051990     libucrt:locale_refcounting.obj
 0002:0000c990       $unwind$__acrt_lowio_create_handle_array 0000000180051990     libucrt:osfinfo.obj
 0002:0000c990       $unwind$?setSBCS@@YAXPEAU__crt_multibyte_data@@@Z 0000000180051990     libucrt:mbctype.obj
 0002:0000c990       $unwind$_seh_filter_exe    0000000180051990     libucrt:exception_filter.obj
 0002:0000c990       $unwind$_initterm          0000000180051990     libucrt:initterm.obj
 0002:0000c990       $unwind$??$ensure_buffer_is_big_enough@D@formatting_buffer@__crt_stdio_output@@QEAA_N_K@Z 0000000180051990     libucrt:output.obj
 0002:0000c9a4       $chain$0$?recreate@?$Array@UPxBounds3V@physx@@V?$ReflectionAllocator@UPxBounds3V@physx@@@shdfnd@2@@shdfnd@physx@@IEAAXI@Z 00000001800519a4     RTreeCooking.obj
 0002:0000c9b8       $chain$1$?recreate@?$Array@UPxBounds3V@physx@@V?$ReflectionAllocator@UPxBounds3V@physx@@@shdfnd@2@@shdfnd@physx@@IEAAXI@Z 00000001800519b8     RTreeCooking.obj
 0002:0000c9c8       $unwind$?growAndPushBack@?$Array@IV?$ReflectionAllocator@I@shdfnd@physx@@@shdfnd@physx@@IEAAAEAIAEBI@Z 00000001800519c8     RTreeCooking.obj
 0002:0000c9d8       $chain$0$?growAndPushBack@?$Array@IV?$ReflectionAllocator@I@shdfnd@physx@@@shdfnd@physx@@IEAAAEAIAEBI@Z 00000001800519d8     RTreeCooking.obj
 0002:0000c9ec       $chain$2$?growAndPushBack@?$Array@IV?$ReflectionAllocator@I@shdfnd@physx@@@shdfnd@physx@@IEAAAEAIAEBI@Z 00000001800519ec     RTreeCooking.obj
 0002:0000ca00       $chain$1$?growAndPushBack@?$Array@IV?$ReflectionAllocator@I@shdfnd@physx@@@shdfnd@physx@@IEAAAEAIAEBI@Z 0000000180051a00     RTreeCooking.obj
 0002:0000ca10       $chain$0$?recreate@?$Array@IV?$ReflectionAllocator@I@shdfnd@physx@@@shdfnd@physx@@IEAAXI@Z 0000000180051a10     RTreeCooking.obj
 0002:0000ca24       $chain$1$?recreate@?$Array@IV?$ReflectionAllocator@I@shdfnd@physx@@@shdfnd@physx@@IEAAXI@Z 0000000180051a24     RTreeCooking.obj
 0002:0000ca34       $chain$1$?allocate@?$Array@VPxVec3@physx@@V?$ReflectionAllocator@VPxVec3@physx@@@shdfnd@2@@shdfnd@physx@@IEAAPEAVPxVec3@3@I@Z 0000000180051a34     RTreeCooking.obj
 0002:0000ca4c       $chain$3$?allocate@?$Array@VPxVec3@physx@@V?$ReflectionAllocator@VPxVec3@physx@@@shdfnd@2@@shdfnd@physx@@IEAAPEAVPxVec3@3@I@Z 0000000180051a4c     RTreeCooking.obj
 0002:0000ca60       $chain$4$?allocate@?$Array@VPxVec3@physx@@V?$ReflectionAllocator@VPxVec3@physx@@@shdfnd@2@@shdfnd@physx@@IEAAPEAVPxVec3@3@I@Z 0000000180051a60     RTreeCooking.obj
 0002:0000ca70       $chain$0$?recreate@?$Array@VPxVec3@physx@@V?$ReflectionAllocator@VPxVec3@physx@@@shdfnd@2@@shdfnd@physx@@IEAAXI@Z 0000000180051a70     RTreeCooking.obj
 0002:0000ca84       $chain$1$?recreate@?$Array@VPxVec3@physx@@V?$ReflectionAllocator@VPxVec3@physx@@@shdfnd@2@@shdfnd@physx@@IEAAXI@Z 0000000180051a84     RTreeCooking.obj
 0002:0000ca94       $unwind$?sort4@SubSortQuick@physx@@QEAAXPEIAIIAEAV?$Array@URTreeNodeNQ@physx@@V?$ReflectionAllocator@URTreeNodeNQ@physx@@@shdfnd@2@@shdfnd@2@AEAIAEAUPxBounds3V@2@I@Z 0000000180051a94     RTreeCooking.obj
 0002:0000caac       $chain$1$?allocate@?$Array@URTreeNodeNQ@physx@@V?$ReflectionAllocator@URTreeNodeNQ@physx@@@shdfnd@2@@shdfnd@physx@@IEAAPEAURTreeNodeNQ@3@I@Z 0000000180051aac     RTreeCooking.obj
 0002:0000cac4       $chain$3$?allocate@?$Array@URTreeNodeNQ@physx@@V?$ReflectionAllocator@URTreeNodeNQ@physx@@@shdfnd@2@@shdfnd@physx@@IEAAPEAURTreeNodeNQ@3@I@Z 0000000180051ac4     RTreeCooking.obj
 0002:0000cad8       $chain$4$?allocate@?$Array@URTreeNodeNQ@physx@@V?$ReflectionAllocator@URTreeNodeNQ@physx@@@shdfnd@2@@shdfnd@physx@@IEAAPEAURTreeNodeNQ@3@I@Z 0000000180051ad8     RTreeCooking.obj
 0002:0000cae8       $chain$0$?recreate@?$Array@URTreeNodeNQ@physx@@V?$ReflectionAllocator@URTreeNodeNQ@physx@@@shdfnd@2@@shdfnd@physx@@IEAAXI@Z 0000000180051ae8     RTreeCooking.obj
 0002:0000cafc       $chain$1$?recreate@?$Array@URTreeNodeNQ@physx@@V?$ReflectionAllocator@URTreeNodeNQ@physx@@@shdfnd@2@@shdfnd@physx@@IEAAXI@Z 0000000180051afc     RTreeCooking.obj
 0002:0000cb0c       $unwind$??$quickSelectFirstK@UBoundsLTE@physx@@@quickSelect@physx@@YAXPEIAIIIIAEBUBoundsLTE@1@@Z 0000000180051b0c     RTreeCooking.obj
 0002:0000cb24       $unwind$?split@SubSortSAH@physx@@QEAAIPEAII@Z 0000000180051b24     RTreeCooking.obj
 0002:0000cb34       $chain$3$?split@SubSortSAH@physx@@QEAAIPEAII@Z 0000000180051b34     RTreeCooking.obj
 0002:0000cb54       $chain$5$?split@SubSortSAH@physx@@QEAAIPEAII@Z 0000000180051b54     RTreeCooking.obj
 0002:0000cb6c       $chain$6$?split@SubSortSAH@physx@@QEAAIPEAII@Z 0000000180051b6c     RTreeCooking.obj
 0002:0000cb6c       $chain$8$?split@SubSortSAH@physx@@QEAAIPEAII@Z 0000000180051b6c     RTreeCooking.obj
 0002:0000cb7c       $chain$7$?split@SubSortSAH@physx@@QEAAIPEAII@Z 0000000180051b7c     RTreeCooking.obj
 0002:0000cb94       $chain$9$?split@SubSortSAH@physx@@QEAAIPEAII@Z 0000000180051b94     RTreeCooking.obj
 0002:0000cba4       $unwind$?sort4@SubSortSAH@physx@@QEAAXPEAIIAEAV?$Array@URTreeNodeNQ@physx@@V?$ReflectionAllocator@URTreeNodeNQ@physx@@@shdfnd@2@@shdfnd@2@AEAIIPEAURTreeNodeNQ@2@@Z 0000000180051ba4     RTreeCooking.obj
 0002:0000cbd0       $chain$1$?allocate@?$Array@UInterval@physx@@V?$InlineAllocator@$0CAAA@V?$ReflectionAllocator@UInterval@physx@@@shdfnd@physx@@@shdfnd@2@@shdfnd@physx@@IEAAPEAUInterval@3@I@Z 0000000180051bd0     RTreeCooking.obj
 0002:0000cbe8       $chain$3$?allocate@?$Array@UInterval@physx@@V?$InlineAllocator@$0CAAA@V?$ReflectionAllocator@UInterval@physx@@@shdfnd@physx@@@shdfnd@2@@shdfnd@physx@@IEAAPEAUInterval@3@I@Z 0000000180051be8     RTreeCooking.obj
 0002:0000cbfc       $chain$4$?allocate@?$Array@UInterval@physx@@V?$InlineAllocator@$0CAAA@V?$ReflectionAllocator@UInterval@physx@@@shdfnd@physx@@@shdfnd@2@@shdfnd@physx@@IEAAPEAUInterval@3@I@Z 0000000180051bfc     RTreeCooking.obj
 0002:0000cc0c       $chain$1$?allocate@?$Array@URTreeNodeQ@Gu@physx@@V?$ReflectionAllocator@URTreeNodeQ@Gu@physx@@@shdfnd@3@@shdfnd@physx@@IEAAPEAURTreeNodeQ@Gu@3@I@Z 0000000180051c0c     RTreeCooking.obj
 0002:0000cc24       $chain$3$?allocate@?$Array@URTreeNodeQ@Gu@physx@@V?$ReflectionAllocator@URTreeNodeQ@Gu@physx@@@shdfnd@3@@shdfnd@physx@@IEAAPEAURTreeNodeQ@Gu@3@I@Z 0000000180051c24     RTreeCooking.obj
 0002:0000cc38       $chain$4$?allocate@?$Array@URTreeNodeQ@Gu@physx@@V?$ReflectionAllocator@URTreeNodeQ@Gu@physx@@@shdfnd@3@@shdfnd@physx@@IEAAPEAURTreeNodeQ@Gu@3@I@Z 0000000180051c38     RTreeCooking.obj
 0002:0000cc48       $chain$0$?recreate@?$Array@URTreeNodeQ@Gu@physx@@V?$ReflectionAllocator@URTreeNodeQ@Gu@physx@@@shdfnd@3@@shdfnd@physx@@IEAAXI@Z 0000000180051c48     RTreeCooking.obj
 0002:0000cc5c       $chain$1$?recreate@?$Array@URTreeNodeQ@Gu@physx@@V?$ReflectionAllocator@URTreeNodeQ@Gu@physx@@@shdfnd@3@@shdfnd@physx@@IEAAXI@Z 0000000180051c5c     RTreeCooking.obj
 0002:0000cc6c       $unwind$??$sort@IU?$Less@I@shdfnd@physx@@V?$ReflectionAllocator@I@23@@shdfnd@physx@@YAXPEAIIAEBU?$Less@I@01@AEBV?$ReflectionAllocator@I@01@I@Z 0000000180051c6c     RTreeCooking.obj
 0002:0000cc8c       $unwind$??$sort@IUSortBoundsPredicate@physx@@V?$ReflectionAllocator@I@shdfnd@2@@shdfnd@physx@@YAXPEAIIAEBUSortBoundsPredicate@1@AEBV?$ReflectionAllocator@I@01@I@Z 0000000180051c8c     RTreeCooking.obj
 0002:0000cca8       $unwind$??$smallSort@I$$CBUSortBoundsPredicate@physx@@@internal@shdfnd@physx@@YAXPEAIHHAEBUSortBoundsPredicate@2@@Z 0000000180051ca8     RTreeCooking.obj
 0002:0000ccb4       $chain$6$??$smallSort@I$$CBUSortBoundsPredicate@physx@@@internal@shdfnd@physx@@YAXPEAIHHAEBUSortBoundsPredicate@2@@Z 0000000180051cb4     RTreeCooking.obj
 0002:0000cce0       $chain$7$??$smallSort@I$$CBUSortBoundsPredicate@physx@@@internal@shdfnd@physx@@YAXPEAIHHAEBUSortBoundsPredicate@2@@Z 0000000180051ce0     RTreeCooking.obj
 0002:0000ccf0       $unwind$??0QuickHullConvexHullLib@physx@@QEAA@AEBVPxConvexMeshDesc@1@AEBUPxCookingParams@1@@Z 0000000180051cf0     QuickHullConvexHullLib.obj
 0002:0000ccf0       $unwind$?allocateTriangles@TriangleMeshData@Gu@physx@@QEAAPEAXI_NI@Z 0000000180051cf0     TriangleMeshBuilder.obj
 0002:0000cd08       $chain$0$??$?_UG@@YAPEAX_KV?$ReflectionAllocator@G@shdfnd@physx@@PEBDH@Z 0000000180051d08     TriangleMeshBuilder.obj
 0002:0000cd1c       $chain$1$??$?_UG@@YAPEAX_KV?$ReflectionAllocator@G@shdfnd@physx@@PEBDH@Z 0000000180051d1c     TriangleMeshBuilder.obj
 0002:0000cd2c       $chain$0$??1RTreeTriangleData@Gu@physx@@UEAA@XZ 0000000180051d2c     TriangleMeshBuilder.obj
 0002:0000cd40       $chain$1$??1RTreeTriangleData@Gu@physx@@UEAA@XZ 0000000180051d40     TriangleMeshBuilder.obj
 0002:0000cd50       $unwind$?cleanMesh@TriangleMeshBuilder@physx@@QEAA_N_NPEAW4Enum@PxTriangleMeshCookingResult@2@@Z 0000000180051d50     TriangleMeshBuilder.obj
 0002:0000cd64       $chain$0$?cleanMesh@TriangleMeshBuilder@physx@@QEAA_N_NPEAW4Enum@PxTriangleMeshCookingResult@2@@Z 0000000180051d64     TriangleMeshBuilder.obj
 0002:0000cd78       $chain$1$?cleanMesh@TriangleMeshBuilder@physx@@QEAA_N_NPEAW4Enum@PxTriangleMeshCookingResult@2@@Z 0000000180051d78     TriangleMeshBuilder.obj
 0002:0000cd8c       $chain$2$?cleanMesh@TriangleMeshBuilder@physx@@QEAA_N_NPEAW4Enum@PxTriangleMeshCookingResult@2@@Z 0000000180051d8c     TriangleMeshBuilder.obj
 0002:0000cda0       $chain$3$?cleanMesh@TriangleMeshBuilder@physx@@QEAA_N_NPEAW4Enum@PxTriangleMeshCookingResult@2@@Z 0000000180051da0     TriangleMeshBuilder.obj
 0002:0000cdb0       $chain$7$?cleanMesh@TriangleMeshBuilder@physx@@QEAA_N_NPEAW4Enum@PxTriangleMeshCookingResult@2@@Z 0000000180051db0     TriangleMeshBuilder.obj
 0002:0000cdcc       $chain$4$?cleanMesh@TriangleMeshBuilder@physx@@QEAA_N_NPEAW4Enum@PxTriangleMeshCookingResult@2@@Z 0000000180051dcc     TriangleMeshBuilder.obj
 0002:0000cddc       $chain$8$?cleanMesh@TriangleMeshBuilder@physx@@QEAA_N_NPEAW4Enum@PxTriangleMeshCookingResult@2@@Z 0000000180051ddc     TriangleMeshBuilder.obj
 0002:0000cdec       $unwind$?remapTopology@TriangleMeshBuilder@physx@@QEAAXPEBI@Z 0000000180051dec     TriangleMeshBuilder.obj
 0002:0000cdf8       $chain$4$?remapTopology@TriangleMeshBuilder@physx@@QEAAXPEBI@Z 0000000180051df8     TriangleMeshBuilder.obj
 0002:0000ce1c       $chain$5$?remapTopology@TriangleMeshBuilder@physx@@QEAAXPEBI@Z 0000000180051e1c     TriangleMeshBuilder.obj
 0002:0000ce3c       $chain$6$?remapTopology@TriangleMeshBuilder@physx@@QEAAXPEBI@Z 0000000180051e3c     TriangleMeshBuilder.obj
 0002:0000ce4c       $unwind$?createSharedEdgeData@TriangleMeshBuilder@physx@@QEAAX_N0@Z 0000000180051e4c     TriangleMeshBuilder.obj
 0002:0000ce58       $chain$3$?createSharedEdgeData@TriangleMeshBuilder@physx@@QEAAX_N0@Z 0000000180051e58     TriangleMeshBuilder.obj
 0002:0000ce78       $chain$4$?createSharedEdgeData@TriangleMeshBuilder@physx@@QEAAX_N0@Z 0000000180051e78     TriangleMeshBuilder.obj
 0002:0000ce8c       $chain$5$?createSharedEdgeData@TriangleMeshBuilder@physx@@QEAAX_N0@Z 0000000180051e8c     TriangleMeshBuilder.obj
 0002:0000ce9c       $chain$6$?createSharedEdgeData@TriangleMeshBuilder@physx@@QEAAX_N0@Z 0000000180051e9c     TriangleMeshBuilder.obj
 0002:0000ceac       $unwind$?createGRBMidPhaseAndData@TriangleMeshBuilder@physx@@QEAAXI@Z 0000000180051eac     TriangleMeshBuilder.obj
 0002:0000ceb8       $chain$0$?createGRBMidPhaseAndData@TriangleMeshBuilder@physx@@QEAAXI@Z 0000000180051eb8     TriangleMeshBuilder.obj
 0002:0000cecc       $chain$4$?createGRBMidPhaseAndData@TriangleMeshBuilder@physx@@QEAAXI@Z 0000000180051ecc     TriangleMeshBuilder.obj
 0002:0000ceec       $chain$5$?createGRBMidPhaseAndData@TriangleMeshBuilder@physx@@QEAAXI@Z 0000000180051eec     TriangleMeshBuilder.obj
 0002:0000cf08       $chain$6$?createGRBMidPhaseAndData@TriangleMeshBuilder@physx@@QEAAXI@Z 0000000180051f08     TriangleMeshBuilder.obj
 0002:0000cf1c       $chain$7$?createGRBMidPhaseAndData@TriangleMeshBuilder@physx@@QEAAXI@Z 0000000180051f1c     TriangleMeshBuilder.obj
 0002:0000cf30       $chain$8$?createGRBMidPhaseAndData@TriangleMeshBuilder@physx@@QEAAXI@Z 0000000180051f30     TriangleMeshBuilder.obj
 0002:0000cf40       $unwind$?loadFromDesc@TriangleMeshBuilder@physx@@QEAA_NAEBVPxTriangleMeshDesc@2@PEAW4Enum@PxTriangleMeshCookingResult@2@_N@Z 0000000180051f40     TriangleMeshBuilder.obj
 0002:0000cf50       $chain$2$?loadFromDesc@TriangleMeshBuilder@physx@@QEAA_NAEBVPxTriangleMeshDesc@2@PEAW4Enum@PxTriangleMeshCookingResult@2@_N@Z 0000000180051f50     TriangleMeshBuilder.obj
 0002:0000cf6c       $chain$4$?loadFromDesc@TriangleMeshBuilder@physx@@QEAA_NAEBVPxTriangleMeshDesc@2@PEAW4Enum@PxTriangleMeshCookingResult@2@_N@Z 0000000180051f6c     TriangleMeshBuilder.obj
 0002:0000cf88       $chain$5$?loadFromDesc@TriangleMeshBuilder@physx@@QEAA_NAEBVPxTriangleMeshDesc@2@PEAW4Enum@PxTriangleMeshCookingResult@2@_N@Z 0000000180051f88     TriangleMeshBuilder.obj
 0002:0000cf98       $unwind$?save@TriangleMeshBuilder@physx@@QEBA_NAEAVPxOutputStream@2@_NAEBUPxCookingParams@2@@Z 0000000180051f98     TriangleMeshBuilder.obj
 0002:0000cfb4       $chain$3$?save@TriangleMeshBuilder@physx@@QEBA_NAEAVPxOutputStream@2@_NAEBUPxCookingParams@2@@Z 0000000180051fb4     TriangleMeshBuilder.obj
 0002:0000cfc8       $unwind$?checkMeshIndicesSize@TriangleMeshBuilder@physx@@QEAAXXZ 0000000180051fc8     TriangleMeshBuilder.obj
 0002:0000cfd4       $chain$1$?checkMeshIndicesSize@TriangleMeshBuilder@physx@@QEAAXXZ 0000000180051fd4     TriangleMeshBuilder.obj
 0002:0000cfec       $chain$2$?checkMeshIndicesSize@TriangleMeshBuilder@physx@@QEAAXXZ 0000000180051fec     TriangleMeshBuilder.obj
 0002:0000d000       $chain$3$?checkMeshIndicesSize@TriangleMeshBuilder@physx@@QEAAXXZ 0000000180052000     TriangleMeshBuilder.obj
 0002:0000d010       $chain$4$?checkMeshIndicesSize@TriangleMeshBuilder@physx@@QEAAXXZ 0000000180052010     TriangleMeshBuilder.obj
 0002:0000d020       $unwind$?importMesh@TriangleMeshBuilder@physx@@IEAA_NAEBVPxTriangleMeshDesc@2@AEBUPxCookingParams@2@PEAW4Enum@PxTriangleMeshCookingResult@2@_N@Z 0000000180052020     TriangleMeshBuilder.obj
 0002:0000d03c       $unwind$?createMidPhaseStructure@RTreeTriangleMeshBuilder@physx@@UEAAXXZ 000000018005203c     TriangleMeshBuilder.obj
 0002:0000d044       $unwind$?saveMidPhaseStructure@RTreeTriangleMeshBuilder@physx@@UEBAXAEAVPxOutputStream@2@_N@Z 0000000180052044     TriangleMeshBuilder.obj
 0002:0000d054       $chain$0$?saveMidPhaseStructure@RTreeTriangleMeshBuilder@physx@@UEBAXAEAVPxOutputStream@2@_N@Z 0000000180052054     TriangleMeshBuilder.obj
 0002:0000d068       $chain$1$?saveMidPhaseStructure@RTreeTriangleMeshBuilder@physx@@UEBAXAEAVPxOutputStream@2@_N@Z 0000000180052068     TriangleMeshBuilder.obj
 0002:0000d078       $unwind$?createMidPhaseStructure@BV4TriangleMeshBuilder@physx@@UEAAXXZ 0000000180052078     TriangleMeshBuilder.obj
 0002:0000d084       $chain$2$?createMidPhaseStructure@BV4TriangleMeshBuilder@physx@@UEAAXXZ 0000000180052084     TriangleMeshBuilder.obj
 0002:0000d0a0       $chain$3$?createMidPhaseStructure@BV4TriangleMeshBuilder@physx@@UEAAXXZ 00000001800520a0     TriangleMeshBuilder.obj
 0002:0000d0b4       $chain$4$?createMidPhaseStructure@BV4TriangleMeshBuilder@physx@@UEAAXXZ 00000001800520b4     TriangleMeshBuilder.obj
 0002:0000d0c4       $chain$5$?createMidPhaseStructure@BV4TriangleMeshBuilder@physx@@UEAAXXZ 00000001800520c4     TriangleMeshBuilder.obj
 0002:0000d0d8       $unwind$?createMidPhaseStructure@BV32TriangleMeshBuilder@physx@@SAXAEBUPxCookingParams@2@AEAVTriangleMeshData@Gu@2@AEAVBV32Tree@52@@Z 00000001800520d8     TriangleMeshBuilder.obj
 0002:0000d0e8       $chain$0$?createMidPhaseStructure@BV32TriangleMeshBuilder@physx@@SAXAEBUPxCookingParams@2@AEAVTriangleMeshData@Gu@2@AEAVBV32Tree@52@@Z 00000001800520e8     TriangleMeshBuilder.obj
 0002:0000d0fc       $chain$1$?createMidPhaseStructure@BV32TriangleMeshBuilder@physx@@SAXAEBUPxCookingParams@2@AEAVTriangleMeshData@Gu@2@AEAVBV32Tree@52@@Z 00000001800520fc     TriangleMeshBuilder.obj
 0002:0000d110       $chain$2$?createMidPhaseStructure@BV32TriangleMeshBuilder@physx@@SAXAEBUPxCookingParams@2@AEAVTriangleMeshData@Gu@2@AEAVBV32Tree@52@@Z 0000000180052110     TriangleMeshBuilder.obj
 0002:0000d120       $chain$3$?createMidPhaseStructure@BV32TriangleMeshBuilder@physx@@SAXAEBUPxCookingParams@2@AEAVTriangleMeshData@Gu@2@AEAVBV32Tree@52@@Z 0000000180052120     TriangleMeshBuilder.obj
 0002:0000d130       $unwind$?findAdjacent@physx@@YAIPEBVPxVec3@1@0PEBUuint3@1@IIIAEBVPxPlane@1@PEAUEdgeTriLookup@1@I@Z 0000000180052130     TriangleMeshBuilder.obj
 0002:0000d154       $unwind$?buildAdjacencies@physx@@YAXPEAUuint4@1@PEAVPxVec3@1@PEBV31@PEBUuint3@1@I@Z 0000000180052154     TriangleMeshBuilder.obj
 0002:0000d160       $chain$3$?buildAdjacencies@physx@@YAXPEAUuint4@1@PEAVPxVec3@1@PEBV31@PEBUuint3@1@I@Z 0000000180052160     TriangleMeshBuilder.obj
 0002:0000d180       $chain$7$?buildAdjacencies@physx@@YAXPEAUuint4@1@PEAVPxVec3@1@PEBV31@PEBUuint3@1@I@Z 0000000180052180     TriangleMeshBuilder.obj
 0002:0000d1a0       $chain$11$?buildAdjacencies@physx@@YAXPEAUuint4@1@PEAVPxVec3@1@PEBV31@PEBUuint3@1@I@Z 00000001800521a0     TriangleMeshBuilder.obj
 0002:0000d1c0       $chain$12$?buildAdjacencies@physx@@YAXPEAUuint4@1@PEAVPxVec3@1@PEBV31@PEBUuint3@1@I@Z 00000001800521c0     TriangleMeshBuilder.obj
 0002:0000d1d0       $chain$13$?buildAdjacencies@physx@@YAXPEAUuint4@1@PEAVPxVec3@1@PEBV31@PEBUuint3@1@I@Z 00000001800521d0     TriangleMeshBuilder.obj
 0002:0000d1e0       $chain$14$?buildAdjacencies@physx@@YAXPEAUuint4@1@PEAVPxVec3@1@PEBV31@PEBUuint3@1@I@Z 00000001800521e0     TriangleMeshBuilder.obj
 0002:0000d1f0       $unwind$??$sort@UEdgeTriLookup@physx@@U?$Less@UEdgeTriLookup@physx@@@shdfnd@2@V?$ReflectionAllocator@UEdgeTriLookup@physx@@@42@@shdfnd@physx@@YAXPEAUEdgeTriLookup@1@IAEBU?$Less@UEdgeTriLookup@physx@@@01@AEBV?$ReflectionAllocator@UEdgeTriLookup@physx@@@01@I@Z 00000001800521f0     TriangleMeshBuilder.obj
 0002:0000d210       $unwind$?precompute@BigConvexDataBuilder@physx@@QEAA_NI@Z 0000000180052210     BigConvexDataBuilder.obj
 0002:0000d228       $chain$10$?precompute@BigConvexDataBuilder@physx@@QEAA_NI@Z 0000000180052228     BigConvexDataBuilder.obj
 0002:0000d264       $chain$11$?precompute@BigConvexDataBuilder@physx@@QEAA_NI@Z 0000000180052264     BigConvexDataBuilder.obj
 0002:0000d274       $unwind$?save@BigConvexDataBuilder@physx@@QEBA_NAEAVPxOutputStream@2@_N@Z 0000000180052274     BigConvexDataBuilder.obj
 0002:0000d284       $chain$0$?save@BigConvexDataBuilder@physx@@QEBA_NAEAVPxOutputStream@2@_N@Z 0000000180052284     BigConvexDataBuilder.obj
 0002:0000d298       $chain$1$?save@BigConvexDataBuilder@physx@@QEBA_NAEAVPxOutputStream@2@_N@Z 0000000180052298     BigConvexDataBuilder.obj
 0002:0000d2ac       $chain$2$?save@BigConvexDataBuilder@physx@@QEBA_NAEAVPxOutputStream@2@_N@Z 00000001800522ac     BigConvexDataBuilder.obj
 0002:0000d2bc       $chain$3$?save@BigConvexDataBuilder@physx@@QEBA_NAEAVPxOutputStream@2@_N@Z 00000001800522bc     BigConvexDataBuilder.obj
 0002:0000d2cc       $unwind$?computeValencies@BigConvexDataBuilder@physx@@QEAA_NAEBVConvexHullBuilder@2@@Z 00000001800522cc     BigConvexDataBuilder.obj
 0002:0000d2e0       $chain$2$?computeValencies@BigConvexDataBuilder@physx@@QEAA_NAEBVConvexHullBuilder@2@@Z 00000001800522e0     BigConvexDataBuilder.obj
 0002:0000d2fc       $chain$3$?computeValencies@BigConvexDataBuilder@physx@@QEAA_NAEBVConvexHullBuilder@2@@Z 00000001800522fc     BigConvexDataBuilder.obj
 0002:0000d30c       $unwind$?init@ConvexHullBuilder@physx@@QEAA_NIPEBVPxVec3@2@PEBIIIPEBUPxHullPolygon@2@_NPEAVConvexHullLib@2@@Z 000000018005230c     ConvexHullBuilder.obj
 0002:0000d324       $chain$0$?init@ConvexHullBuilder@physx@@QEAA_NIPEBVPxVec3@2@PEBIIIPEBUPxHullPolygon@2@_NPEAVConvexHullLib@2@@Z 0000000180052324     ConvexHullBuilder.obj
 0002:0000d338       $chain$2$?init@ConvexHullBuilder@physx@@QEAA_NIPEBVPxVec3@2@PEBIIIPEBUPxHullPolygon@2@_NPEAVConvexHullLib@2@@Z 0000000180052338     ConvexHullBuilder.obj
 0002:0000d350       $chain$7$?init@ConvexHullBuilder@physx@@QEAA_NIPEBVPxVec3@2@PEBIIIPEBUPxHullPolygon@2@_NPEAVConvexHullLib@2@@Z 0000000180052350     ConvexHullBuilder.obj
 0002:0000d374       $chain$9$?init@ConvexHullBuilder@physx@@QEAA_NIPEBVPxVec3@2@PEBIIIPEBUPxHullPolygon@2@_NPEAVConvexHullLib@2@@Z 0000000180052374     ConvexHullBuilder.obj
 0002:0000d38c       $chain$10$?init@ConvexHullBuilder@physx@@QEAA_NIPEBVPxVec3@2@PEBIIIPEBUPxHullPolygon@2@_NPEAVConvexHullLib@2@@Z 000000018005238c     ConvexHullBuilder.obj
 0002:0000d3a0       $chain$11$?init@ConvexHullBuilder@physx@@QEAA_NIPEBVPxVec3@2@PEBIIIPEBUPxHullPolygon@2@_NPEAVConvexHullLib@2@@Z 00000001800523a0     ConvexHullBuilder.obj
 0002:0000d3b0       $chain$12$?init@ConvexHullBuilder@physx@@QEAA_NIPEBVPxVec3@2@PEBIIIPEBUPxHullPolygon@2@_NPEAVConvexHullLib@2@@Z 00000001800523b0     ConvexHullBuilder.obj
 0002:0000d3c0       $chain$13$?init@ConvexHullBuilder@physx@@QEAA_NIPEBVPxVec3@2@PEBIIIPEBUPxHullPolygon@2@_NPEAVConvexHullLib@2@@Z 00000001800523c0     ConvexHullBuilder.obj
 0002:0000d3d0       $chain$14$?init@ConvexHullBuilder@physx@@QEAA_NIPEBVPxVec3@2@PEBIIIPEBUPxHullPolygon@2@_NPEAVConvexHullLib@2@@Z 00000001800523d0     ConvexHullBuilder.obj
 0002:0000d3e0       $chain$15$?init@ConvexHullBuilder@physx@@QEAA_NIPEBVPxVec3@2@PEBIIIPEBUPxHullPolygon@2@_NPEAVConvexHullLib@2@@Z 00000001800523e0     ConvexHullBuilder.obj
 0002:0000d3f0       $chain$16$?init@ConvexHullBuilder@physx@@QEAA_NIPEBVPxVec3@2@PEBIIIPEBUPxHullPolygon@2@_NPEAVConvexHullLib@2@@Z 00000001800523f0     ConvexHullBuilder.obj
 0002:0000d40c       $chain$17$?init@ConvexHullBuilder@physx@@QEAA_NIPEBVPxVec3@2@PEBIIIPEBUPxHullPolygon@2@_NPEAVConvexHullLib@2@@Z 000000018005240c     ConvexHullBuilder.obj
 0002:0000d420       $unwind$?save@ConvexHullBuilder@physx@@QEBA_NAEAVPxOutputStream@2@_N@Z 0000000180052420     ConvexHullBuilder.obj
 0002:0000d430       $chain$0$?save@ConvexHullBuilder@physx@@QEBA_NAEAVPxOutputStream@2@_N@Z 0000000180052430     ConvexHullBuilder.obj
 0002:0000d444       $chain$3$?save@ConvexHullBuilder@physx@@QEBA_NAEAVPxOutputStream@2@_N@Z 0000000180052444     ConvexHullBuilder.obj
 0002:0000d460       $chain$4$?save@ConvexHullBuilder@physx@@QEBA_NAEAVPxOutputStream@2@_N@Z 0000000180052460     ConvexHullBuilder.obj
 0002:0000d474       $chain$5$?save@ConvexHullBuilder@physx@@QEBA_NAEAVPxOutputStream@2@_N@Z 0000000180052474     ConvexHullBuilder.obj
 0002:0000d484       $unwind$?copy@ConvexHullBuilder@physx@@QEAA_NAEAUConvexHullData@Gu@2@AEAI@Z 0000000180052484     ConvexHullBuilder.obj
 0002:0000d484       $unwind$??$copy_and_add_argument_to_buffer@D@@YAHQEBD0_KAEAV?$argument_list@D@?A0x5f5c8891@@@Z 0000000180052484     libucrt:argv_wildcards.obj
 0002:0000d4a0       $unwind$?createEdgeList@ConvexHullBuilder@physx@@QEAA_N_NI@Z 00000001800524a0     ConvexHullBuilder.obj
 0002:0000d4b0       $chain$4$?createEdgeList@ConvexHullBuilder@physx@@QEAA_N_NI@Z 00000001800524b0     ConvexHullBuilder.obj
 0002:0000d4d4       $chain$6$?createEdgeList@ConvexHullBuilder@physx@@QEAA_N_NI@Z 00000001800524d4     ConvexHullBuilder.obj
 0002:0000d4f8       $unwind$?checkHullPolygons@ConvexHullBuilder@physx@@QEBA_NXZ 00000001800524f8     ConvexHullBuilder.obj
 0002:0000d504       $chain$14$?checkHullPolygons@ConvexHullBuilder@physx@@QEBA_NXZ 0000000180052504     ConvexHullBuilder.obj
 0002:0000d550       $chain$16$?checkHullPolygons@ConvexHullBuilder@physx@@QEBA_NXZ 0000000180052550     ConvexHullBuilder.obj
 0002:0000d59c       $chain$17$?checkHullPolygons@ConvexHullBuilder@physx@@QEBA_NXZ 000000018005259c     ConvexHullBuilder.obj
 0002:0000d5ac       $unwind$?calculateVertexMapTable@ConvexHullBuilder@physx@@QEAA_NI_N@Z 00000001800525ac     ConvexHullBuilder.obj
 0002:0000d5c8       $unwind$?computeGeomCenter@ConvexHullBuilder@physx@@IEBA_NAEAVPxVec3@2@IPEAUHullTriangleData@2@@Z 00000001800525c8     ConvexHullBuilder.obj
 0002:0000d5d0       $chain$1$?computeGeomCenter@ConvexHullBuilder@physx@@IEBA_NAEAVPxVec3@2@IPEAUHullTriangleData@2@@Z 00000001800525d0     ConvexHullBuilder.obj
 0002:0000d5e8       $chain$10$?computeGeomCenter@ConvexHullBuilder@physx@@IEBA_NAEAVPxVec3@2@IPEAUHullTriangleData@2@@Z 00000001800525e8     ConvexHullBuilder.obj
 0002:0000d61c       $chain$11$?computeGeomCenter@ConvexHullBuilder@physx@@IEBA_NAEAVPxVec3@2@IPEAUHullTriangleData@2@@Z 000000018005261c     ConvexHullBuilder.obj
 0002:0000d62c       $chain$12$?computeGeomCenter@ConvexHullBuilder@physx@@IEBA_NAEAVPxVec3@2@IPEAUHullTriangleData@2@@Z 000000018005262c     ConvexHullBuilder.obj
 0002:0000d63c       $chain$0$??$?_UE@@YAPEAX_KV?$ReflectionAllocator@E@shdfnd@physx@@PEBDH@Z 000000018005263c     ConvexHullBuilder.obj
 0002:0000d650       $chain$1$??$?_UE@@YAPEAX_KV?$ReflectionAllocator@E@shdfnd@physx@@PEBDH@Z 0000000180052650     ConvexHullBuilder.obj
 0002:0000d660       $unwind$?cleanupVertices@ConvexHullLib@physx@@IEAA_NIPEBVPxVec3@2@IAEAIPEAV32@AEAV32@3@Z 0000000180052660     ConvexHullLib.obj
 0002:0000d688       $chain$6$?cleanupVertices@ConvexHullLib@physx@@IEAA_NIPEBVPxVec3@2@IAEAIPEAV32@AEAV32@3@Z 0000000180052688     ConvexHullLib.obj
 0002:0000d6a0       $chain$12$?cleanupVertices@ConvexHullLib@physx@@IEAA_NIPEBVPxVec3@2@IAEAIPEAV32@AEAV32@3@Z 00000001800526a0     ConvexHullLib.obj
 0002:0000d6c8       $chain$13$?cleanupVertices@ConvexHullLib@physx@@IEAA_NIPEBVPxVec3@2@IAEAIPEAV32@AEAV32@3@Z 00000001800526c8     ConvexHullLib.obj
 0002:0000d6d8       $chain$14$?cleanupVertices@ConvexHullLib@physx@@IEAA_NIPEBVPxVec3@2@IAEAIPEAV32@AEAV32@3@Z 00000001800526d8     ConvexHullLib.obj
 0002:0000d6e8       $unwind$?shiftAndcleanupVertices@ConvexHullLib@physx@@IEAA_NIPEBVPxVec3@2@IAEAIPEAV32@AEAV32@3@Z 00000001800526e8     ConvexHullLib.obj
 0002:0000d6f8       $chain$6$?shiftAndcleanupVertices@ConvexHullLib@physx@@IEAA_NIPEBVPxVec3@2@IAEAIPEAV32@AEAV32@3@Z 00000001800526f8     ConvexHullLib.obj
 0002:0000d724       $chain$7$?shiftAndcleanupVertices@ConvexHullLib@physx@@IEAA_NIPEBVPxVec3@2@IAEAIPEAV32@AEAV32@3@Z 0000000180052724     ConvexHullLib.obj
 0002:0000d748       $chain$12$?shiftAndcleanupVertices@ConvexHullLib@physx@@IEAA_NIPEBVPxVec3@2@IAEAIPEAV32@AEAV32@3@Z 0000000180052748     ConvexHullLib.obj
 0002:0000d76c       $chain$13$?shiftAndcleanupVertices@ConvexHullLib@physx@@IEAA_NIPEBVPxVec3@2@IAEAIPEAV32@AEAV32@3@Z 000000018005276c     ConvexHullLib.obj
 0002:0000d77c       $chain$14$?shiftAndcleanupVertices@ConvexHullLib@physx@@IEAA_NIPEBVPxVec3@2@IAEAIPEAV32@AEAV32@3@Z 000000018005277c     ConvexHullLib.obj
 0002:0000d78c       $unwind$?swapLargestFace@ConvexHullLib@physx@@IEAAXAEAVPxConvexMeshDesc@2@@Z 000000018005278c     ConvexHullLib.obj
 0002:0000d79c       $chain$1$?swapLargestFace@ConvexHullLib@physx@@IEAAXAEAVPxConvexMeshDesc@2@@Z 000000018005279c     ConvexHullLib.obj
 0002:0000d7b4       $chain$2$?swapLargestFace@ConvexHullLib@physx@@IEAAXAEAVPxConvexMeshDesc@2@@Z 00000001800527b4     ConvexHullLib.obj
 0002:0000d7c8       $chain$3$?swapLargestFace@ConvexHullLib@physx@@IEAAXAEAVPxConvexMeshDesc@2@@Z 00000001800527c8     ConvexHullLib.obj
 0002:0000d7d8       $chain$4$?swapLargestFace@ConvexHullLib@physx@@IEAAXAEAVPxConvexMeshDesc@2@@Z 00000001800527d8     ConvexHullLib.obj
 0002:0000d7e8       $unwind$?checkPointsAABBValidity@local@@YA_NIPEBVPxVec3@physx@@IMMAEAV23@1AEAIPEAV23@_N@Z 00000001800527e8     ConvexHullLib.obj
 0002:0000d804       $chain$5$?checkPointsAABBValidity@local@@YA_NIPEBVPxVec3@physx@@IMMAEAV23@1AEAIPEAV23@_N@Z 0000000180052804     ConvexHullLib.obj
 0002:0000d82c       $chain$6$?checkPointsAABBValidity@local@@YA_NIPEBVPxVec3@physx@@IMMAEAV23@1AEAIPEAV23@_N@Z 000000018005282c     ConvexHullLib.obj
 0002:0000d83c       $unwind$??0PxQuat@physx@@QEAA@AEBVPxMat33@1@@Z 000000018005283c     ConvexHullUtils.obj
 0002:0000d83c       $unwind$?UScore@UnDecorator@@SA?AUStringLiteral@@W4Tokens@@@Z 000000018005283c     libvcruntime:undname.obj
 0002:0000d844       $chain$0$??0PxQuat@physx@@QEAA@AEBVPxMat33@1@@Z 0000000180052844     ConvexHullUtils.obj
 0002:0000d858       $chain$1$??0PxQuat@physx@@QEAA@AEBVPxMat33@1@@Z 0000000180052858     ConvexHullUtils.obj
 0002:0000d868       $unwind$?getInverse@PxMat33@physx@@QEBA?BV12@XZ 0000000180052868     ConvexHullUtils.obj
 0002:0000d888       $chain$1$?getInverse@PxMat33@physx@@QEBA?BV12@XZ 0000000180052888     ConvexHullUtils.obj
 0002:0000d8a0       $chain$2$?getInverse@PxMat33@physx@@QEBA?BV12@XZ 00000001800528a0     ConvexHullUtils.obj
 0002:0000d8b0       $unwind$??0ConvexHull@physx@@QEAA@AEBVPxVec3@1@AEBVPxTransform@1@AEBV?$Array@VPxPlane@physx@@V?$ReflectionAllocator@VPxPlane@physx@@@shdfnd@2@@shdfnd@1@@Z 00000001800528b0     ConvexHullUtils.obj
 0002:0000d8e8       $unwind$?findCandidatePlane@ConvexHull@physx@@QEBAHMM@Z 00000001800528e8     ConvexHullUtils.obj
 0002:0000d900       $chain$11$?findCandidatePlane@ConvexHull@physx@@QEBAHMM@Z 0000000180052900     ConvexHullUtils.obj
 0002:0000d940       $chain$12$?findCandidatePlane@ConvexHull@physx@@QEBAHMM@Z 0000000180052940     ConvexHullUtils.obj
 0002:0000d950       $chain$13$?findCandidatePlane@ConvexHull@physx@@QEBAHMM@Z 0000000180052950     ConvexHullUtils.obj
 0002:0000d990       $unwind$?assertIntact@ConvexHull@physx@@QEBA_NM@Z 0000000180052990     ConvexHullUtils.obj
 0002:0000d9d4       $unwind$?maxNumVertsPerFace@ConvexHull@physx@@QEBAIXZ 00000001800529d4     ConvexHullUtils.obj
 0002:0000d9e0       $chain$0$?maxNumVertsPerFace@ConvexHull@physx@@QEBAIXZ 00000001800529e0     ConvexHullUtils.obj
 0002:0000d9f4       $chain$1$?maxNumVertsPerFace@ConvexHull@physx@@QEBAIXZ 00000001800529f4     ConvexHullUtils.obj
 0002:0000da04       $chain$1$?allocate@?$Array@VHalfEdge@ConvexHull@physx@@V?$ReflectionAllocator@VHalfEdge@ConvexHull@physx@@@shdfnd@3@@shdfnd@physx@@IEAAPEAVHalfEdge@ConvexHull@3@I@Z 0000000180052a04     ConvexHullUtils.obj
 0002:0000da1c       $chain$3$?allocate@?$Array@VHalfEdge@ConvexHull@physx@@V?$ReflectionAllocator@VHalfEdge@ConvexHull@physx@@@shdfnd@3@@shdfnd@physx@@IEAAPEAVHalfEdge@ConvexHull@3@I@Z 0000000180052a1c     ConvexHullUtils.obj
 0002:0000da30       $chain$4$?allocate@?$Array@VHalfEdge@ConvexHull@physx@@V?$ReflectionAllocator@VHalfEdge@ConvexHull@physx@@@shdfnd@3@@shdfnd@physx@@IEAAPEAVHalfEdge@ConvexHull@3@I@Z 0000000180052a30     ConvexHullUtils.obj
 0002:0000da40       $chain$0$?recreate@?$Array@VHalfEdge@ConvexHull@physx@@V?$ReflectionAllocator@VHalfEdge@ConvexHull@physx@@@shdfnd@3@@shdfnd@physx@@IEAAXI@Z 0000000180052a40     ConvexHullUtils.obj
 0002:0000da54       $chain$1$?recreate@?$Array@VHalfEdge@ConvexHull@physx@@V?$ReflectionAllocator@VHalfEdge@ConvexHull@physx@@@shdfnd@3@@shdfnd@physx@@IEAAXI@Z 0000000180052a54     ConvexHullUtils.obj
 0002:0000da64       $chain$1$?allocate@?$Array@VPxPlane@physx@@V?$ReflectionAllocator@VPxPlane@physx@@@shdfnd@2@@shdfnd@physx@@IEAAPEAVPxPlane@3@I@Z 0000000180052a64     ConvexHullUtils.obj
 0002:0000da7c       $chain$3$?allocate@?$Array@VPxPlane@physx@@V?$ReflectionAllocator@VPxPlane@physx@@@shdfnd@2@@shdfnd@physx@@IEAAPEAVPxPlane@3@I@Z 0000000180052a7c     ConvexHullUtils.obj
 0002:0000da90       $chain$4$?allocate@?$Array@VPxPlane@physx@@V?$ReflectionAllocator@VPxPlane@physx@@@shdfnd@2@@shdfnd@physx@@IEAAPEAVPxPlane@3@I@Z 0000000180052a90     ConvexHullUtils.obj
 0002:0000daa0       $chain$0$?recreate@?$Array@VPxPlane@physx@@V?$ReflectionAllocator@VPxPlane@physx@@@shdfnd@2@@shdfnd@physx@@IEAAXI@Z 0000000180052aa0     ConvexHullUtils.obj
 0002:0000dab4       $chain$1$?recreate@?$Array@VPxPlane@physx@@V?$ReflectionAllocator@VPxPlane@physx@@@shdfnd@2@@shdfnd@physx@@IEAAXI@Z 0000000180052ab4     ConvexHullUtils.obj
 0002:0000dac4       $unwind$?convexHullCrop@physx@@YAPEAVConvexHull@1@AEBV21@AEBVPxPlane@1@M@Z 0000000180052ac4     ConvexHullUtils.obj
 0002:0000dad4       $chain$5$?convexHullCrop@physx@@YAPEAVConvexHull@1@AEBV21@AEBVPxPlane@1@M@Z 0000000180052ad4     ConvexHullUtils.obj
 0002:0000dafc       $chain$6$?convexHullCrop@physx@@YAPEAVConvexHull@1@AEBV21@AEBVPxPlane@1@M@Z 0000000180052afc     ConvexHullUtils.obj
 0002:0000db10       $chain$7$?convexHullCrop@physx@@YAPEAVConvexHull@1@AEBV21@AEBVPxPlane@1@M@Z 0000000180052b10     ConvexHullUtils.obj
 0002:0000db10       $chain$9$?convexHullCrop@physx@@YAPEAVConvexHull@1@AEBV21@AEBVPxPlane@1@M@Z 0000000180052b10     ConvexHullUtils.obj
 0002:0000db20       $chain$8$?convexHullCrop@physx@@YAPEAVConvexHull@1@AEBV21@AEBVPxPlane@1@M@Z 0000000180052b20     ConvexHullUtils.obj
 0002:0000db34       $chain$10$?convexHullCrop@physx@@YAPEAVConvexHull@1@AEBV21@AEBVPxPlane@1@M@Z 0000000180052b34     ConvexHullUtils.obj
 0002:0000db44       $unwind$?computeOBBFromConvex@physx@@YA_NAEBVPxConvexMeshDesc@1@AEAVPxVec3@1@AEAVPxTransform@1@@Z 0000000180052b44     ConvexHullUtils.obj
 0002:0000db68       $chain$7$?computeOBBFromConvex@physx@@YA_NAEBVPxConvexMeshDesc@1@AEAVPxVec3@1@AEAVPxTransform@1@@Z 0000000180052b68     ConvexHullUtils.obj
 0002:0000db98       $chain$8$?computeOBBFromConvex@physx@@YA_NAEBVPxConvexMeshDesc@1@AEAVPxVec3@1@AEAVPxTransform@1@@Z 0000000180052b98     ConvexHullUtils.obj
 0002:0000dba8       $unwind$?rotate@Box@Gu@physx@@QEBA?AVPxVec3@3@AEBV43@@Z 0000000180052ba8     ConvexHullUtils.obj
 0002:0000dbb4       $unwind$?rotateInv@Box@Gu@physx@@QEBA?AVPxVec3@3@AEBV43@@Z 0000000180052bb4     ConvexHullUtils.obj
 0002:0000dbb4       $unwind$?transform@Box@Gu@physx@@QEBA?AVPxVec3@3@AEBV43@@Z 0000000180052bb4     ConvexHullUtils.obj
 0002:0000dbc0       $unwind$?computeAABBExtent@Box@Gu@physx@@QEBA?AVPxVec3@3@XZ 0000000180052bc0     ConvexHullUtils.obj
 0002:0000dbcc       $unwind$?build@ConvexMeshBuilder@physx@@QEAA_NAEBVPxConvexMeshDesc@2@I_NPEAVConvexHullLib@2@@Z 0000000180052bcc     ConvexMeshBuilder.obj
 0002:0000dbdc       $chain$0$?build@ConvexMeshBuilder@physx@@QEAA_NAEBVPxConvexMeshDesc@2@I_NPEAVConvexHullLib@2@@Z 0000000180052bdc     ConvexMeshBuilder.obj
 0002:0000dbf0       $chain$2$?build@ConvexMeshBuilder@physx@@QEAA_NAEBVPxConvexMeshDesc@2@I_NPEAVConvexHullLib@2@@Z 0000000180052bf0     ConvexMeshBuilder.obj
 0002:0000dc08       $chain$3$?build@ConvexMeshBuilder@physx@@QEAA_NAEBVPxConvexMeshDesc@2@I_NPEAVConvexHullLib@2@@Z 0000000180052c08     ConvexMeshBuilder.obj
 0002:0000dc18       $chain$4$?build@ConvexMeshBuilder@physx@@QEAA_NAEBVPxConvexMeshDesc@2@I_NPEAVConvexHullLib@2@@Z 0000000180052c18     ConvexMeshBuilder.obj
 0002:0000dc28       $unwind$?save@ConvexMeshBuilder@physx@@QEBA_NAEAVPxOutputStream@2@_N@Z 0000000180052c28     ConvexMeshBuilder.obj
 0002:0000dc38       $chain$0$?save@ConvexMeshBuilder@physx@@QEBA_NAEAVPxOutputStream@2@_N@Z 0000000180052c38     ConvexMeshBuilder.obj
 0002:0000dc4c       $chain$1$?save@ConvexMeshBuilder@physx@@QEBA_NAEAVPxOutputStream@2@_N@Z 0000000180052c4c     ConvexMeshBuilder.obj
 0002:0000dc5c       $unwind$?loadConvexHull@ConvexMeshBuilder@physx@@QEAA_NAEBVPxConvexMeshDesc@2@PEAVConvexHullLib@2@@Z 0000000180052c5c     ConvexMeshBuilder.obj
 0002:0000dc7c       $unwind$?computeHullPolygons@ConvexMeshBuilder@physx@@QEAA_NAEBIPEBVPxVec3@2@0PEBIAEAVPxAllocatorCallback@2@AEAIAEAPEAV32@4AEAPEAI4AEAPEAUPxHullPolygon@2@@Z 0000000180052c7c     ConvexMeshBuilder.obj
 0002:0000dc88       $chain$3$?computeHullPolygons@ConvexMeshBuilder@physx@@QEAA_NAEBIPEBVPxVec3@2@0PEBIAEAVPxAllocatorCallback@2@AEAIAEAPEAV32@4AEAPEAI4AEAPEAUPxHullPolygon@2@@Z 0000000180052c88     ConvexMeshBuilder.obj
 0002:0000dca4       $chain$4$?computeHullPolygons@ConvexMeshBuilder@physx@@QEAA_NAEBIPEBVPxVec3@2@0PEBIAEAVPxAllocatorCallback@2@AEAIAEAPEAV32@4AEAPEAI4AEAPEAUPxHullPolygon@2@@Z 0000000180052ca4     ConvexMeshBuilder.obj
 0002:0000dcb8       $unwind$?computeMassInfo@ConvexMeshBuilder@physx@@QEAAX_N@Z 0000000180052cb8     ConvexMeshBuilder.obj
 0002:0000dcc8       $chain$0$?computeMassInfo@ConvexMeshBuilder@physx@@QEAAX_N@Z 0000000180052cc8     ConvexMeshBuilder.obj
 0002:0000dcdc       $chain$1$?computeMassInfo@ConvexMeshBuilder@physx@@QEAAX_N@Z 0000000180052cdc     ConvexMeshBuilder.obj
 0002:0000dcf0       $chain$5$?computeMassInfo@ConvexMeshBuilder@physx@@QEAAX_N@Z 0000000180052cf0     ConvexMeshBuilder.obj
 0002:0000dd10       $chain$6$?computeMassInfo@ConvexMeshBuilder@physx@@QEAAX_N@Z 0000000180052d10     ConvexMeshBuilder.obj
 0002:0000dd20       $chain$7$?computeMassInfo@ConvexMeshBuilder@physx@@QEAAX_N@Z 0000000180052d20     ConvexMeshBuilder.obj
 0002:0000dd30       $chain$8$?computeMassInfo@ConvexMeshBuilder@physx@@QEAAX_N@Z 0000000180052d30     ConvexMeshBuilder.obj
 0002:0000dd40       $unwind$?ComputeInternalExtent@@YAXAEAUConvexHullData@Gu@physx@@PEBUHullPolygonData@23@@Z 0000000180052d40     ConvexMeshBuilder.obj
 0002:0000dd6c       $chain$0$?ComputeInternalExtent@@YAXAEAUConvexHullData@Gu@physx@@PEBUHullPolygonData@23@@Z 0000000180052d6c     ConvexMeshBuilder.obj
 0002:0000dd80       $chain$1$?ComputeInternalExtent@@YAXAEAUConvexHullData@Gu@physx@@PEBUHullPolygonData@23@@Z 0000000180052d80     ConvexMeshBuilder.obj
 0002:0000dd90       $unwind$?computeHullPolygons@ConvexPolygonsBuilder@physx@@QEAA_NAEBIPEBVPxVec3@2@0PEBI@Z 0000000180052d90     ConvexPolygonsBuilder.obj
 0002:0000ddb4       $chain$0$?computeHullPolygons@ConvexPolygonsBuilder@physx@@QEAA_NAEBIPEBVPxVec3@2@0PEBI@Z 0000000180052db4     ConvexPolygonsBuilder.obj
 0002:0000ddc8       $chain$8$?computeHullPolygons@ConvexPolygonsBuilder@physx@@QEAA_NAEBIPEBVPxVec3@2@0PEBI@Z 0000000180052dc8     ConvexPolygonsBuilder.obj
 0002:0000ddf8       $chain$9$?computeHullPolygons@ConvexPolygonsBuilder@physx@@QEAA_NAEBIPEBVPxVec3@2@0PEBI@Z 0000000180052df8     ConvexPolygonsBuilder.obj
 0002:0000de28       $unwind$?createPolygonData@ConvexPolygonsBuilder@physx@@AEAA_NXZ 0000000180052e28     ConvexPolygonsBuilder.obj
 0002:0000de38       $chain$0$?createPolygonData@ConvexPolygonsBuilder@physx@@AEAA_NXZ 0000000180052e38     ConvexPolygonsBuilder.obj
 0002:0000de4c       $chain$6$?createPolygonData@ConvexPolygonsBuilder@physx@@AEAA_NXZ 0000000180052e4c     ConvexPolygonsBuilder.obj
 0002:0000de74       $chain$7$?createPolygonData@ConvexPolygonsBuilder@physx@@AEAA_NXZ 0000000180052e74     ConvexPolygonsBuilder.obj
 0002:0000de84       $chain$8$?createPolygonData@ConvexPolygonsBuilder@physx@@AEAA_NXZ 0000000180052e84     ConvexPolygonsBuilder.obj
 0002:0000de94       $chain$9$?createPolygonData@ConvexPolygonsBuilder@physx@@AEAA_NXZ 0000000180052e94     ConvexPolygonsBuilder.obj
 0002:0000dec0       $chain$17$?createPolygonData@ConvexPolygonsBuilder@physx@@AEAA_NXZ 0000000180052ec0     ConvexPolygonsBuilder.obj
 0002:0000def0       $chain$18$?createPolygonData@ConvexPolygonsBuilder@physx@@AEAA_NXZ 0000000180052ef0     ConvexPolygonsBuilder.obj
 0002:0000df00       $unwind$?createTrianglesFromPolygons@ConvexPolygonsBuilder@physx@@AEAA_NXZ 0000000180052f00     ConvexPolygonsBuilder.obj
 0002:0000df24       $chain$3$?createTrianglesFromPolygons@ConvexPolygonsBuilder@physx@@AEAA_NXZ 0000000180052f24     ConvexPolygonsBuilder.obj
 0002:0000df44       $chain$4$?createTrianglesFromPolygons@ConvexPolygonsBuilder@physx@@AEAA_NXZ 0000000180052f44     ConvexPolygonsBuilder.obj
 0002:0000df54       $unwind$?findLineStrip@@YA_NAEAV?$Array@IV?$ReflectionAllocator@I@shdfnd@physx@@@shdfnd@physx@@AEBV?$Array@VPair@@V?$ReflectionAllocator@VPair@@@shdfnd@physx@@@23@@Z 0000000180052f54     ConvexPolygonsBuilder.obj
 0002:0000df60       $chain$3$?findLineStrip@@YA_NAEAV?$Array@IV?$ReflectionAllocator@I@shdfnd@physx@@@shdfnd@physx@@AEBV?$Array@VPair@@V?$ReflectionAllocator@VPair@@@shdfnd@physx@@@23@@Z 0000000180052f60     ConvexPolygonsBuilder.obj
 0002:0000df80       $chain$5$?findLineStrip@@YA_NAEAV?$Array@IV?$ReflectionAllocator@I@shdfnd@physx@@@shdfnd@physx@@AEBV?$Array@VPair@@V?$ReflectionAllocator@VPair@@@shdfnd@physx@@@23@@Z 0000000180052f80     ConvexPolygonsBuilder.obj
 0002:0000df98       $chain$6$?findLineStrip@@YA_NAEAV?$Array@IV?$ReflectionAllocator@I@shdfnd@physx@@@shdfnd@physx@@AEBV?$Array@VPair@@V?$ReflectionAllocator@VPair@@@shdfnd@physx@@@23@@Z 0000000180052f98     ConvexPolygonsBuilder.obj
 0002:0000dfa8       $chain$7$?findLineStrip@@YA_NAEAV?$Array@IV?$ReflectionAllocator@I@shdfnd@physx@@@shdfnd@physx@@AEBV?$Array@VPair@@V?$ReflectionAllocator@VPair@@@shdfnd@physx@@@23@@Z 0000000180052fa8     ConvexPolygonsBuilder.obj
 0002:0000dfd0       $chain$1$?allocate@?$Array@VPair@@V?$ReflectionAllocator@VPair@@@shdfnd@physx@@@shdfnd@physx@@IEAAPEAVPair@@I@Z 0000000180052fd0     ConvexPolygonsBuilder.obj
 0002:0000dfe8       $chain$3$?allocate@?$Array@VPair@@V?$ReflectionAllocator@VPair@@@shdfnd@physx@@@shdfnd@physx@@IEAAPEAVPair@@I@Z 0000000180052fe8     ConvexPolygonsBuilder.obj
 0002:0000dffc       $chain$4$?allocate@?$Array@VPair@@V?$ReflectionAllocator@VPair@@@shdfnd@physx@@@shdfnd@physx@@IEAAPEAVPair@@I@Z 0000000180052ffc     ConvexPolygonsBuilder.obj
 0002:0000e00c       $unwind$?TestDuplicateTriangles@@YA_NAEAIPEAU?$TriangleT@I@Gu@physx@@_N@Z 000000018005300c     ConvexPolygonsBuilder.obj
 0002:0000e028       $unwind$?checkRedundantVertices@@YAXAEAIAEAV?$Array@IV?$ReflectionAllocator@I@shdfnd@physx@@@shdfnd@physx@@AEBVConvexPolygonsBuilder@3@11@Z 0000000180053028     ConvexPolygonsBuilder.obj
 0002:0000e044       $unwind$?extractHullPolygons@@YA_NAEAIAEAV?$Array@IV?$ReflectionAllocator@I@shdfnd@physx@@@shdfnd@physx@@AEBVConvexPolygonsBuilder@3@PEAV123@1@Z 0000000180053044     ConvexPolygonsBuilder.obj
 0002:0000e060       $unwind$?FloodFill@Local@?7??extractHullPolygons@@YA_NAEAIAEAV?$Array@IV?$ReflectionAllocator@I@shdfnd@physx@@@shdfnd@physx@@AEBVConvexPolygonsBuilder@5@PEAV345@1@Z@SAX1PEBVAdjTriangle@5@IPEA_N@Z 0000000180053060     ConvexPolygonsBuilder.obj
 0002:0000e070       $chain$0$?FloodFill@Local@?7??extractHullPolygons@@YA_NAEAIAEAV?$Array@IV?$ReflectionAllocator@I@shdfnd@physx@@@shdfnd@physx@@AEBVConvexPolygonsBuilder@5@PEAV345@1@Z@SAX1PEBVAdjTriangle@5@IPEA_N@Z 0000000180053070     ConvexPolygonsBuilder.obj
 0002:0000e084       $chain$1$?FloodFill@Local@?7??extractHullPolygons@@YA_NAEAIAEAV?$Array@IV?$ReflectionAllocator@I@shdfnd@physx@@@shdfnd@physx@@AEBVConvexPolygonsBuilder@5@PEAV345@1@Z@SAX1PEBVAdjTriangle@5@IPEA_N@Z 0000000180053084     ConvexPolygonsBuilder.obj
 0002:0000e094       $unwind$?CheckFloodFillFace@Local@?7??extractHullPolygons@@YA_NAEAIAEAV?$Array@IV?$ReflectionAllocator@I@shdfnd@physx@@@shdfnd@physx@@AEBVConvexPolygonsBuilder@5@PEAV345@1@Z@SA_NIPEBVAdjTriangle@5@PEBI@Z 0000000180053094     ConvexPolygonsBuilder.obj
 0002:0000e0ac       $unwind$?createConvexHull@QuickHullConvexHullLib@physx@@UEAA?AW4Enum@PxConvexMeshCookingResult@2@XZ 00000001800530ac     QuickHullConvexHullLib.obj
 0002:0000e0c4       $unwind$?createEdgeList@QuickHullConvexHullLib@physx@@UEAA_NIPEBEPEAPEAEPEAPEAG2@Z 00000001800530c4     QuickHullConvexHullLib.obj
 0002:0000e0e4       $unwind$?expandHullOBB@QuickHullConvexHullLib@physx@@IEAA?AW4Enum@PxConvexMeshCookingResult@2@XZ 00000001800530e4     QuickHullConvexHullLib.obj
 0002:0000e0f0       $chain$4$?expandHullOBB@QuickHullConvexHullLib@physx@@IEAA?AW4Enum@PxConvexMeshCookingResult@2@XZ 00000001800530f0     QuickHullConvexHullLib.obj
 0002:0000e114       $chain$5$?expandHullOBB@QuickHullConvexHullLib@physx@@IEAA?AW4Enum@PxConvexMeshCookingResult@2@XZ 0000000180053114     QuickHullConvexHullLib.obj
 0002:0000e128       $chain$6$?expandHullOBB@QuickHullConvexHullLib@physx@@IEAA?AW4Enum@PxConvexMeshCookingResult@2@XZ 0000000180053128     QuickHullConvexHullLib.obj
 0002:0000e138       $chain$7$?expandHullOBB@QuickHullConvexHullLib@physx@@IEAA?AW4Enum@PxConvexMeshCookingResult@2@XZ 0000000180053138     QuickHullConvexHullLib.obj
 0002:0000e148       $unwind$?expandHull@QuickHullConvexHullLib@physx@@IEAA?AW4Enum@PxConvexMeshCookingResult@2@XZ 0000000180053148     QuickHullConvexHullLib.obj
 0002:0000e16c       $unwind$?cleanupForSimplex@QuickHullConvexHullLib@physx@@IEAA_NPEAVPxVec3@2@IPEAUQuickHullVertex@local@@1AEAM2@Z 000000018005316c     QuickHullConvexHullLib.obj
 0002:0000e190       $chain$4$?cleanupForSimplex@QuickHullConvexHullLib@physx@@IEAA_NPEAVPxVec3@2@IPEAUQuickHullVertex@local@@1AEAM2@Z 0000000180053190     QuickHullConvexHullLib.obj
 0002:0000e1b4       $chain$6$?cleanupForSimplex@QuickHullConvexHullLib@physx@@IEAA_NPEAVPxVec3@2@IPEAUQuickHullVertex@local@@1AEAM2@Z 00000001800531b4     QuickHullConvexHullLib.obj
 0002:0000e1cc       $chain$7$?cleanupForSimplex@QuickHullConvexHullLib@physx@@IEAA_NPEAVPxVec3@2@IPEAUQuickHullVertex@local@@1AEAM2@Z 00000001800531cc     QuickHullConvexHullLib.obj
 0002:0000e1e0       $chain$8$?cleanupForSimplex@QuickHullConvexHullLib@physx@@IEAA_NPEAVPxVec3@2@IPEAUQuickHullVertex@local@@1AEAM2@Z 00000001800531e0     QuickHullConvexHullLib.obj
 0002:0000e1f4       $chain$9$?cleanupForSimplex@QuickHullConvexHullLib@physx@@IEAA_NPEAVPxVec3@2@IPEAUQuickHullVertex@local@@1AEAM2@Z 00000001800531f4     QuickHullConvexHullLib.obj
 0002:0000e204       $chain$10$?cleanupForSimplex@QuickHullConvexHullLib@physx@@IEAA_NPEAVPxVec3@2@IPEAUQuickHullVertex@local@@1AEAM2@Z 0000000180053204     QuickHullConvexHullLib.obj
 0002:0000e214       $chain$11$?cleanupForSimplex@QuickHullConvexHullLib@physx@@IEAA_NPEAVPxVec3@2@IPEAUQuickHullVertex@local@@1AEAM2@Z 0000000180053214     QuickHullConvexHullLib.obj
 0002:0000e224       $chain$12$?cleanupForSimplex@QuickHullConvexHullLib@physx@@IEAA_NPEAVPxVec3@2@IPEAUQuickHullVertex@local@@1AEAM2@Z 0000000180053224     QuickHullConvexHullLib.obj
 0002:0000e234       $unwind$?fillConvexMeshDescFromQuickHull@QuickHullConvexHullLib@physx@@IEAAXAEAVPxConvexMeshDesc@2@@Z 0000000180053234     QuickHullConvexHullLib.obj
 0002:0000e24c       $unwind$?fillConvexMeshDescFromCroppedHull@QuickHullConvexHullLib@physx@@IEAAXAEAVPxConvexMeshDesc@2@@Z 000000018005324c     QuickHullConvexHullLib.obj
 0002:0000e264       $chain$0$??_GConvexHull@physx@@QEAAPEAXI@Z 0000000180053264     QuickHullConvexHullLib.obj
 0002:0000e278       $chain$1$??_GConvexHull@physx@@QEAAPEAXI@Z 0000000180053278     QuickHullConvexHullLib.obj
 0002:0000e288       $unwind$?mergeAdjacentFace@QuickHullFace@local@@QEAA_NPEAUQuickHullHalfEdge@2@AEAV?$Array@PEAUQuickHullFace@local@@V?$ReflectionAllocator@PEAUQuickHullFace@local@@@shdfnd@physx@@@shdfnd@physx@@@Z 0000000180053288     QuickHullConvexHullLib.obj
 0002:0000e2a0       $chain$4$?mergeAdjacentFace@QuickHullFace@local@@QEAA_NPEAUQuickHullHalfEdge@2@AEAV?$Array@PEAUQuickHullFace@local@@V?$ReflectionAllocator@PEAUQuickHullFace@local@@@shdfnd@physx@@@shdfnd@physx@@@Z 00000001800532a0     QuickHullConvexHullLib.obj
 0002:0000e2c4       $chain$5$?mergeAdjacentFace@QuickHullFace@local@@QEAA_NPEAUQuickHullHalfEdge@2@AEAV?$Array@PEAUQuickHullFace@local@@V?$ReflectionAllocator@PEAUQuickHullFace@local@@@shdfnd@physx@@@shdfnd@physx@@@Z 00000001800532c4     QuickHullConvexHullLib.obj
 0002:0000e2c4       $chain$8$?mergeAdjacentFace@QuickHullFace@local@@QEAA_NPEAUQuickHullHalfEdge@2@AEAV?$Array@PEAUQuickHullFace@local@@V?$ReflectionAllocator@PEAUQuickHullFace@local@@@shdfnd@physx@@@shdfnd@physx@@@Z 00000001800532c4     QuickHullConvexHullLib.obj
 0002:0000e2d4       $chain$6$?mergeAdjacentFace@QuickHullFace@local@@QEAA_NPEAUQuickHullHalfEdge@2@AEAV?$Array@PEAUQuickHullFace@local@@V?$ReflectionAllocator@PEAUQuickHullFace@local@@@shdfnd@physx@@@shdfnd@physx@@@Z 00000001800532d4     QuickHullConvexHullLib.obj
 0002:0000e2f8       $chain$7$?mergeAdjacentFace@QuickHullFace@local@@QEAA_NPEAUQuickHullHalfEdge@2@AEAV?$Array@PEAUQuickHullFace@local@@V?$ReflectionAllocator@PEAUQuickHullFace@local@@@shdfnd@physx@@@shdfnd@physx@@@Z 00000001800532f8     QuickHullConvexHullLib.obj
 0002:0000e30c       $unwind$?connectHalfEdges@QuickHullFace@local@@AEAAPEAU12@PEAUQuickHullHalfEdge@2@0@Z 000000018005330c     QuickHullConvexHullLib.obj
 0002:0000e314       $chain$0$?connectHalfEdges@QuickHullFace@local@@AEAAPEAU12@PEAUQuickHullHalfEdge@2@0@Z 0000000180053314     QuickHullConvexHullLib.obj
 0002:0000e328       $chain$4$?connectHalfEdges@QuickHullFace@local@@AEAAPEAU12@PEAUQuickHullHalfEdge@2@0@Z 0000000180053328     QuickHullConvexHullLib.obj
 0002:0000e348       $chain$5$?connectHalfEdges@QuickHullFace@local@@AEAAPEAU12@PEAUQuickHullHalfEdge@2@0@Z 0000000180053348     QuickHullConvexHullLib.obj
 0002:0000e358       $chain$6$?connectHalfEdges@QuickHullFace@local@@AEAAPEAU12@PEAUQuickHullHalfEdge@2@0@Z 0000000180053358     QuickHullConvexHullLib.obj
 0002:0000e368       $unwind$?parseInputVertices@QuickHull@local@@QEAAXPEBVPxVec3@physx@@I@Z 0000000180053368     QuickHullConvexHullLib.obj
 0002:0000e378       $chain$0$?parseInputVertices@QuickHull@local@@QEAAXPEBVPxVec3@physx@@I@Z 0000000180053378     QuickHullConvexHullLib.obj
 0002:0000e38c       $chain$1$?parseInputVertices@QuickHull@local@@QEAAXPEBVPxVec3@physx@@I@Z 000000018005338c     QuickHullConvexHullLib.obj
 0002:0000e39c       $unwind$?buildHull@QuickHull@local@@QEAA?AW4Enum@QuickHullResult@2@XZ 000000018005339c     QuickHullConvexHullLib.obj
 0002:0000e3b0       $unwind$?computeMinMaxVerts@QuickHull@local@@IEAAXXZ 00000001800533b0     QuickHullConvexHullLib.obj
 0002:0000e3bc       $unwind$?findSimplex@QuickHull@local@@IEAA_NXZ 00000001800533bc     QuickHullConvexHullLib.obj
 0002:0000e3d0       $chain$8$?findSimplex@QuickHull@local@@IEAA_NXZ 00000001800533d0     QuickHullConvexHullLib.obj
 0002:0000e404       $chain$12$?findSimplex@QuickHull@local@@IEAA_NXZ 0000000180053404     QuickHullConvexHullLib.obj
 0002:0000e424       $chain$13$?findSimplex@QuickHull@local@@IEAA_NXZ 0000000180053424     QuickHullConvexHullLib.obj
 0002:0000e424       $chain$15$?findSimplex@QuickHull@local@@IEAA_NXZ 0000000180053424     QuickHullConvexHullLib.obj
 0002:0000e458       $chain$14$?findSimplex@QuickHull@local@@IEAA_NXZ 0000000180053458     QuickHullConvexHullLib.obj
 0002:0000e49c       $chain$16$?findSimplex@QuickHull@local@@IEAA_NXZ 000000018005349c     QuickHullConvexHullLib.obj
 0002:0000e4ac       $unwind$?addSimplex@QuickHull@local@@IEAAXPEAUQuickHullVertex@2@_N@Z 00000001800534ac     QuickHullConvexHullLib.obj
 0002:0000e4c0       $chain$2$?addSimplex@QuickHull@local@@IEAAXPEAUQuickHullVertex@2@_N@Z 00000001800534c0     QuickHullConvexHullLib.obj
 0002:0000e4dc       $chain$8$?addSimplex@QuickHull@local@@IEAAXPEAUQuickHullVertex@2@_N@Z 00000001800534dc     QuickHullConvexHullLib.obj
 0002:0000e500       $chain$3$?addSimplex@QuickHull@local@@IEAAXPEAUQuickHullVertex@2@_N@Z 0000000180053500     QuickHullConvexHullLib.obj
 0002:0000e510       $unwind$?nextPointToAdd@QuickHull@local@@IEAAPEAUQuickHullVertex@2@AEAPEAUQuickHullFace@2@@Z 0000000180053510     QuickHullConvexHullLib.obj
 0002:0000e524       $unwind$?addPointToHull@QuickHull@local@@IEAA_NPEBUQuickHullVertex@2@AEAUQuickHullFace@2@AEA_N@Z 0000000180053524     QuickHullConvexHullLib.obj
 0002:0000e538       $chain$1$?addPointToHull@QuickHull@local@@IEAA_NPEBUQuickHullVertex@2@AEAUQuickHullFace@2@AEA_N@Z 0000000180053538     QuickHullConvexHullLib.obj
 0002:0000e550       $chain$2$?addPointToHull@QuickHull@local@@IEAA_NPEBUQuickHullVertex@2@AEAUQuickHullFace@2@AEA_N@Z 0000000180053550     QuickHullConvexHullLib.obj
 0002:0000e564       $unwind$?createTriangle@QuickHull@local@@IEAAPEAUQuickHullFace@2@AEBUQuickHullVertex@2@00@Z 0000000180053564     QuickHullConvexHullLib.obj
 0002:0000e58c       $unwind$?calculateHorizon@QuickHull@local@@IEAAXAEBVPxVec3@physx@@PEAUQuickHullHalfEdge@2@AEAUQuickHullFace@2@AEAV?$Array@PEAUQuickHullHalfEdge@local@@V?$ReflectionAllocator@PEAUQuickHullHalfEdge@local@@@shdfnd@physx@@@shdfnd@4@AEAV?$Array@PEAUQuickHullFace@local@@V?$ReflectionAllocator@PEAUQuickHullFace@local@@@shdfnd@physx@@@84@@Z 000000018005358c     QuickHullConvexHullLib.obj
 0002:0000e5a4       $unwind$?doAdjacentMerge@QuickHull@local@@IEAA_NAEAUQuickHullFace@2@_NAEA_N@Z 00000001800535a4     QuickHullConvexHullLib.obj
 0002:0000e5b4       $chain$1$?doAdjacentMerge@QuickHull@local@@IEAA_NAEAUQuickHullFace@2@_NAEA_N@Z 00000001800535b4     QuickHullConvexHullLib.obj
 0002:0000e5cc       $chain$2$?doAdjacentMerge@QuickHull@local@@IEAA_NAEAUQuickHullFace@2@_NAEA_N@Z 00000001800535cc     QuickHullConvexHullLib.obj
 0002:0000e5e0       $chain$3$?doAdjacentMerge@QuickHull@local@@IEAA_NAEAUQuickHullFace@2@_NAEA_N@Z 00000001800535e0     QuickHullConvexHullLib.obj
 0002:0000e5f0       $unwind$?resolveUnclaimedPoints@QuickHull@local@@IEAAXAEBV?$Array@PEAUQuickHullFace@local@@V?$ReflectionAllocator@PEAUQuickHullFace@local@@@shdfnd@physx@@@shdfnd@physx@@@Z 00000001800535f0     QuickHullConvexHullLib.obj
 0002:0000e600       $chain$1$?resolveUnclaimedPoints@QuickHull@local@@IEAAXAEBV?$Array@PEAUQuickHullFace@local@@V?$ReflectionAllocator@PEAUQuickHullFace@local@@@shdfnd@physx@@@shdfnd@physx@@@Z 0000000180053600     QuickHullConvexHullLib.obj
 0002:0000e618       $chain$2$?resolveUnclaimedPoints@QuickHull@local@@IEAAXAEBV?$Array@PEAUQuickHullFace@local@@V?$ReflectionAllocator@PEAUQuickHullFace@local@@@shdfnd@physx@@@shdfnd@physx@@@Z 0000000180053618     QuickHullConvexHullLib.obj
 0002:0000e628       $unwind$?postMergeHull@QuickHull@local@@IEAAXXZ 0000000180053628     QuickHullConvexHullLib.obj
 0002:0000e634       $chain$5$?postMergeHull@QuickHull@local@@IEAAXXZ 0000000180053634     QuickHullConvexHullLib.obj
 0002:0000e65c       $chain$6$?postMergeHull@QuickHull@local@@IEAAXXZ 000000018005365c     QuickHullConvexHullLib.obj
 0002:0000e66c       $chain$7$?postMergeHull@QuickHull@local@@IEAAXXZ 000000018005366c     QuickHullConvexHullLib.obj
 0002:0000e694       $unwind$?canMergeFaces@QuickHull@local@@IEAA_NAEBUQuickHullHalfEdge@2@@Z 0000000180053694     QuickHullConvexHullLib.obj
 0002:0000e6d8       $unwind$?init@?$MemBlock@UQuickHullHalfEdge@local@@$0A@@local@@QEAAXI@Z 00000001800536d8     QuickHullConvexHullLib.obj
 0002:0000e6e4       $unwind$??1?$MemBlock@UQuickHullFace@local@@$00@local@@QEAA@XZ 00000001800536e4     QuickHullConvexHullLib.obj
 0002:0000e6e4       $unwind$??1?$MemBlock@UQuickHullHalfEdge@local@@$0A@@local@@QEAA@XZ 00000001800536e4     QuickHullConvexHullLib.obj
 0002:0000e6f0       $chain$0$??1?$MemBlock@UQuickHullFace@local@@$00@local@@QEAA@XZ 00000001800536f0     QuickHullConvexHullLib.obj
 0002:0000e6f0       $chain$0$??1?$MemBlock@UQuickHullHalfEdge@local@@$0A@@local@@QEAA@XZ 00000001800536f0     QuickHullConvexHullLib.obj
 0002:0000e704       $chain$1$??1?$MemBlock@UQuickHullFace@local@@$00@local@@QEAA@XZ 0000000180053704     QuickHullConvexHullLib.obj
 0002:0000e704       $chain$1$??1?$MemBlock@UQuickHullHalfEdge@local@@$0A@@local@@QEAA@XZ 0000000180053704     QuickHullConvexHullLib.obj
 0002:0000e714       $unwind$?getFreeItem@?$MemBlock@UQuickHullHalfEdge@local@@$0A@@local@@QEAAPEAUQuickHullHalfEdge@2@XZ 0000000180053714     QuickHullConvexHullLib.obj
 0002:0000e720       $chain$1$?allocate@?$Array@PEAUQuickHullHalfEdge@local@@V?$ReflectionAllocator@PEAUQuickHullHalfEdge@local@@@shdfnd@physx@@@shdfnd@physx@@IEAAPEAPEAUQuickHullHalfEdge@local@@I@Z 0000000180053720     QuickHullConvexHullLib.obj
 0002:0000e738       $chain$3$?allocate@?$Array@PEAUQuickHullHalfEdge@local@@V?$ReflectionAllocator@PEAUQuickHullHalfEdge@local@@@shdfnd@physx@@@shdfnd@physx@@IEAAPEAPEAUQuickHullHalfEdge@local@@I@Z 0000000180053738     QuickHullConvexHullLib.obj
 0002:0000e74c       $chain$4$?allocate@?$Array@PEAUQuickHullHalfEdge@local@@V?$ReflectionAllocator@PEAUQuickHullHalfEdge@local@@@shdfnd@physx@@@shdfnd@physx@@IEAAPEAPEAUQuickHullHalfEdge@local@@I@Z 000000018005374c     QuickHullConvexHullLib.obj
 0002:0000e75c       $chain$0$?recreate@?$Array@PEAUQuickHullHalfEdge@local@@V?$ReflectionAllocator@PEAUQuickHullHalfEdge@local@@@shdfnd@physx@@@shdfnd@physx@@IEAAXI@Z 000000018005375c     QuickHullConvexHullLib.obj
 0002:0000e770       $chain$1$?recreate@?$Array@PEAUQuickHullHalfEdge@local@@V?$ReflectionAllocator@PEAUQuickHullHalfEdge@local@@@shdfnd@physx@@@shdfnd@physx@@IEAAXI@Z 0000000180053770     QuickHullConvexHullLib.obj
 0002:0000e780       $unwind$?init@?$MemBlock@UQuickHullFace@local@@$00@local@@QEAAXI@Z 0000000180053780     QuickHullConvexHullLib.obj
 0002:0000e790       $unwind$?getFreeItem@?$MemBlock@UQuickHullFace@local@@$00@local@@QEAAPEAUQuickHullFace@2@XZ 0000000180053790     QuickHullConvexHullLib.obj
 0002:0000e7a0       $chain$1$?allocate@?$Array@PEAUQuickHullFace@local@@V?$ReflectionAllocator@PEAUQuickHullFace@local@@@shdfnd@physx@@@shdfnd@physx@@IEAAPEAPEAUQuickHullFace@local@@I@Z 00000001800537a0     QuickHullConvexHullLib.obj
 0002:0000e7b8       $chain$3$?allocate@?$Array@PEAUQuickHullFace@local@@V?$ReflectionAllocator@PEAUQuickHullFace@local@@@shdfnd@physx@@@shdfnd@physx@@IEAAPEAPEAUQuickHullFace@local@@I@Z 00000001800537b8     QuickHullConvexHullLib.obj
 0002:0000e7cc       $chain$4$?allocate@?$Array@PEAUQuickHullFace@local@@V?$ReflectionAllocator@PEAUQuickHullFace@local@@@shdfnd@physx@@@shdfnd@physx@@IEAAPEAPEAUQuickHullFace@local@@I@Z 00000001800537cc     QuickHullConvexHullLib.obj
 0002:0000e7dc       $chain$0$?recreate@?$Array@PEAUQuickHullFace@local@@V?$ReflectionAllocator@PEAUQuickHullFace@local@@@shdfnd@physx@@@shdfnd@physx@@IEAAXI@Z 00000001800537dc     QuickHullConvexHullLib.obj
 0002:0000e7f0       $chain$1$?recreate@?$Array@PEAUQuickHullFace@local@@V?$ReflectionAllocator@PEAUQuickHullFace@local@@@shdfnd@physx@@@shdfnd@physx@@IEAAXI@Z 00000001800537f0     QuickHullConvexHullLib.obj
 0002:0000e800       $chain$1$?allocate@?$Array@PEAUQuickHullVertex@local@@V?$ReflectionAllocator@PEAUQuickHullVertex@local@@@shdfnd@physx@@@shdfnd@physx@@IEAAPEAPEAUQuickHullVertex@local@@I@Z 0000000180053800     QuickHullConvexHullLib.obj
 0002:0000e818       $chain$3$?allocate@?$Array@PEAUQuickHullVertex@local@@V?$ReflectionAllocator@PEAUQuickHullVertex@local@@@shdfnd@physx@@@shdfnd@physx@@IEAAPEAPEAUQuickHullVertex@local@@I@Z 0000000180053818     QuickHullConvexHullLib.obj
 0002:0000e82c       $chain$4$?allocate@?$Array@PEAUQuickHullVertex@local@@V?$ReflectionAllocator@PEAUQuickHullVertex@local@@@shdfnd@physx@@@shdfnd@physx@@IEAAPEAPEAUQuickHullVertex@local@@I@Z 000000018005382c     QuickHullConvexHullLib.obj
 0002:0000e83c       $chain$0$?recreate@?$Array@PEAUQuickHullVertex@local@@V?$ReflectionAllocator@PEAUQuickHullVertex@local@@@shdfnd@physx@@@shdfnd@physx@@IEAAXI@Z 000000018005383c     QuickHullConvexHullLib.obj
 0002:0000e850       $chain$1$?recreate@?$Array@PEAUQuickHullVertex@local@@V?$ReflectionAllocator@PEAUQuickHullVertex@local@@@shdfnd@physx@@@shdfnd@physx@@IEAAXI@Z 0000000180053850     QuickHullConvexHullLib.obj
 0002:0000e860       $chain$1$?allocate@?$Array@UExpandPoint@local@@V?$ReflectionAllocator@UExpandPoint@local@@@shdfnd@physx@@@shdfnd@physx@@IEAAPEAUExpandPoint@local@@I@Z 0000000180053860     QuickHullConvexHullLib.obj
 0002:0000e878       $chain$3$?allocate@?$Array@UExpandPoint@local@@V?$ReflectionAllocator@UExpandPoint@local@@@shdfnd@physx@@@shdfnd@physx@@IEAAPEAUExpandPoint@local@@I@Z 0000000180053878     QuickHullConvexHullLib.obj
 0002:0000e88c       $chain$4$?allocate@?$Array@UExpandPoint@local@@V?$ReflectionAllocator@UExpandPoint@local@@@shdfnd@physx@@@shdfnd@physx@@IEAAPEAUExpandPoint@local@@I@Z 000000018005388c     QuickHullConvexHullLib.obj
 0002:0000e89c       $chain$0$?recreate@?$Array@UExpandPoint@local@@V?$ReflectionAllocator@UExpandPoint@local@@@shdfnd@physx@@@shdfnd@physx@@IEAAXI@Z 000000018005389c     QuickHullConvexHullLib.obj
 0002:0000e8b0       $chain$1$?recreate@?$Array@UExpandPoint@local@@V?$ReflectionAllocator@UExpandPoint@local@@@shdfnd@physx@@@shdfnd@physx@@IEAAXI@Z 00000001800538b0     QuickHullConvexHullLib.obj
 0002:0000e8c0       $unwind$?computeVolumeIntegralsEberly@physx@@YA_NAEBVPxConvexMeshDesc@1@MAEAUPxIntegrals@1@AEBVPxVec3@1@@Z 00000001800538c0     VolumeIntegration.obj
 0002:0000e8c0       $unwind$?computeVolumeIntegralsEberlySIMD@physx@@YA_NAEBVPxConvexMeshDesc@1@MAEAUPxIntegrals@1@AEBVPxVec3@1@@Z 00000001800538c0     VolumeIntegration.obj
 0002:0000e8c0       $unwind$__unDName          00000001800538c0     libvcruntime:undname.obj
 0002:0000e8c0       $unwind$_raise_exc         00000001800538c0     libucrt:fpexcept.obj
 0002:0000e8c0       $unwind$_raise_excf        00000001800538c0     libucrt:fpexcept.obj
 0002:0000e8c8       $unwind$?computeVolumeIntegralsSIMD@VolumeIntegratorEberly@?A0x95ee0706@physx@@QEAA_NAEAUPxIntegrals@3@AEBVPxVec3@3@@Z 00000001800538c8     VolumeIntegration.obj
 0002:0000e900       $chain$1$?computeVolumeIntegralsSIMD@VolumeIntegratorEberly@?A0x95ee0706@physx@@QEAA_NAEAUPxIntegrals@3@AEBVPxVec3@3@@Z 0000000180053900     VolumeIntegration.obj
 0002:0000e918       $chain$2$?computeVolumeIntegralsSIMD@VolumeIntegratorEberly@?A0x95ee0706@physx@@QEAA_NAEAUPxIntegrals@3@AEBVPxVec3@3@@Z 0000000180053918     VolumeIntegration.obj
 0002:0000e928       $unwind$?computeVolumeIntegrals@VolumeIntegratorEberly@?A0x95ee0706@physx@@QEAA_NAEAUPxIntegrals@3@AEBVPxVec3@3@@Z 0000000180053928     VolumeIntegration.obj
 0002:0000e960       $chain$0$?computeVolumeIntegrals@VolumeIntegratorEberly@?A0x95ee0706@physx@@QEAA_NAEAUPxIntegrals@3@AEBVPxVec3@3@@Z 0000000180053960     VolumeIntegration.obj
 0002:0000e974       $chain$3$?computeVolumeIntegrals@VolumeIntegratorEberly@?A0x95ee0706@physx@@QEAA_NAEAUPxIntegrals@3@AEBVPxVec3@3@@Z 0000000180053974     VolumeIntegration.obj
 0002:0000e990       $chain$4$?computeVolumeIntegrals@VolumeIntegratorEberly@?A0x95ee0706@physx@@QEAA_NAEAUPxIntegrals@3@AEBVPxVec3@3@@Z 0000000180053990     VolumeIntegration.obj
 0002:0000e9a0       $chain$5$?computeVolumeIntegrals@VolumeIntegratorEberly@?A0x95ee0706@physx@@QEAA_NAEAUPxIntegrals@3@AEBVPxVec3@3@@Z 00000001800539a0     VolumeIntegration.obj
 0002:0000e9b0       $chain$1$?cookingDelayHook@@YAP6A_JXZIPEAUDelayLoadInfo@@@Z 00000001800539b0     WindowsCookingDelayLoadHook.obj
 0002:0000e9c8       $chain$3$?cookingDelayHook@@YAP6A_JXZIPEAUDelayLoadInfo@@@Z 00000001800539c8     WindowsCookingDelayLoadHook.obj
 0002:0000e9c8       $chain$5$?cookingDelayHook@@YAP6A_JXZIPEAUDelayLoadInfo@@@Z 00000001800539c8     WindowsCookingDelayLoadHook.obj
 0002:0000e9e0       $chain$6$?cookingDelayHook@@YAP6A_JXZIPEAUDelayLoadInfo@@@Z 00000001800539e0     WindowsCookingDelayLoadHook.obj
 0002:0000e9f0       xdata                      00000001800539f0     PhysXCommon_64:PhysXCommon_64.dll
 0002:0000e9f8       xdata                      00000001800539f8     PhysXFoundation_64:PhysXFoundation_64.dll
 0002:0000ea00       $unwind$?DloadObtainSection@@YAPEAXPEAK0@Z 0000000180053a00     Delayimp:delayhlp.obj
 0002:0000ea00       $unwind$strstr             0000000180053a00     libvcruntime:strstr.obj
 0002:0000ea10       $unwind$?DloadProtectSection@@YAXKPEAK@Z 0000000180053a10     Delayimp:delayhlp.obj
 0002:0000ea20       $unwind$__delayLoadHelper2 0000000180053a20     Delayimp:delayhlp.obj
 0002:0000ea40       $xdatasym                  0000000180053a40     LIBCMT:chkstk.obj
 0002:0000ea48       $unwind$?dllmain_crt_process_attach@@YAHQEAUHINSTANCE__@@QEAX@Z 0000000180053a48     LIBCMT:dll_dllmain.obj
 0002:0000ea84       $unwind$?fin$0@?0??dllmain_crt_process_attach@@YAHQEAUHINSTANCE__@@QEAX@Z@4HA 0000000180053a84     LIBCMT:dll_dllmain.obj
 0002:0000ea84       $unwind$?fin$0@?0??dllmain_crt_process_detach@@YAH_N@Z@4HA 0000000180053a84     LIBCMT:dll_dllmain.obj
 0002:0000ea84       $unwind$?fin$1@?0??dllmain_crt_process_detach@@YAH_N@Z@4HA 0000000180053a84     LIBCMT:dll_dllmain.obj
 0002:0000ea84       $unwind$_IsNonwritableInCurrentImage$filt$0 0000000180053a84     LIBCMT:pesect.obj
 0002:0000ea84       $unwind$?filt$0@?0??CxxCallCatchBlock@__FrameHandler4@@SAPEAXPEAU_EXCEPTION_RECORD@@@Z@4HA 0000000180053a84     libvcruntime:frame.obj
 0002:0000ea84       $unwind$__unDNameEx$fin$0  0000000180053a84     libvcruntime:undname.obj
 0002:0000ea84       $unwind$_query_new_handler$fin$0 0000000180053a84     libucrt:new_handler.obj
 0002:0000ea84       $unwind$?fin$0@?0???$?RV<lambda_0ae27a3a962d80f24befdcbee591983d>@@AEAV<lambda_8d0ee55de4b1038c4002e0adecdf1839>@@V<lambda_dc504788e8f1664fe9b84e20bfb512f2>@@@?$__crt_seh_guarded_call@X@@QEAAX$$QEAV<lambda_0ae27a3a962d80f24befdcbee591983d>@@AEAV<lambda_8d0ee55de4b1038c4002e0adecdf1839>@@$$QEAV<lambda_dc504788e8f1664fe9b84e20bfb512f2>@@@Z@4HA 0000000180053a84     libucrt:per_thread_data.obj
 0002:0000ea84       $unwind$?fin$0@?0???$?RV<lambda_2d41944a1d46af3157314b8a01080d33>@@AEAV<lambda_8f455de75cd7d7f24b4096f044d8b9e6>@@V<lambda_aa500f224e6afead328df44964fe2772>@@@?$__crt_seh_guarded_call@X@@QEAAX$$QEAV<lambda_2d41944a1d46af3157314b8a01080d33>@@AEAV<lambda_8f455de75cd7d7f24b4096f044d8b9e6>@@$$QEAV<lambda_aa500f224e6afead328df44964fe2772>@@@Z@4HA 0000000180053a84     libucrt:per_thread_data.obj
 0002:0000ea84       $unwind$?fin$0@?0???$?RV<lambda_aa87e3671a710a21b5dc78c0bdf72e11>@@AEAV<lambda_92619d2358a28f41a33ba319515a20b9>@@V<lambda_6992ecaafeb10aed2b74cb1fae11a551>@@@?$__crt_seh_guarded_call@X@@QEAAX$$QEAV<lambda_aa87e3671a710a21b5dc78c0bdf72e11>@@AEAV<lambda_92619d2358a28f41a33ba319515a20b9>@@$$QEAV<lambda_6992ecaafeb10aed2b74cb1fae11a551>@@@Z@4HA 0000000180053a84     libucrt:per_thread_data.obj
 0002:0000ea84       $unwind$?fin$0@?0???$?RV<lambda_f2e299630e499de9f9a165e60fcd3db5>@@AEAV<lambda_2ae9d31cdba2644fcbeaf08da7c24588>@@V<lambda_40d01ff24d0e7b3814fdbdcee8eab3c7>@@@?$__crt_seh_guarded_call@X@@QEAAX$$QEAV<lambda_f2e299630e499de9f9a165e60fcd3db5>@@AEAV<lambda_2ae9d31cdba2644fcbeaf08da7c24588>@@$$QEAV<lambda_40d01ff24d0e7b3814fdbdcee8eab3c7>@@@Z@4HA 0000000180053a84     libucrt:per_thread_data.obj
 0002:0000ea84       $unwind$__acrt_update_thread_locale_data$fin$0 0000000180053a84     libucrt:locale_refcounting.obj
 0002:0000ea84       $unwind$?fin$0@?0???$?RV<lambda_410d79af7f07d98d83a3f525b3859a53>@@AEAV<lambda_3e16ef9562a7dcce91392c22ab16ea36>@@V<lambda_38119f0e861e05405d8a144b9b982f0a>@@@?$__crt_seh_guarded_call@X@@QEAAX$$QEAV<lambda_410d79af7f07d98d83a3f525b3859a53>@@AEAV<lambda_3e16ef9562a7dcce91392c22ab16ea36>@@$$QEAV<lambda_38119f0e861e05405d8a144b9b982f0a>@@@Z@4HA 0000000180053a84     libucrt:wsetlocale.obj
 0002:0000ea84       $unwind$?fin$0@?0???$?RV<lambda_751a882b2c74d4b022dec766aa51a29a>@@AEAV<lambda_628dfdc04ba53c8bfc02c9951375f3f5>@@V<lambda_f6c7be5f7998530c34de24c7437d6b54>@@@?$__crt_seh_guarded_call@H@@QEAAH$$QEAV<lambda_751a882b2c74d4b022dec766aa51a29a>@@AEAV<lambda_628dfdc04ba53c8bfc02c9951375f3f5>@@$$QEAV<lambda_f6c7be5f7998530c34de24c7437d6b54>@@@Z@4HA 0000000180053a84     libucrt:close.obj
 0002:0000ea84       $unwind$?fin$0@?0???$?RV<lambda_a37b2b86f63e897a80ea819b0eb08c01>@@AEAV<lambda_38ce7e780aa69e748d6df282ebc68efe>@@V<lambda_99fb1378e971ab6e7edea83e3a7a83a2>@@@?$__crt_seh_guarded_call@H@@QEAAH$$QEAV<lambda_a37b2b86f63e897a80ea819b0eb08c01>@@AEAV<lambda_38ce7e780aa69e748d6df282ebc68efe>@@$$QEAV<lambda_99fb1378e971ab6e7edea83e3a7a83a2>@@@Z@4HA 0000000180053a84     libucrt:commit.obj
 0002:0000ea84       $unwind$__acrt_initialize_lowio$fin$0 0000000180053a84     libucrt:ioinit.obj
 0002:0000ea84       $unwind$__acrt_lowio_ensure_fh_exists$fin$0 0000000180053a84     libucrt:osfinfo.obj
 0002:0000ea84       $unwind$_write$fin$0       0000000180053a84     libucrt:write.obj
 0002:0000ea84       $unwind$?fin$0@?0???$?RV<lambda_efdfa57d1f175319df784efa44bb7b81>@@AEAV<lambda_5f0a4c1567f8adc6734073e5d1e1b35c>@@V<lambda_2e8a7d3640ea6ccb4c2413664c2db6fd>@@@?$__crt_seh_guarded_call@X@@QEAAX$$QEAV<lambda_efdfa57d1f175319df784efa44bb7b81>@@AEAV<lambda_5f0a4c1567f8adc6734073e5d1e1b35c>@@$$QEAV<lambda_2e8a7d3640ea6ccb4c2413664c2db6fd>@@@Z@4HA 0000000180053a84     libucrt:mbctype.obj
 0002:0000ea84       $unwind$?fin$0@?0??update_thread_multibyte_data_internal@@YAPEAU__crt_multibyte_data@@QEAU__acrt_ptd@@QEAPEAU1@@Z@4HA 0000000180053a84     libucrt:mbctype.obj
 0002:0000ea84       $unwind$?fin$0@?0???$?RV<lambda_450d765d439847d4c735a33c368b5fc0>@@AEAV<lambda_44731a7d0e6d81c3e6aa82d741081786>@@V<lambda_601a2a7da3b7a96e9554ac7215c4b07c>@@@?$__crt_seh_guarded_call@P6AXH@Z@@QEAAP6AXH@Z$$QEAV<lambda_450d765d439847d4c735a33c368b5fc0>@@AEAV<lambda_44731a7d0e6d81c3e6aa82d741081786>@@$$QEAV<lambda_601a2a7da3b7a96e9554ac7215c4b07c>@@@Z@4HA 0000000180053a84     libucrt:signal.obj
 0002:0000ea84       $unwind$raise$fin$0        0000000180053a84     libucrt:signal.obj
 0002:0000ea84       $unwind$?filt$0@?0???R<lambda_6e4b09c48022b2350581041d5f6b0c4c>@@QEBA@XZ@4HA 0000000180053a84     libucrt:exit.obj
 0002:0000ea84       $unwind$?fin$0@?0???$?RV<lambda_d80eeec6fff315bfe5c115232f3240e3>@@AEAV<lambda_6e4b09c48022b2350581041d5f6b0c4c>@@V<lambda_2358e3775559c9db80273638284d5e45>@@@?$__crt_seh_guarded_call@X@@QEAAX$$QEAV<lambda_d80eeec6fff315bfe5c115232f3240e3>@@AEAV<lambda_6e4b09c48022b2350581041d5f6b0c4c>@@$$QEAV<lambda_2358e3775559c9db80273638284d5e45>@@@Z@4HA 0000000180053a84     libucrt:exit.obj
 0002:0000ea84       $unwind$?fin$0@?0???$?RV<lambda_7777bce6b2f8c936911f934f8298dc43>@@AEAV<lambda_f03950bc5685219e0bcd2087efbe011e>@@V<lambda_3883c3dff614d5e0c5f61bb1ac94921c>@@@?$__crt_seh_guarded_call@H@@QEAAH$$QEAV<lambda_7777bce6b2f8c936911f934f8298dc43>@@AEAV<lambda_f03950bc5685219e0bcd2087efbe011e>@@$$QEAV<lambda_3883c3dff614d5e0c5f61bb1ac94921c>@@@Z@4HA 0000000180053a84     libucrt:onexit.obj
 0002:0000ea84       $unwind$_fcloseall$fin$0   0000000180053a84     libucrt:closeall.obj
 0002:0000ea84       $unwind$fclose$fin$0       0000000180053a84     libucrt:fclose.obj
 0002:0000ea84       $unwind$?fin$0@?0???$?RV<lambda_842d9ff0dc9ef11c61343bbaebe7f885>@@AEAV<lambda_c5860995281e5c4ce005b3de8f5874ee>@@V<lambda_d90129c13df834fdcbf8d2b88dafcf2d>@@@?$__crt_seh_guarded_call@X@@QEAAX$$QEAV<lambda_842d9ff0dc9ef11c61343bbaebe7f885>@@AEAV<lambda_c5860995281e5c4ce005b3de8f5874ee>@@$$QEAV<lambda_d90129c13df834fdcbf8d2b88dafcf2d>@@@Z@4HA 0000000180053a84     libucrt:fflush.obj
 0002:0000ea84       $unwind$?fin$0@?0???$?RV<lambda_886d6c58226a84441f68b9f2b8217b83>@@AEAV<lambda_ab61a845afdef5b7c387490eaf3616ee>@@V<lambda_f7f22ab5edc0698d5f6905b0d3f44752>@@@?$__crt_seh_guarded_call@X@@QEAAX$$QEAV<lambda_886d6c58226a84441f68b9f2b8217b83>@@AEAV<lambda_ab61a845afdef5b7c387490eaf3616ee>@@$$QEAV<lambda_f7f22ab5edc0698d5f6905b0d3f44752>@@@Z@4HA 0000000180053a84     libucrt:fflush.obj
 0002:0000ea84       $unwind$_ctrlfp$filt$0     0000000180053a84     libucrt:fpctrl.obj
 0002:0000ea8c       $unwind$?dllmain_crt_process_detach@@YAH_N@Z 0000000180053a8c     LIBCMT:dll_dllmain.obj
 0002:0000eae0       $unwind$?dllmain_dispatch@@YAHQEAUHINSTANCE__@@KQEAX@Z 0000000180053ae0     LIBCMT:dll_dllmain.obj
 0002:0000eb08       $unwind$?filt$0@?0??dllmain_dispatch@@YAHQEAUHINSTANCE__@@KQEAX@Z@4HA 0000000180053b08     LIBCMT:dll_dllmain.obj
 0002:0000eb08       $unwind$?filt$0@?0??FrameUnwindToState@__FrameHandler4@@SAXPEA_KPEAU_xDISPATCHER_CONTEXT@@PEAUFuncInfo4@FH4@@H@Z@4HA 0000000180053b08     libvcruntime:frame.obj
 0002:0000eb08       $unwind$?fin$1@?0??FrameUnwindToState@__FrameHandler4@@SAXPEA_KPEAU_xDISPATCHER_CONTEXT@@PEAUFuncInfo4@FH4@@H@Z@4HA 0000000180053b08     libvcruntime:frame.obj
 0002:0000eb10       $unwind$__isa_available_init 0000000180053b10     LIBCMT:cpu_disp.obj
 0002:0000eb20       $xdatasym                  0000000180053b20     LIBCMT:svml_ssinf4_sse2.obj
 0002:0000eb58       $xdatasym                  0000000180053b58     LIBCMT:svml_ssinf4_sse4.obj
 0002:0000eb8c       $unwind$__security_init_cookie 0000000180053b8c     LIBCMT:gs_support.obj
 0002:0000eb98       $unwind$__scrt_is_nonwritable_in_current_image 0000000180053b98     LIBCMT:utility.obj
 0002:0000ebb8       $unwind$__scrt_is_nonwritable_in_current_image$filt$0 0000000180053bb8     LIBCMT:utility.obj
 0002:0000ebc0       $unwind$__scrt_fastfail    0000000180053bc0     LIBCMT:utility_desktop.obj
 0002:0000ebd0       $xdatasym                  0000000180053bd0     LIBCMT:guard_dispatch.obj
 0002:0000ebd8       $xdatasym                  0000000180053bd8     LIBCMT:guard_xfg_dispatch.obj
 0002:0000ebe0       $xdatasym                  0000000180053be0     LIBCMT:svml_s_sin_cout.obj
 0002:0000ebe8       $unwind$__C_specific_handler 0000000180053be8     libvcruntime:riscchandler.obj
 0002:0000ebe8       $unwind$__std_type_info_name 0000000180053be8     libvcruntime:std_type_info.obj
 0002:0000ec08       $xdatasym                  0000000180053c08     libvcruntime:memset.obj
 0002:0000ec18       $xdatasym                  0000000180053c18     libvcruntime:memcpy.obj
 0002:0000ec28       $unwind$__DestructExceptionObject 0000000180053c28     libvcruntime:ehhelpers.obj
 0002:0000ec48       $unwind$__DestructExceptionObject$filt$0 0000000180053c48     libvcruntime:ehhelpers.obj
 0002:0000ec48       $unwind$?fin$1@?0??CxxCallCatchBlock@__FrameHandler4@@SAPEAXPEAU_EXCEPTION_RECORD@@@Z@4HA 0000000180053c48     libvcruntime:frame.obj
 0002:0000ec54       $unwind$__unDNameEx        0000000180053c54     libvcruntime:undname.obj
 0002:0000ec84       $unwind$sprintf_s          0000000180053c84     libvcruntime:undname.obj
 0002:0000ec94       $unwind$??0DName@@QEAA@_J@Z 0000000180053c94     libvcruntime:undname.obj
 0002:0000ec94       $unwind$??0DName@@QEAA@_K@Z 0000000180053c94     libvcruntime:undname.obj
 0002:0000eca4       $unwind$?doPchar@DName@@AEAAXD@Z 0000000180053ca4     libvcruntime:undname.obj
 0002:0000ecb0       $unwind$?getDecoratedName@UnDecorator@@CA?AVDName@@XZ 0000000180053cb0     libvcruntime:undname.obj
 0002:0000ecd0       $cppxdata$?getDecoratedName@UnDecorator@@CA?AVDName@@XZ 0000000180053cd0     libvcruntime:undname.obj
 0002:0000ecd9       $stateUnwindMap$?getDecoratedName@UnDecorator@@CA?AVDName@@XZ 0000000180053cd9     libvcruntime:undname.obj
 0002:0000ece0       $ip2state$?getDecoratedName@UnDecorator@@CA?AVDName@@XZ 0000000180053ce0     libvcruntime:undname.obj
 0002:0000ece8       $unwind$?getZName@UnDecorator@@CA?AVDName@@_N0@Z 0000000180053ce8     libvcruntime:undname.obj
 0002:0000ed0c       $unwind$?getOperatorName@UnDecorator@@CA?AVDName@@_NPEA_N@Z 0000000180053d0c     libvcruntime:undname.obj
 0002:0000ed28       $unwind$?getScope@UnDecorator@@CA?AVDName@@XZ 0000000180053d28     libvcruntime:undname.obj
 0002:0000ed44       $unwind$?getScopedName@UnDecorator@@CA?AVDName@@XZ 0000000180053d44     libvcruntime:undname.obj
 0002:0000ed54       $unwind$?getSignedDimension@UnDecorator@@CA?AVDName@@XZ 0000000180053d54     libvcruntime:undname.obj
 0002:0000ed54       $unwind$_mbsdec_l          0000000180053d54     libucrt:mbsdec.obj
 0002:0000ed60       $unwind$?getDimension@UnDecorator@@CA?AVDName@@_N@Z 0000000180053d60     libvcruntime:undname.obj
 0002:0000ed78       $unwind$?getFloatingPoint@UnDecorator@@CA?AVDName@@H@Z 0000000180053d78     libvcruntime:undname.obj
 0002:0000ed94       $unwind$?getValueObject@UnDecorator@@CA?AVDName@@XZ 0000000180053d94     libvcruntime:undname.obj
 0002:0000eda0       $unwind$?getTemplateName@UnDecorator@@CA?AVDName@@_N@Z 0000000180053da0     libvcruntime:undname.obj
 0002:0000edbc       $unwind$?getTemplateArgumentList@UnDecorator@@CA?AVDName@@XZ 0000000180053dbc     libvcruntime:undname.obj
 0002:0000eddc       $unwind$?getTemplateNonTypeArgument@UnDecorator@@CA?AVDName@@XZ 0000000180053ddc     libvcruntime:undname.obj
 0002:0000edfc       $unwind$?getTemplateTypeArgument@UnDecorator@@CA?AVDName@@XZ 0000000180053dfc     libvcruntime:undname.obj
 0002:0000ee14       $unwind$?composeDeclaration@UnDecorator@@CA?AVDName@@AEBV2@@Z 0000000180053e14     libvcruntime:undname.obj
 0002:0000ee30       $unwind$?getArgumentTypes@UnDecorator@@CA?AVDName@@XZ 0000000180053e30     libvcruntime:undname.obj
 0002:0000ee30       $unwind$?getBasedType@UnDecorator@@CA?AVDName@@XZ 0000000180053e30     libvcruntime:undname.obj
 0002:0000ee30       $unwind$?getEnumType@UnDecorator@@CA?AVDName@@XZ 0000000180053e30     libvcruntime:undname.obj
 0002:0000ee3c       $unwind$?getCallingConvention@UnDecorator@@CA?AVDName@@XZ 0000000180053e3c     libvcruntime:undname.obj
 0002:0000ee4c       $unwind$?getDataType@UnDecorator@@CA?AVDName@@PEAV2@@Z 0000000180053e4c     libvcruntime:undname.obj
 0002:0000ee58       $unwind$?getExtendedDataIndirectType@UnDecorator@@CA?AVDName@@AEAW4IndirectionKind@@AEA_NH@Z 0000000180053e58     libvcruntime:undname.obj
 0002:0000ee58       $unwind$?getPrimaryDataType@UnDecorator@@CA?AVDName@@AEBV2@@Z 0000000180053e58     libvcruntime:undname.obj
 0002:0000ee58       $unwind$?getPtrRefDataType@UnDecorator@@CA?AVDName@@AEBV2@H@Z 0000000180053e58     libvcruntime:undname.obj
 0002:0000ee58       $unwind$?parseDecoratedName@UnDecorator@@CA?AVDName@@XZ 0000000180053e58     libvcruntime:undname.obj
 0002:0000ee68       $unwind$?getDataIndirectType@UnDecorator@@CA?AVDName@@AEBV2@W4IndirectionKind@@0H@Z 0000000180053e68     libvcruntime:undname.obj
 0002:0000ee88       $unwind$?getBasicDataType@UnDecorator@@CA?AVDName@@AEBV2@@Z 0000000180053e88     libvcruntime:undname.obj
 0002:0000eea0       $unwind$?getECSUDataType@UnDecorator@@CA?AVDName@@XZ 0000000180053ea0     libvcruntime:undname.obj
 0002:0000eeb0       $unwind$?getPtrRefType@UnDecorator@@CA?AVDName@@AEBV2@0W4IndirectionKind@@@Z 0000000180053eb0     libvcruntime:undname.obj
 0002:0000eec8       $unwind$?getArrayType@UnDecorator@@CA?AVDName@@AEBV2@@Z 0000000180053ec8     libvcruntime:undname.obj
 0002:0000eee0       $unwind$?getFunctionIndirectType@UnDecorator@@CA?AVDName@@AEBV2@@Z 0000000180053ee0     libvcruntime:undname.obj
 0002:0000ef00       $unwind$?getArgumentList@UnDecorator@@CA?AVDName@@XZ 0000000180053f00     libvcruntime:undname.obj
 0002:0000ef00       $unwind$?fp_format_e@@YAHQEBNQEAD_K12H_NIQEAU__crt_locale_pointers@@@Z 0000000180053f00     libucrt:cvt.obj
 0002:0000ef00       $unwind$_mbtowc_l          0000000180053f00     libucrt:mbtowc.obj
 0002:0000ef00       $unwind$__acrt_LCMapStringEx 0000000180053f00     libucrt:winapi_thunks.obj
 0002:0000ef14       $unwind$?getRestrictionSpec@UnDecorator@@CA?AVDName@@XZ 0000000180053f14     libvcruntime:undname.obj
 0002:0000ef28       $unwind$?getLexicalFrame@UnDecorator@@CA?AVDName@@XZ 0000000180053f28     libvcruntime:undname.obj
 0002:0000ef34       $unwind$?getExternalDataType@UnDecorator@@CA?AVDName@@AEBV2@@Z 0000000180053f34     libvcruntime:undname.obj
 0002:0000ef44       $unwind$?getVfTableType@UnDecorator@@CA?AVDName@@AEBV2@@Z 0000000180053f44     libvcruntime:undname.obj
 0002:0000ef58       $xdatasym                  0000000180053f58     libvcruntime:notify.obj
 0002:0000ef64       $unwind$?DecompFuncInfo@FH4@@YA_JPEAEAEAUFuncInfo4@1@_KH_N@Z 0000000180053f64     libvcruntime:risctrnsctrl.obj
 0002:0000ef7c       $unwind$?UnwindNestedFrames@__FrameHandler4@@SAXPEA_KPEAUEHExceptionRecord@@PEAU_CONTEXT@@0PEAXPEAUFuncInfo4@FH4@@HHPEAUHandlerType4@5@PEAU_xDISPATCHER_CONTEXT@@E@Z 0000000180053f7c     libvcruntime:risctrnsctrl.obj
 0002:0000ef90       $unwind$?GetRangeOfTrysToCheck@__FrameHandler4@@SA?AU?$pair@Viterator@TryBlockMap4@FH4@@V123@@std@@AEAVTryBlockMap4@FH4@@HPEAU_xDISPATCHER_CONTEXT@@PEAUFuncInfo4@5@H@Z 0000000180053f90     libvcruntime:risctrnsctrl.obj
 0002:0000efac       $unwind$__CxxFrameHandler4 0000000180053fac     libvcruntime:risctrnsctrl.obj
 0002:0000efc0       $unwind$??$_CallSETranslator@V__FrameHandler4@@@@YAHPEAUEHExceptionRecord@@PEA_KPEAU_CONTEXT@@PEAU_xDISPATCHER_CONTEXT@@PEAUFuncInfo4@FH4@@K1H@Z 0000000180053fc0     libvcruntime:risctrnsctrl.obj
 0002:0000efe0       $unwind$?filt$0@?0???$_CallSETranslator@V__FrameHandler4@@@@YAHPEAUEHExceptionRecord@@PEA_KPEAU_CONTEXT@@PEAU_xDISPATCHER_CONTEXT@@PEAUFuncInfo4@FH4@@K1H@Z@4HA 0000000180053fe0     libvcruntime:risctrnsctrl.obj
 0002:0000efec       $unwind$?try_get_function@@YAPEAXW4function_id@?A0xdafaeb0c@@QEBDQEBW4module_id@2@2@Z 0000000180053fec     libvcruntime:winapi_downlevel.obj
 0002:0000efec       $unwind$?try_get_function@@YAPEAXW4function_id@?A0x391cf84c@@QEBDQEBW4module_id@2@2@Z 0000000180053fec     libucrt:winapi_thunks.obj
 0002:0000f008       $unwind$?StateFromIp@__FrameHandler4@@SAHPEAUFuncInfo4@FH4@@PEAU_xDISPATCHER_CONTEXT@@_K@Z 0000000180054008     libvcruntime:ehstate.obj
 0002:0000f01c       $unwind$?getStartStop@UWMap4@FH4@@QEAAXHHAEAViterator@12@0@Z 000000018005401c     libvcruntime:frame.obj
 0002:0000f034       $unwind$?FrameUnwindToState@__FrameHandler4@@SAXPEA_KPEAU_xDISPATCHER_CONTEXT@@PEAUFuncInfo4@FH4@@H@Z 0000000180054034     libvcruntime:frame.obj
 0002:0000f07c       $unwind$?CxxCallCatchBlock@__FrameHandler4@@SAPEAXPEAU_EXCEPTION_RECORD@@@Z 000000018005407c     libvcruntime:frame.obj
 0002:0000f0d8       $unwind$?IsInExceptionSpec@@YAEPEAUEHExceptionRecord@@PEBU_s_ESTypeList@@@Z 00000001800540d8     libvcruntime:frame.obj
 0002:0000f0f4       $unwind$??$__InternalCxxFrameHandler@V__FrameHandler4@@@@YA?AW4_EXCEPTION_DISPOSITION@@PEAUEHExceptionRecord@@PEA_KPEAU_CONTEXT@@PEAU_xDISPATCHER_CONTEXT@@PEAUFuncInfo4@FH4@@H1E@Z 00000001800540f4     libvcruntime:frame.obj
 0002:0000f10c       $unwind$__GSHandlerCheck_SEH 000000018005410c     LIBCMT:gshandlerseh.obj
 0002:0000f10c       $unwind$??$TypeMatchHelper@V__FrameHandler3@@@@YAHPEBU_s_HandlerType@@PEBU_s_CatchableType@@PEBU_s_ThrowInfo@@@Z 000000018005410c     libvcruntime:frame.obj
 0002:0000f10c       $unwind$??$TypeMatchHelper@V__FrameHandler4@@@@YAHPEAUHandlerType4@FH4@@PEBU_s_CatchableType@@PEBU_s_ThrowInfo@@@Z 000000018005410c     libvcruntime:frame.obj
 0002:0000f10c       $unwind$?initialize_stdio_handles_nolock@@YAXXZ 000000018005410c     libucrt:ioinit.obj
 0002:0000f10c       $unwind$__acrt_initialize_stdio 000000018005410c     libucrt:_file.obj
 0002:0000f124       $unwind$??$BuildCatchObjectHelperInternal@V__FrameHandler4@@@@YAHPEAUEHExceptionRecord@@PEAXPEAUHandlerType4@FH4@@PEBU_s_CatchableType@@@Z 0000000180054124     libvcruntime:frame.obj
 0002:0000f164       $unwind$??$BuildCatchObjectInternal@V__FrameHandler4@@@@YAXPEAUEHExceptionRecord@@PEAXPEAUHandlerType4@FH4@@PEBU_s_CatchableType@@@Z 0000000180054164     libvcruntime:frame.obj
 0002:0000f190       $unwind$??$FindHandler@V__FrameHandler4@@@@YAXPEAUEHExceptionRecord@@PEA_KPEAU_CONTEXT@@PEAU_xDISPATCHER_CONTEXT@@PEAUFuncInfo4@FH4@@EH1@Z 0000000180054190     libvcruntime:frame.obj
 0002:0000f1b0       $unwind$??$CatchIt@V__FrameHandler4@@@@YAXPEAUEHExceptionRecord@@PEA_KPEAU_CONTEXT@@PEAU_xDISPATCHER_CONTEXT@@PEAUFuncInfo4@FH4@@PEAUHandlerType4@4@PEBU_s_CatchableType@@PEAUTryBlockMapEntry4@4@H1EE@Z 00000001800541b0     libvcruntime:frame.obj
 0002:0000f1c8       $unwind$??$FindHandlerForForeignException@V__FrameHandler4@@@@YAXPEAUEHExceptionRecord@@PEA_KPEAU_CONTEXT@@PEAU_xDISPATCHER_CONTEXT@@PEAUFuncInfo4@FH4@@HH1@Z 00000001800541c8     libvcruntime:frame.obj
 0002:0000f1e8       $xdatasym                  00000001800541e8     libvcruntime:handlers.obj
 0002:0000f208       $unwind$_CxxThrowException 0000000180054208     libvcruntime:throw.obj
 0002:0000f218       $xdatasym                  0000000180054218     libucrt:strcmp.obj
 0002:0000f21c       $unwind$atan2f             000000018005421c     libucrt:atan2f.obj
 0002:0000f240       $xdatasym                  0000000180054240     libucrt:cosf.obj
 0002:0000f248       $xdatasym                  0000000180054248     libucrt:sinf.obj
 0002:0000f250       $unwind$?common_exit@@YAXHW4_crt_exit_cleanup_mode@@W4_crt_exit_return_mode@@@Z 0000000180054250     libucrt:exit.obj
 0002:0000f25c       $unwind$??R<lambda_6e4b09c48022b2350581041d5f6b0c4c>@@QEBA@XZ 000000018005425c     libucrt:exit.obj
 0002:0000f27c       $unwind$??$?RV<lambda_d80eeec6fff315bfe5c115232f3240e3>@@AEAV<lambda_6e4b09c48022b2350581041d5f6b0c4c>@@V<lambda_2358e3775559c9db80273638284d5e45>@@@?$__crt_seh_guarded_call@X@@QEAAX$$QEAV<lambda_d80eeec6fff315bfe5c115232f3240e3>@@AEAV<lambda_6e4b09c48022b2350581041d5f6b0c4c>@@$$QEAV<lambda_2358e3775559c9db80273638284d5e45>@@@Z 000000018005427c     libucrt:exit.obj
 0002:0000f2a0       $unwind$_configure_narrow_argv 00000001800542a0     libucrt:argv_parsing.obj
 0002:0000f2b4       $unwind$??$parse_command_line@D@@YAXPEADPEAPEAD0PEA_K2@Z 00000001800542b4     libucrt:argv_parsing.obj
 0002:0000f2d0       $unwind$??$free_environment@D@@YAXQEAPEAD@Z 00000001800542d0     libucrt:environment_initialization.obj
 0002:0000f2d0       $unwind$??$free_environment@_W@@YAXQEAPEA_W@Z 00000001800542d0     libucrt:environment_initialization.obj
 0002:0000f2dc       $unwind$??$create_environment@D@@YAQEAPEADQEAD@Z 00000001800542dc     libucrt:environment_initialization.obj
 0002:0000f2f4       $unwind$_execute_onexit_table 00000001800542f4     libucrt:onexit.obj
 0002:0000f2fc       $unwind$__acrt_DownlevelLocaleNameToLCID 00000001800542fc     libucrt:lcidtoname_downlevel.obj
 0002:0000f2fc       $unwind$??R<lambda_f03950bc5685219e0bcd2087efbe011e>@@QEBAHXZ 00000001800542fc     libucrt:onexit.obj
 0002:0000f2fc       $unwind$?type_case_integer@?$output_processor@DV?$string_output_adapter@D@__crt_stdio_output@@V?$format_validation_base@DV?$string_output_adapter@D@__crt_stdio_output@@@2@@__crt_stdio_output@@AEAA_NI_N@Z 00000001800542fc     libucrt:output.obj
 0002:0000f314       $unwind$??$?RV<lambda_7777bce6b2f8c936911f934f8298dc43>@@AEAV<lambda_f03950bc5685219e0bcd2087efbe011e>@@V<lambda_3883c3dff614d5e0c5f61bb1ac94921c>@@@?$__crt_seh_guarded_call@H@@QEAAH$$QEAV<lambda_7777bce6b2f8c936911f934f8298dc43>@@AEAV<lambda_f03950bc5685219e0bcd2087efbe011e>@@$$QEAV<lambda_3883c3dff614d5e0c5f61bb1ac94921c>@@@Z 0000000180054314     libucrt:onexit.obj
 0002:0000f338       $unwind$terminate          0000000180054338     libucrt:terminate.obj
 0002:0000f358       $unwind$?write_string@?$string_output_adapter@D@__crt_stdio_output@@QEBAXQEBDHQEAHAEAV__crt_deferred_errno_cache@@@Z 0000000180054358     libucrt:output.obj
 0002:0000f370       $unwind$??$common_vsprintf@Vformat_validation_base@__crt_stdio_output@@D@@YAH_KQEAD0QEBDQEAU__crt_locale_pointers@@1@Z 0000000180054370     libucrt:output.obj
 0002:0000f390       $unwind$??$write_multiple_characters@V?$string_output_adapter@D@__crt_stdio_output@@D@__crt_stdio_output@@YAXAEBV?$string_output_adapter@D@0@DHQEAH@Z 0000000180054390     libucrt:output.obj
 0002:0000f39c       $unwind$?process@?$output_processor@DV?$string_output_adapter@D@__crt_stdio_output@@V?$format_validation_base@DV?$string_output_adapter@D@__crt_stdio_output@@@2@@__crt_stdio_output@@QEAAHXZ 000000018005439c     libucrt:output.obj
 0002:0000f3b0       $unwind$?parse_int_from_format_string@?$output_processor@DV?$string_output_adapter@D@__crt_stdio_output@@V?$format_validation_base@DV?$string_output_adapter@D@__crt_stdio_output@@@2@@__crt_stdio_output@@AEAA_NQEAH@Z 00000001800543b0     libucrt:output.obj
 0002:0000f3c4       $unwind$?state_case_type@?$output_processor@DV?$string_output_adapter@D@__crt_stdio_output@@V?$format_validation_base@DV?$string_output_adapter@D@__crt_stdio_output@@@2@@__crt_stdio_output@@AEAA_NXZ 00000001800543c4     libucrt:output.obj
 0002:0000f3dc       $unwind$?type_case_a@?$output_processor@DV?$string_output_adapter@D@__crt_stdio_output@@V?$format_validation_base@DV?$string_output_adapter@D@__crt_stdio_output@@@2@@__crt_stdio_output@@AEAA_NXZ 00000001800543dc     libucrt:output.obj
 0002:0000f3e8       $unwind$?write_stored_string_tchar@?$output_processor@DV?$string_output_adapter@D@__crt_stdio_output@@V?$format_validation_base@DV?$string_output_adapter@D@__crt_stdio_output@@@2@@__crt_stdio_output@@AEAA_ND@Z 00000001800543e8     libucrt:output.obj
 0002:0000f400       $unwind$??$type_case_integer_parse_into_buffer@I@?$output_processor@DV?$string_output_adapter@D@__crt_stdio_output@@V?$format_validation_base@DV?$string_output_adapter@D@__crt_stdio_output@@@2@@__crt_stdio_output@@AEAAXII_N@Z 0000000180054400     libucrt:output.obj
 0002:0000f400       $unwind$??$type_case_integer_parse_into_buffer@_K@?$output_processor@DV?$string_output_adapter@D@__crt_stdio_output@@V?$format_validation_base@DV?$string_output_adapter@D@__crt_stdio_output@@@2@@__crt_stdio_output@@AEAAX_KI_N@Z 0000000180054400     libucrt:output.obj
 0002:0000f408       $unwind$??$parse_integer@KV?$c_string_character_source@D@__crt_strtox@@@__crt_strtox@@YAKQEAU__crt_locale_pointers@@V?$c_string_character_source@D@0@H_N@Z 0000000180054408     libucrt:atox.obj
 0002:0000f428       $xdatasym                  0000000180054428     libucrt:strncmp.obj
 0002:0000f42c       $unwind$_ctrlfp            000000018005442c     libucrt:fpctrl.obj
 0002:0000f454       $unwind$_call_matherr      0000000180054454     libucrt:libm_error.obj
 0002:0000f45c       $unwind$_handle_error      000000018005445c     libucrt:libm_error.obj
 0002:0000f45c       $unwind$_handle_errorf     000000018005445c     libucrt:libm_error.obj
 0002:0000f480       $xdatasym                  0000000180054480     libucrt:remainder_piby2f_forasm.obj
 0002:0000f488       $xdatasym                  0000000180054488     libucrt:remainder_piby2_forfma3.obj
 0002:0000f494       $unwind$_sincosf_special   0000000180054494     libucrt:sincos_special.obj
 0002:0000f49c       $unwind$__acrt_initialize_fma3 000000018005449c     libucrt:fma3_available.obj
 0002:0000f4a8       $xdatasym                  00000001800544a8     libucrt:remainder_piby2f_forc.obj
 0002:0000f4b8       $unwind$_free_base         00000001800544b8     libucrt:free_base.obj
 0002:0000f4b8       $unwind$?destroy_fls@@YAXPEAX@Z 00000001800544b8     libucrt:per_thread_data.obj
 0002:0000f4b8       $unwind$__acrt_locale_free_numeric 00000001800544b8     libucrt:initnum.obj
 0002:0000f4b8       $unwind$__acrt_locale_free_lc_time_if_unreferenced 00000001800544b8     libucrt:locale_refcounting.obj
 0002:0000f4c0       $unwind$?construct_ptd_array@@YAXQEAU__acrt_ptd@@@Z 00000001800544c0     libucrt:per_thread_data.obj
 0002:0000f4c8       $unwind$?destroy_ptd_array@@YAXQEAU__acrt_ptd@@@Z 00000001800544c8     libucrt:per_thread_data.obj
 0002:0000f4d0       $unwind$??$?RV<lambda_0ae27a3a962d80f24befdcbee591983d>@@AEAV<lambda_8d0ee55de4b1038c4002e0adecdf1839>@@V<lambda_dc504788e8f1664fe9b84e20bfb512f2>@@@?$__crt_seh_guarded_call@X@@QEAAX$$QEAV<lambda_0ae27a3a962d80f24befdcbee591983d>@@AEAV<lambda_8d0ee55de4b1038c4002e0adecdf1839>@@$$QEAV<lambda_dc504788e8f1664fe9b84e20bfb512f2>@@@Z 00000001800544d0     libucrt:per_thread_data.obj
 0002:0000f4f4       $unwind$??$?RV<lambda_aa87e3671a710a21b5dc78c0bdf72e11>@@AEAV<lambda_92619d2358a28f41a33ba319515a20b9>@@V<lambda_6992ecaafeb10aed2b74cb1fae11a551>@@@?$__crt_seh_guarded_call@X@@QEAAX$$QEAV<lambda_aa87e3671a710a21b5dc78c0bdf72e11>@@AEAV<lambda_92619d2358a28f41a33ba319515a20b9>@@$$QEAV<lambda_6992ecaafeb10aed2b74cb1fae11a551>@@@Z 00000001800544f4     libucrt:per_thread_data.obj
 0002:0000f518       $unwind$??$?RV<lambda_f2e299630e499de9f9a165e60fcd3db5>@@AEAV<lambda_2ae9d31cdba2644fcbeaf08da7c24588>@@V<lambda_40d01ff24d0e7b3814fdbdcee8eab3c7>@@@?$__crt_seh_guarded_call@X@@QEAAX$$QEAV<lambda_f2e299630e499de9f9a165e60fcd3db5>@@AEAV<lambda_2ae9d31cdba2644fcbeaf08da7c24588>@@$$QEAV<lambda_40d01ff24d0e7b3814fdbdcee8eab3c7>@@@Z 0000000180054518     libucrt:per_thread_data.obj
 0002:0000f53c       $unwind$??$?RV<lambda_2d41944a1d46af3157314b8a01080d33>@@AEAV<lambda_8f455de75cd7d7f24b4096f044d8b9e6>@@V<lambda_aa500f224e6afead328df44964fe2772>@@@?$__crt_seh_guarded_call@X@@QEAAX$$QEAV<lambda_2d41944a1d46af3157314b8a01080d33>@@AEAV<lambda_8f455de75cd7d7f24b4096f044d8b9e6>@@$$QEAV<lambda_aa500f224e6afead328df44964fe2772>@@@Z 000000018005453c     libucrt:per_thread_data.obj
 0002:0000f560       $unwind$__acrt_call_reportfault 0000000180054560     libucrt:invalid_parameter.obj
 0002:0000f580       $unwind$_invalid_parameter 0000000180054580     libucrt:invalid_parameter.obj
 0002:0000f594       $unwind$??$__acrt_mbs_to_wcs_cp@U__crt_win32_buffer_internal_dynamic_resizing@@@@YAHQEBDAEAV?$__crt_win32_buffer@_WU__crt_win32_buffer_internal_dynamic_resizing@@@@I@Z 0000000180054594     libucrt:argv_wildcards.obj
 0002:0000f5ac       $unwind$__dcrt_get_narrow_environment_from_os 00000001800545ac     libucrt:get_environment_from_os.obj
 0002:0000f5ac       $unwind$?fp_format_f_internal@@YAHQEAD_KHQEAU_strflt@@_NQEAU__crt_locale_pointers@@@Z 00000001800545ac     libucrt:cvt.obj
 0002:0000f5ac       $unwind$??$__acrt_wcs_to_mbs_cp@U__crt_win32_buffer_internal_dynamic_resizing@@@@YAHQEB_WAEAV?$__crt_win32_buffer@DU__crt_win32_buffer_internal_dynamic_resizing@@@@I@Z 00000001800545ac     libucrt:argv_wildcards.obj
 0002:0000f5c4       $unwind$??$common_expand_argv_wildcards@D@@YAHQEAPEADQEAPEAPEAD@Z 00000001800545c4     libucrt:argv_wildcards.obj
 0002:0000f5dc       $unwind$??$expand_argument_wildcards@D@@YAHQEAD0AEAV?$argument_list@D@?A0x5f5c8891@@@Z 00000001800545dc     libucrt:argv_wildcards.obj
 0002:0000f600       $unwind$__acrt_GetModuleFileNameA 0000000180054600     libucrt:getmodulefilenamea.obj
 0002:0000f61c       $unwind$__dcrt_write_console 000000018005461c     libucrt:initcon.obj
 0002:0000f61c       $unwind$??$__acrt_wcs_to_mbs_cp@U__crt_win32_buffer_no_resizing@@@@YAHQEB_WAEAV?$__crt_win32_buffer@DU__crt_win32_buffer_no_resizing@@@@I@Z 000000018005461c     libucrt:getmodulefilenamea.obj
 0002:0000f630       $unwind$_setmbcp_nolock    0000000180054630     libucrt:mbctype.obj
 0002:0000f650       $unwind$?update_thread_multibyte_data_internal@@YAPEAU__crt_multibyte_data@@QEAU__acrt_ptd@@QEAPEAU1@@Z 0000000180054650     libucrt:mbctype.obj
 0002:0000f678       $unwind$?setmbcp_internal@@YAHH_NQEAU__acrt_ptd@@QEAPEAU__crt_multibyte_data@@@Z 0000000180054678     libucrt:mbctype.obj
 0002:0000f688       $unwind$?setSBUpLow@@YAXPEAU__crt_multibyte_data@@@Z 0000000180054688     libucrt:mbctype.obj
 0002:0000f6a4       $unwind$??$?RV<lambda_efdfa57d1f175319df784efa44bb7b81>@@AEAV<lambda_5f0a4c1567f8adc6734073e5d1e1b35c>@@V<lambda_2e8a7d3640ea6ccb4c2413664c2db6fd>@@@?$__crt_seh_guarded_call@X@@QEAAX$$QEAV<lambda_efdfa57d1f175319df784efa44bb7b81>@@AEAV<lambda_5f0a4c1567f8adc6734073e5d1e1b35c>@@$$QEAV<lambda_2e8a7d3640ea6ccb4c2413664c2db6fd>@@@Z 00000001800546a4     libucrt:mbctype.obj
 0002:0000f6c8       $unwind$?x_ismbbtype_l@@YAHPEAU__crt_locale_pointers@@IHH@Z 00000001800546c8     libucrt:ismbbyte.obj
 0002:0000f6d8       $unwind$__GSHandlerCheckCommon 00000001800546d8     LIBCMT:gshandler.obj
 0002:0000f6d8       $unwind$__acrt_WideCharToMultiByte 00000001800546d8     libucrt:widechartomultibyte.obj
 0002:0000f6e0       $unwind$__acrt_initialize_winapi_thunks 00000001800546e0     libucrt:winapi_thunks.obj
 0002:0000f6e8       $unwind$__acrt_initialize_lowio 00000001800546e8     libucrt:ioinit.obj
 0002:0000f708       $unwind$?initialize_inherited_file_handles_nolock@@YAXXZ 0000000180054708     libucrt:ioinit.obj
 0002:0000f724       $unwind$_query_new_handler 0000000180054724     libucrt:new_handler.obj
 0002:0000f744       $unwind$__acrt_uninitialize_locale 0000000180054744     libucrt:wsetlocale.obj
 0002:0000f744       $unwind$__acrt_get_sigabrt_handler 0000000180054744     libucrt:signal.obj
 0002:0000f74c       $unwind$raise              000000018005474c     libucrt:signal.obj
 0002:0000f788       $unwind$??$?RV<lambda_450d765d439847d4c735a33c368b5fc0>@@AEAV<lambda_44731a7d0e6d81c3e6aa82d741081786>@@V<lambda_601a2a7da3b7a96e9554ac7215c4b07c>@@@?$__crt_seh_guarded_call@P6AXH@Z@@QEAAP6AXH@Z$$QEAV<lambda_450d765d439847d4c735a33c368b5fc0>@@AEAV<lambda_44731a7d0e6d81c3e6aa82d741081786>@@$$QEAV<lambda_601a2a7da3b7a96e9554ac7215c4b07c>@@@Z 0000000180054788     libucrt:signal.obj
 0002:0000f7ac       $unwind$?common_flush_all@@YAH_N@Z 00000001800547ac     libucrt:fflush.obj
 0002:0000f7b4       $unwind$??$?RV<lambda_842d9ff0dc9ef11c61343bbaebe7f885>@@AEAV<lambda_c5860995281e5c4ce005b3de8f5874ee>@@V<lambda_d90129c13df834fdcbf8d2b88dafcf2d>@@@?$__crt_seh_guarded_call@X@@QEAAX$$QEAV<lambda_842d9ff0dc9ef11c61343bbaebe7f885>@@AEAV<lambda_c5860995281e5c4ce005b3de8f5874ee>@@$$QEAV<lambda_d90129c13df834fdcbf8d2b88dafcf2d>@@@Z 00000001800547b4     libucrt:fflush.obj
 0002:0000f7d8       $unwind$??$?RV<lambda_886d6c58226a84441f68b9f2b8217b83>@@AEAV<lambda_ab61a845afdef5b7c387490eaf3616ee>@@V<lambda_f7f22ab5edc0698d5f6905b0d3f44752>@@@?$__crt_seh_guarded_call@X@@QEAAX$$QEAV<lambda_886d6c58226a84441f68b9f2b8217b83>@@AEAV<lambda_ab61a845afdef5b7c387490eaf3616ee>@@$$QEAV<lambda_f7f22ab5edc0698d5f6905b0d3f44752>@@@Z 00000001800547d8     libucrt:fflush.obj
 0002:0000f800       $unwind$_wctomb_s_l        0000000180054800     libucrt:wctomb.obj
 0002:0000f810       $unwind$__acrt_fp_format   0000000180054810     libucrt:cvt.obj
 0002:0000f824       $unwind$?fp_format_e_internal@@YAHQEAD_KH_NIQEAU_strflt@@2QEAU__crt_locale_pointers@@@Z 0000000180054824     libucrt:cvt.obj
 0002:0000f83c       $unwind$?fp_format_a@@YAHQEBNPEAD_KQEAD2H_NIQEAU__crt_locale_pointers@@@Z 000000018005483c     libucrt:cvt.obj
 0002:0000f858       $unwind$?fp_format_g@@YAHQEBNQEAD_K12H_NIQEAU__crt_locale_pointers@@@Z 0000000180054858     libucrt:cvt.obj
 0002:0000f86c       $unwind$??$?RV<lambda_410d79af7f07d98d83a3f525b3859a53>@@AEAV<lambda_3e16ef9562a7dcce91392c22ab16ea36>@@V<lambda_38119f0e861e05405d8a144b9b982f0a>@@@?$__crt_seh_guarded_call@X@@QEAAX$$QEAV<lambda_410d79af7f07d98d83a3f525b3859a53>@@AEAV<lambda_3e16ef9562a7dcce91392c22ab16ea36>@@$$QEAV<lambda_38119f0e861e05405d8a144b9b982f0a>@@@Z 000000018005486c     libucrt:wsetlocale.obj
 0002:0000f894       $unwind$_isctype_l         0000000180054894     libucrt:isctype.obj
 0002:0000f8b0       $xdatasym                  00000001800548b0     libucrt:fpsr.obj
 0002:0000f8b8       $unwind$_raise_exc_ex      00000001800548b8     libucrt:fpexcept.obj
 0002:0000f8cc       $unwind$__acrt_update_thread_locale_data 00000001800548cc     libucrt:locale_refcounting.obj
 0002:0000f8f0       $unwind$qsort              00000001800548f0     libucrt:qsort.obj
 0002:0000f908       $chain$4$qsort             0000000180054908     libucrt:qsort.obj
 0002:0000f92c       $chain$5$qsort             000000018005492c     libucrt:qsort.obj
 0002:0000f93c       $unwind$fallbackMethod     000000018005493c     libucrt:strpbrk.obj
 0002:0000f94c       $unwind$__acrt_GetStringTypeA 000000018005494c     libucrt:getstringtypea.obj
 0002:0000f974       $unwind$__acrt_LCMapStringA 0000000180054974     libucrt:lcmapstringa.obj
 0002:0000f984       $unwind$?__acrt_LCMapStringA_stat@@YAHPEAU__crt_locale_pointers@@PEB_WKPEBDHPEADHHH@Z 0000000180054984     libucrt:lcmapstringa.obj
 0002:0000f9ac       $unwind$__acrt_lowio_destroy_handle_array 00000001800549ac     libucrt:osfinfo.obj
 0002:0000f9bc       $unwind$__acrt_lowio_ensure_fh_exists 00000001800549bc     libucrt:osfinfo.obj
 0002:0000f9e8       $unwind$_close             00000001800549e8     libucrt:close.obj
 0002:0000f9e8       $unwind$_commit            00000001800549e8     libucrt:commit.obj
 0002:0000f9f0       $unwind$??$?RV<lambda_a37b2b86f63e897a80ea819b0eb08c01>@@AEAV<lambda_38ce7e780aa69e748d6df282ebc68efe>@@V<lambda_99fb1378e971ab6e7edea83e3a7a83a2>@@@?$__crt_seh_guarded_call@H@@QEAAH$$QEAV<lambda_a37b2b86f63e897a80ea819b0eb08c01>@@AEAV<lambda_38ce7e780aa69e748d6df282ebc68efe>@@$$QEAV<lambda_99fb1378e971ab6e7edea83e3a7a83a2>@@@Z 00000001800549f0     libucrt:commit.obj
 0002:0000fa14       $unwind$_write             0000000180054a14     libucrt:write.obj
 0002:0000fa44       $unwind$_write_nolock      0000000180054a44     libucrt:write.obj
 0002:0000fa5c       $unwind$?write_double_translated_ansi_nolock@@YA?AUwrite_result@?A0x17268360@@HQEBDI@Z 0000000180054a5c     libucrt:write.obj
 0002:0000fa80       $unwind$?write_text_ansi_nolock@@YA?AUwrite_result@?A0x17268360@@HQEBDI@Z 0000000180054a80     libucrt:write.obj
 0002:0000fa80       $unwind$?write_text_utf16le_nolock@@YA?AUwrite_result@?A0x17268360@@HQEBDI@Z 0000000180054a80     libucrt:write.obj
 0002:0000faa0       $unwind$?write_text_utf8_nolock@@YA?AUwrite_result@?A0x17268360@@HQEBDI@Z 0000000180054aa0     libucrt:write.obj
 0002:0000fac4       $unwind$_fcloseall         0000000180054ac4     libucrt:closeall.obj
 0002:0000fae8       $unwind$?__mbsrtowcs_utf8@__crt_mbstring@@YA_KPEA_WPEAPEBD_KPEAU_Mbstatet@@@Z 0000000180054ae8     libucrt:mbrtowc.obj
 0002:0000fb00       $unwind$__acrt_fltout      0000000180054b00     libucrt:cfout.obj
 0002:0000fb20       $unwind$?divide@__crt_strtox@@YA_KAEAUbig_integer@1@AEBU21@@Z 0000000180054b20     libucrt:cfout.obj
 0002:0000fb38       $chain$0$?divide@__crt_strtox@@YA_KAEAUbig_integer@1@AEBU21@@Z 0000000180054b38     libucrt:cfout.obj
 0002:0000fb4c       $chain$1$?divide@__crt_strtox@@YA_KAEAUbig_integer@1@AEBU21@@Z 0000000180054b4c     libucrt:cfout.obj
 0002:0000fb5c       $unwind$__acrt_locale_free_monetary 0000000180054b5c     libucrt:initmon.obj
 0002:0000fb64       $unwind$__acrt_locale_free_time 0000000180054b64     libucrt:inittime.obj
 0002:0000fb74       $unwind$_putwch_nolock     0000000180054b74     libucrt:putwch.obj
 0002:0000fb7c       $unwind$fclose             0000000180054b7c     libucrt:fclose.obj
 0002:0000fba0       $unwind$?__mbrtoc32_utf8@__crt_mbstring@@YA_KPEA_UPEBD_KPEAU_Mbstatet@@@Z 0000000180054ba0     libucrt:mbrtoc32.obj
 0002:0000fbc0       $xdatasym                  0000000180054bc0     libucrt:log10.obj
 0002:0000fbcc       $unwind$__acrt_fenv_set_control 0000000180054bcc     libucrt:_fenvutils.obj
 0002:0000fbdc       $unwind$??$?RV<lambda_751a882b2c74d4b022dec766aa51a29a>@@AEAV<lambda_628dfdc04ba53c8bfc02c9951375f3f5>@@V<lambda_f6c7be5f7998530c34de24c7437d6b54>@@@?$__crt_seh_guarded_call@H@@QEAAH$$QEAV<lambda_751a882b2c74d4b022dec766aa51a29a>@@AEAV<lambda_628dfdc04ba53c8bfc02c9951375f3f5>@@$$QEAV<lambda_f6c7be5f7998530c34de24c7437d6b54>@@@Z 0000000180054bdc     libucrt:close.obj
 0002:0000fc00       $unwind$_log_special_common 0000000180054c00     libucrt:log_special.obj
 0002:0000fc0c       $unwind$_IsNonwritableInCurrentImage 0000000180054c0c     LIBCMT:pesect.obj
 0002:0000fc30       $xdatasym                  0000000180054c30     LIBCMT:amdsecgs.obj
 0002:0000fc34       $unwind$__report_securityfailure 0000000180054c34     LIBCMT:gs_report.obj
 0002:0000fc3c       $unwind$__report_gsfailure 0000000180054c3c     LIBCMT:gs_report.obj
 0002:0000fc44       $unwind$capture_current_context 0000000180054c44     LIBCMT:gs_report.obj
 0002:0000fc50       $unwind$capture_previous_context 0000000180054c50     LIBCMT:gs_report.obj
 0002:0000fc60       $xdatasym                  0000000180054c60     libvcruntime:memcmp.obj
 0002:000109b0       .edata                     00000001800559b0     PhysXCooking_64.exp
 0002:000109d8       rgpv                       00000001800559d8     PhysXCooking_64.exp
 0002:00010bc0       rgszName                   0000000180055bc0     PhysXCooking_64.exp
 0002:00010da8       rgwOrd                     0000000180055da8     PhysXCooking_64.exp
 0002:00010e9c       szName                     0000000180055e9c     PhysXCooking_64.exp
 0002:00010eb0       $N00001                    0000000180055eb0     PhysXCooking_64.exp
 0002:00010edf       $N00002                    0000000180055edf     PhysXCooking_64.exp
 0002:00010f06       $N00003                    0000000180055f06     PhysXCooking_64.exp
 0002:00010f41       $N00004                    0000000180055f41     PhysXCooking_64.exp
 0002:00010f68       $N00005                    0000000180055f68     PhysXCooking_64.exp
 0002:00010f94       $N00006                    0000000180055f94     PhysXCooking_64.exp
 0002:00010fb5       $N00007                    0000000180055fb5     PhysXCooking_64.exp
 0002:00010fea       $N00008                    0000000180055fea     PhysXCooking_64.exp
 0002:00011003       $N00009                    0000000180056003     PhysXCooking_64.exp
 0002:00011023       $N00010                    0000000180056023     PhysXCooking_64.exp
 0002:0001104c       $N00011                    000000018005604c     PhysXCooking_64.exp
 0002:00011073       $N00012                    0000000180056073     PhysXCooking_64.exp
 0002:000110a2       $N00013                    00000001800560a2     PhysXCooking_64.exp
 0002:000110cf       $N00014                    00000001800560cf     PhysXCooking_64.exp
 0002:00011100       $N00015                    0000000180056100     PhysXCooking_64.exp
 0002:00011125       $N00016                    0000000180056125     PhysXCooking_64.exp
 0002:00011150       $N00017                    0000000180056150     PhysXCooking_64.exp
 0002:00011176       $N00018                    0000000180056176     PhysXCooking_64.exp
 0002:00011195       $N00019                    0000000180056195     PhysXCooking_64.exp
 0002:000111cb       $N00020                    00000001800561cb     PhysXCooking_64.exp
 0002:000111f5       $N00021                    00000001800561f5     PhysXCooking_64.exp
 0002:0001121c       $N00022                    000000018005621c     PhysXCooking_64.exp
 0002:00011245       $N00023                    0000000180056245     PhysXCooking_64.exp
 0002:0001125e       $N00024                    000000018005625e     PhysXCooking_64.exp
 0002:00011283       $N00025                    0000000180056283     PhysXCooking_64.exp
 0002:000112a2       $N00026                    00000001800562a2     PhysXCooking_64.exp
 0002:000112c1       $N00027                    00000001800562c1     PhysXCooking_64.exp
 0002:000112e1       $N00028                    00000001800562e1     PhysXCooking_64.exp
 0002:00011317       $N00029                    0000000180056317     PhysXCooking_64.exp
 0002:0001134f       $N00030                    000000018005634f     PhysXCooking_64.exp
 0002:00011383       $N00031                    0000000180056383     PhysXCooking_64.exp
 0002:000113b5       $N00032                    00000001800563b5     PhysXCooking_64.exp
 0002:000113e2       $N00033                    00000001800563e2     PhysXCooking_64.exp
 0002:0001140a       $N00034                    000000018005640a     PhysXCooking_64.exp
 0002:0001143b       $N00035                    000000018005643b     PhysXCooking_64.exp
 0002:0001146a       $N00036                    000000018005646a     PhysXCooking_64.exp
 0002:0001149a       $N00037                    000000018005649a     PhysXCooking_64.exp
 0002:000114c8       $N00038                    00000001800564c8     PhysXCooking_64.exp
 0002:000114f9       $N00039                    00000001800564f9     PhysXCooking_64.exp
 0002:0001152f       $N00040                    000000018005652f     PhysXCooking_64.exp
 0002:00011563       $N00041                    0000000180056563     PhysXCooking_64.exp
 0002:00011595       $N00042                    0000000180056595     PhysXCooking_64.exp
 0002:000115c7       $N00043                    00000001800565c7     PhysXCooking_64.exp
 0002:000115f3       $N00044                    00000001800565f3     PhysXCooking_64.exp
 0002:0001160f       $N00045                    000000018005660f     PhysXCooking_64.exp
 0002:00011639       $N00046                    0000000180056639     PhysXCooking_64.exp
 0002:0001165d       $N00047                    000000018005665d     PhysXCooking_64.exp
 0002:0001168f       $N00048                    000000018005668f     PhysXCooking_64.exp
 0002:000116b6       $N00049                    00000001800566b6     PhysXCooking_64.exp
 0002:000116e4       $N00050                    00000001800566e4     PhysXCooking_64.exp
 0002:0001170f       $N00051                    000000018005670f     PhysXCooking_64.exp
 0002:0001173c       $N00052                    000000018005673c     PhysXCooking_64.exp
 0002:00011765       $N00053                    0000000180056765     PhysXCooking_64.exp
 0002:00011794       $N00054                    0000000180056794     PhysXCooking_64.exp
 0002:000117bd       $N00055                    00000001800567bd     PhysXCooking_64.exp
 0002:000117e6       $N00056                    00000001800567e6     PhysXCooking_64.exp
 0002:00011814       $N00057                    0000000180056814     PhysXCooking_64.exp
 0002:0001183c       $N00058                    000000018005683c     PhysXCooking_64.exp
 0002:00011877       $N00059                    0000000180056877     PhysXCooking_64.exp
 0002:000118a1       $N00060                    00000001800568a1     PhysXCooking_64.exp
 0002:000118d5       $N00061                    00000001800568d5     PhysXCooking_64.exp
 0002:0001190b       $N00062                    000000018005690b     PhysXCooking_64.exp
 0002:00011947       $N00063                    0000000180056947     PhysXCooking_64.exp
 0002:0001198f       $N00064                    000000018005698f     PhysXCooking_64.exp
 0002:000119df       $N00065                    00000001800569df     PhysXCooking_64.exp
 0002:00011a13       $N00066                    0000000180056a13     PhysXCooking_64.exp
 0002:00011a48       $N00067                    0000000180056a48     PhysXCooking_64.exp
 0002:00011a7e       $N00068                    0000000180056a7e     PhysXCooking_64.exp
 0002:00011aa5       $N00069                    0000000180056aa5     PhysXCooking_64.exp
 0002:00011aed       $N00070                    0000000180056aed     PhysXCooking_64.exp
 0002:00011b33       $N00071                    0000000180056b33     PhysXCooking_64.exp
 0002:00011b8b       $N00072                    0000000180056b8b     PhysXCooking_64.exp
 0002:00011bd2       $N00073                    0000000180056bd2     PhysXCooking_64.exp
 0002:00011bfd       $N00074                    0000000180056bfd     PhysXCooking_64.exp
 0002:00011c2d       $N00075                    0000000180056c2d     PhysXCooking_64.exp
 0002:00011c7d       $N00076                    0000000180056c7d     PhysXCooking_64.exp
 0002:00011d2c       $N00077                    0000000180056d2c     PhysXCooking_64.exp
 0002:00011d8a       $N00078                    0000000180056d8a     PhysXCooking_64.exp
 0002:00011db6       $N00079                    0000000180056db6     PhysXCooking_64.exp
 0002:00011de2       $N00080                    0000000180056de2     PhysXCooking_64.exp
 0002:00011e17       $N00081                    0000000180056e17     PhysXCooking_64.exp
 0002:00011e40       $N00082                    0000000180056e40     PhysXCooking_64.exp
 0002:00011e7c       $N00083                    0000000180056e7c     PhysXCooking_64.exp
 0002:00011ea8       $N00084                    0000000180056ea8     PhysXCooking_64.exp
 0002:00011edb       $N00085                    0000000180056edb     PhysXCooking_64.exp
 0002:00011f28       $N00086                    0000000180056f28     PhysXCooking_64.exp
 0002:00011f5b       $N00087                    0000000180056f5b     PhysXCooking_64.exp
 0002:00011f95       $N00088                    0000000180056f95     PhysXCooking_64.exp
 0002:00011fcf       $N00089                    0000000180056fcf     PhysXCooking_64.exp
 0002:0001200b       $N00090                    000000018005700b     PhysXCooking_64.exp
 0002:0001204f       $N00091                    000000018005704f     PhysXCooking_64.exp
 0002:0001207e       $N00092                    000000018005707e     PhysXCooking_64.exp
 0002:000120f8       $N00093                    00000001800570f8     PhysXCooking_64.exp
 0002:00012155       $N00094                    0000000180057155     PhysXCooking_64.exp
 0002:00012181       $N00095                    0000000180057181     PhysXCooking_64.exp
 0002:000121b5       $N00096                    00000001800571b5     PhysXCooking_64.exp
 0002:000121ee       $N00097                    00000001800571ee     PhysXCooking_64.exp
 0002:0001222b       $N00098                    000000018005722b     PhysXCooking_64.exp
 0002:00012261       $N00099                    0000000180057261     PhysXCooking_64.exp
 0002:0001228e       $N00100                    000000018005728e     PhysXCooking_64.exp
 0002:000122bb       $N00101                    00000001800572bb     PhysXCooking_64.exp
 0002:000122e6       $N00102                    00000001800572e6     PhysXCooking_64.exp
 0002:00012312       $N00103                    0000000180057312     PhysXCooking_64.exp
 0002:0001233f       $N00104                    000000018005733f     PhysXCooking_64.exp
 0002:0001235f       $N00105                    000000018005735f     PhysXCooking_64.exp
 0002:0001239b       $N00106                    000000018005739b     PhysXCooking_64.exp
 0002:000123cc       $N00107                    00000001800573cc     PhysXCooking_64.exp
 0002:000123fe       $N00108                    00000001800573fe     PhysXCooking_64.exp
 0002:00012440       $N00109                    0000000180057440     PhysXCooking_64.exp
 0002:0001246d       $N00110                    000000018005746d     PhysXCooking_64.exp
 0002:00012491       $N00111                    0000000180057491     PhysXCooking_64.exp
 0002:000124c1       $N00112                    00000001800574c1     PhysXCooking_64.exp
 0002:000124f4       $N00113                    00000001800574f4     PhysXCooking_64.exp
 0002:00012519       $N00114                    0000000180057519     PhysXCooking_64.exp
 0002:00012547       $N00115                    0000000180057547     PhysXCooking_64.exp
 0002:0001256f       $N00116                    000000018005756f     PhysXCooking_64.exp
 0002:0001258f       $N00117                    000000018005758f     PhysXCooking_64.exp
 0002:000125d4       $N00118                    00000001800575d4     PhysXCooking_64.exp
 0002:00012611       $N00119                    0000000180057611     PhysXCooking_64.exp
 0002:0001264e       $N00120                    000000018005764e     PhysXCooking_64.exp
 0002:00012681       $N00121                    0000000180057681     PhysXCooking_64.exp
 0002:00012691       $N00122                    0000000180057691     PhysXCooking_64.exp
 0002:00012940       .idata$6                   0000000180057940     kernel32:KERNEL32.dll
 0003:00000000       ?MAXDOT_MINANG@local@@3MB  0000000180058000     ConvexHullUtils.obj
 0003:00000004       ?MAXDOT_MINANG@local@@3MB  0000000180058004     QuickHullConvexHullLib.obj
 0003:00000060       ?prefix@?1??getDimension@UnDecorator@@CA?AVDName@@_N@Z@4UStringLiteral@@A 0000000180058060     libvcruntime:undname.obj
 0003:00000070       ?__vcrt_flsindex@@3KA      0000000180058070     libvcruntime:per_thread_data.obj
 0003:00000090       ?dazSupported@?1??_ctrlfp@@9@9 0000000180058090     libucrt:fpctrl.obj
 0003:000000a0       ?__acrt_flsindex@@3KA      00000001800580a0     libucrt:per_thread_data.obj
 0003:000000a4       ?errno_no_memory@@3HA      00000001800580a4     libucrt:errno.obj
 0003:000000a8       ?doserrno_no_memory@@3KA   00000001800580a8     libucrt:errno.obj
 0003:000002e0       _mbctypes                  00000001800582e0     libucrt:mbctype.obj
 0003:000003f0       _mbcasemaps                00000001800583f0     libucrt:mbctype.obj
 0003:000004f0       ?__rgctypeflag@@3PADA      00000001800584f0     libucrt:mbctype.obj
 0003:00000500       ?__rgcode_page_info@@3PAUcode_page_info@@A 0000000180058500     libucrt:mbctype.obj
 0003:00000a20       ?__dcrt_lowio_console_output_handle@@3PEAXEA 0000000180058a20     libucrt:initcon.obj
 0003:00001290       ?maxV3Error@_VecMathTests@aos@shdfnd@physx@@3T__m128@@B 0000000180059290     Cooking.obj
 0003:000012a0       ?minFError@_VecMathTests@aos@shdfnd@physx@@3T__m128@@B 00000001800592a0     Cooking.obj
 0003:000012b0       ?maxV4Error@_VecMathTests@aos@shdfnd@physx@@3T__m128@@B 00000001800592b0     Cooking.obj
 0003:000012c0       ?minV4Error@_VecMathTests@aos@shdfnd@physx@@3T__m128@@B 00000001800592c0     Cooking.obj
 0003:000012d0       ?minV3Error@_VecMathTests@aos@shdfnd@physx@@3T__m128@@B 00000001800592d0     Cooking.obj
 0003:000012e0       ?maxFError@_VecMathTests@aos@shdfnd@physx@@3T__m128@@B 00000001800592e0     Cooking.obj
 0003:000012f0       ?maxV3Error@_VecMathTests@aos@shdfnd@physx@@3T__m128@@B 00000001800592f0     BVHStructureBuilder.obj
 0003:00001300       ?minFError@_VecMathTests@aos@shdfnd@physx@@3T__m128@@B 0000000180059300     BVHStructureBuilder.obj
 0003:00001310       ?maxV4Error@_VecMathTests@aos@shdfnd@physx@@3T__m128@@B 0000000180059310     BVHStructureBuilder.obj
 0003:00001320       ?minV4Error@_VecMathTests@aos@shdfnd@physx@@3T__m128@@B 0000000180059320     BVHStructureBuilder.obj
 0003:00001330       ?minV3Error@_VecMathTests@aos@shdfnd@physx@@3T__m128@@B 0000000180059330     BVHStructureBuilder.obj
 0003:00001340       ?maxFError@_VecMathTests@aos@shdfnd@physx@@3T__m128@@B 0000000180059340     BVHStructureBuilder.obj
 0003:00001350       ?maxV3Error@_VecMathTests@aos@shdfnd@physx@@3T__m128@@B 0000000180059350     RTreeCooking.obj
 0003:00001360       ?minFError@_VecMathTests@aos@shdfnd@physx@@3T__m128@@B 0000000180059360     RTreeCooking.obj
 0003:00001370       ?maxV4Error@_VecMathTests@aos@shdfnd@physx@@3T__m128@@B 0000000180059370     RTreeCooking.obj
 0003:00001380       ?minV4Error@_VecMathTests@aos@shdfnd@physx@@3T__m128@@B 0000000180059380     RTreeCooking.obj
 0003:00001390       ?minV3Error@_VecMathTests@aos@shdfnd@physx@@3T__m128@@B 0000000180059390     RTreeCooking.obj
 0003:000013a0       ?maxFError@_VecMathTests@aos@shdfnd@physx@@3T__m128@@B 00000001800593a0     RTreeCooking.obj
 0003:000013b0       ?maxV3Error@_VecMathTests@aos@shdfnd@physx@@3T__m128@@B 00000001800593b0     MeshBuilder.obj
 0003:000013c0       ?minFError@_VecMathTests@aos@shdfnd@physx@@3T__m128@@B 00000001800593c0     MeshBuilder.obj
 0003:000013d0       ?maxV4Error@_VecMathTests@aos@shdfnd@physx@@3T__m128@@B 00000001800593d0     MeshBuilder.obj
 0003:000013e0       ?minV4Error@_VecMathTests@aos@shdfnd@physx@@3T__m128@@B 00000001800593e0     MeshBuilder.obj
 0003:000013f0       ?minV3Error@_VecMathTests@aos@shdfnd@physx@@3T__m128@@B 00000001800593f0     MeshBuilder.obj
 0003:00001400       ?maxFError@_VecMathTests@aos@shdfnd@physx@@3T__m128@@B 0000000180059400     MeshBuilder.obj
 0003:00001410       ?maxV3Error@_VecMathTests@aos@shdfnd@physx@@3T__m128@@B 0000000180059410     TriangleMeshBuilder.obj
 0003:00001420       ?minFError@_VecMathTests@aos@shdfnd@physx@@3T__m128@@B 0000000180059420     TriangleMeshBuilder.obj
 0003:00001430       ?maxV4Error@_VecMathTests@aos@shdfnd@physx@@3T__m128@@B 0000000180059430     TriangleMeshBuilder.obj
 0003:00001440       ?minV4Error@_VecMathTests@aos@shdfnd@physx@@3T__m128@@B 0000000180059440     TriangleMeshBuilder.obj
 0003:00001450       ?minV3Error@_VecMathTests@aos@shdfnd@physx@@3T__m128@@B 0000000180059450     TriangleMeshBuilder.obj
 0003:00001460       ?maxFError@_VecMathTests@aos@shdfnd@physx@@3T__m128@@B 0000000180059460     TriangleMeshBuilder.obj
 0003:00001470       ?maxV3Error@_VecMathTests@aos@shdfnd@physx@@3T__m128@@B 0000000180059470     BigConvexDataBuilder.obj
 0003:00001480       ?minFError@_VecMathTests@aos@shdfnd@physx@@3T__m128@@B 0000000180059480     BigConvexDataBuilder.obj
 0003:00001490       ?maxV4Error@_VecMathTests@aos@shdfnd@physx@@3T__m128@@B 0000000180059490     BigConvexDataBuilder.obj
 0003:000014a0       ?minV4Error@_VecMathTests@aos@shdfnd@physx@@3T__m128@@B 00000001800594a0     BigConvexDataBuilder.obj
 0003:000014b0       ?minV3Error@_VecMathTests@aos@shdfnd@physx@@3T__m128@@B 00000001800594b0     BigConvexDataBuilder.obj
 0003:000014c0       ?maxFError@_VecMathTests@aos@shdfnd@physx@@3T__m128@@B 00000001800594c0     BigConvexDataBuilder.obj
 0003:000014d0       ?maxV3Error@_VecMathTests@aos@shdfnd@physx@@3T__m128@@B 00000001800594d0     ConvexHullBuilder.obj
 0003:000014e0       ?minFError@_VecMathTests@aos@shdfnd@physx@@3T__m128@@B 00000001800594e0     ConvexHullBuilder.obj
 0003:000014f0       ?maxV4Error@_VecMathTests@aos@shdfnd@physx@@3T__m128@@B 00000001800594f0     ConvexHullBuilder.obj
 0003:00001500       ?minV4Error@_VecMathTests@aos@shdfnd@physx@@3T__m128@@B 0000000180059500     ConvexHullBuilder.obj
 0003:00001510       ?minV3Error@_VecMathTests@aos@shdfnd@physx@@3T__m128@@B 0000000180059510     ConvexHullBuilder.obj
 0003:00001520       ?maxFError@_VecMathTests@aos@shdfnd@physx@@3T__m128@@B 0000000180059520     ConvexHullBuilder.obj
 0003:00001530       ?maxV3Error@_VecMathTests@aos@shdfnd@physx@@3T__m128@@B 0000000180059530     ConvexHullUtils.obj
 0003:00001540       ?minFError@_VecMathTests@aos@shdfnd@physx@@3T__m128@@B 0000000180059540     ConvexHullUtils.obj
 0003:00001550       ?maxV4Error@_VecMathTests@aos@shdfnd@physx@@3T__m128@@B 0000000180059550     ConvexHullUtils.obj
 0003:00001560       ?minV4Error@_VecMathTests@aos@shdfnd@physx@@3T__m128@@B 0000000180059560     ConvexHullUtils.obj
 0003:00001570       ?minV3Error@_VecMathTests@aos@shdfnd@physx@@3T__m128@@B 0000000180059570     ConvexHullUtils.obj
 0003:00001580       ?maxFError@_VecMathTests@aos@shdfnd@physx@@3T__m128@@B 0000000180059580     ConvexHullUtils.obj
 0003:00001590       ?maxV3Error@_VecMathTests@aos@shdfnd@physx@@3T__m128@@B 0000000180059590     ConvexMeshBuilder.obj
 0003:000015a0       ?minFError@_VecMathTests@aos@shdfnd@physx@@3T__m128@@B 00000001800595a0     ConvexMeshBuilder.obj
 0003:000015b0       ?maxV4Error@_VecMathTests@aos@shdfnd@physx@@3T__m128@@B 00000001800595b0     ConvexMeshBuilder.obj
 0003:000015c0       ?minV4Error@_VecMathTests@aos@shdfnd@physx@@3T__m128@@B 00000001800595c0     ConvexMeshBuilder.obj
 0003:000015d0       ?minV3Error@_VecMathTests@aos@shdfnd@physx@@3T__m128@@B 00000001800595d0     ConvexMeshBuilder.obj
 0003:000015e0       ?maxFError@_VecMathTests@aos@shdfnd@physx@@3T__m128@@B 00000001800595e0     ConvexMeshBuilder.obj
 0003:000015f0       ?maxV3Error@_VecMathTests@aos@shdfnd@physx@@3T__m128@@B 00000001800595f0     VolumeIntegration.obj
 0003:00001600       ?minFError@_VecMathTests@aos@shdfnd@physx@@3T__m128@@B 0000000180059600     VolumeIntegration.obj
 0003:00001610       ?maxV4Error@_VecMathTests@aos@shdfnd@physx@@3T__m128@@B 0000000180059610     VolumeIntegration.obj
 0003:00001620       ?minV4Error@_VecMathTests@aos@shdfnd@physx@@3T__m128@@B 0000000180059620     VolumeIntegration.obj
 0003:00001630       ?minV3Error@_VecMathTests@aos@shdfnd@physx@@3T__m128@@B 0000000180059630     VolumeIntegration.obj
 0003:00001640       ?maxFError@_VecMathTests@aos@shdfnd@physx@@3T__m128@@B 0000000180059640     VolumeIntegration.obj
 0003:00001650       ?gCookingDelayLoadHook@@3PEBVPxDelayLoadHook@physx@@EB 0000000180059650     WindowsCookingDelayLoadHook.obj
 0003:000016b0       ?__proc_attached@@3HA      00000001800596b0     LIBCMT:dll_dllmain.obj
 0003:000016d8       ?is_initialized_as_dll@@3_NA 00000001800596d8     LIBCMT:utility.obj
 0003:000016d9       ?module_local_atexit_table_initialized@@3_NA 00000001800596d9     LIBCMT:utility.obj
 0003:000016e0       ?module_local_atexit_table@@3U_onexit_table_t@@A 00000001800596e0     LIBCMT:utility.obj
 0003:000016f8       ?module_local_at_quick_exit_table@@3U_onexit_table_t@@A 00000001800596f8     LIBCMT:utility.obj
 0003:00001768       ?heap@@3V_HeapManager@@A   0000000180059768     libvcruntime:undname.obj
 0003:00001790       ?__vcrt_startup_thread_ptd@@3U__vcrt_ptd@@A 0000000180059790     libvcruntime:per_thread_data.obj
 0003:00001810       __vcrt_lock_table          0000000180059810     libvcruntime:locks.obj
 0003:00001838       __vcrt_locks_initialized   0000000180059838     libvcruntime:locks.obj
 0003:00001840       ?module_handles@@3PAPEAUHINSTANCE__@@A 0000000180059840     libvcruntime:winapi_downlevel.obj
 0003:00001858       ?function_pointers@@3PAPEAXA 0000000180059858     libvcruntime:winapi_downlevel.obj
 0003:00001880       ?c_termination_complete@@3JA 0000000180059880     libucrt:exit.obj
 0003:00001888       ?thread_local_exit_callback_func@@3P6AXPEAXK0@ZEA 0000000180059888     libucrt:exit.obj
 0003:000018a0       ?program_name@?1???$common_configure_argv@D@@YAHW4_crt_argv_mode@@@Z@4PADA 00000001800598a0     libucrt:argv_parsing.obj
 0003:00001a00       ?__acrt_lock_table@@3PAU_RTL_CRITICAL_SECTION@@A 0000000180059a00     libucrt:locks.obj
 0003:00001c30       ?__acrt_locks_initialized@@3IA 0000000180059c30     libucrt:locks.obj
 0003:00001c38       ?__acrt_invalid_parameter_handler@@3V?$dual_state_global@P6AXPEB_W00I_K@Z@__crt_state_management@@A 0000000180059c38     libucrt:invalid_parameter.obj
 0003:00001c58       ?fSystemSet@@3HA           0000000180059c58     libucrt:mbctype.obj
 0003:00001c5c       ?initialized@?1??__acrt_initialize_multibyte@@9@4_NA 0000000180059c5c     libucrt:mbctype.obj
 0003:00001c90       ?module_handles@@3PAPEAUHINSTANCE__@@A 0000000180059c90     libucrt:winapi_thunks.obj
 0003:00001d30       ?encoded_function_pointers@@3PAPEAXA 0000000180059d30     libucrt:winapi_thunks.obj
 0003:00002258       ?__acrt_new_handler@@3V?$dual_state_global@P6AH_K@Z@__crt_state_management@@A 000000018005a258     libucrt:new_handler.obj
 0003:00002260       ?ctrlc_action@@3V?$dual_state_global@P6AXH@Z@__crt_state_management@@A 000000018005a260     libucrt:signal.obj
 0003:00002268       ?ctrlbreak_action@@3V?$dual_state_global@P6AXH@Z@__crt_state_management@@A 000000018005a268     libucrt:signal.obj
 0003:00002270       ?abort_action@@3V?$dual_state_global@P6AXH@Z@__crt_state_management@@A 000000018005a270     libucrt:signal.obj
 0003:00002278       ?term_action@@3V?$dual_state_global@P6AXH@Z@__crt_state_management@@A 000000018005a278     libucrt:signal.obj
 0003:00002280       ?user_matherr@@3V?$dual_state_global@P6AHPEAU_exception@@@Z@__crt_state_management@@A 000000018005a280     libucrt:matherr.obj
 0003:000022b0       ?internal_state@?1??_mbtowc_l@@9@4U_Mbstatet@@A 000000018005a2b0     libucrt:mbtowc.obj
 0003:000022b8       ?enable_percent_n@@3_KA    000000018005a2b8     libucrt:printf_count_output.obj
 0003:000022c4       ?__acrt_global_new_mode@@3V?$dual_state_global@J@__crt_state_management@@A 000000018005a2c4     libucrt:new_mode.obj
 0003:000022d0       ?__acrt_app_type@@3W4_crt_app_type@@A 000000018005a2d0     libucrt:report_runtime_error.obj
 0003:000022d8       ?internal_pst@?1??__mbrtoc32_utf8@__crt_mbstring@@YA_KPEA_UPEBD_KPEAU_Mbstatet@@@Z@4U3@A 000000018005a2d8     libucrt:mbrtoc32.obj
 0003:000022e0       GS_ExceptionRecord         000000018005a2e0     LIBCMT:gs_report.obj
 0003:00002380       GS_ContextRecord           000000018005a380     LIBCMT:gs_report.obj
 0005:00000000       _2il0floatpacket$19        000000018005f000     LIBCMT:svml_ssinf4_sse2.obj
 0005:00002200       _vmlsSinHATab              0000000180061200     LIBCMT:svml_s_sin_cout.obj
 0005:00002210       MsetTab                    0000000180061210     libvcruntime:memset.obj
 0005:00002260       MoveSmall                  0000000180061260     libvcruntime:memcpy.obj
 0006:000000a0       $R000000                   00000001800620a0     PhysXCooking.res
 0006:000003d0       $R000330                   00000001800623d0     PhysXCooking.res
